TMS320C55x Assembler PC v4.4.1 Sat Sep 08 05:55:01 2018

Tools Copyright (c) 1996-2012 Texas Instruments Incorporated
MessageBufferDemo.asm                                                PAGE    1

    3064              ; Temporary Registers Used: None
       1              ;*******************************************************************************
       2              ;* TMS320C55x C/C++ Codegen                                          PC v4.4.1 *
       3              ;* Date/Time created: Sat Sep 08 05:55:01 2018                                 *
       4              ;*******************************************************************************
       5                      .compiler_opts --hll_source=on --mem_model:code=flat --mem_model:data=large --object_format=coff --si
       6                      .mmregs
       7                      .cpl_on
       8                      .arms_on
       9                      .c54cm_off
      10                      .asg AR6, FP
      11                      .asg XAR6, XFP
      12                      .asg DPH, MDP
      13                      .model call=c55_std
      14                      .model mem=large
      15                      .noremark 5002  ; code respects overwrite rules
      16              ;*******************************************************************************
      17              ;* GLOBAL FILE PARAMETERS                                                      *
      18              ;*                                                                             *
      19              ;*   Architecture       : TMS320C55x                                           *
      20              ;*   Optimizing for     : Speed                                                *
      21              ;*   Memory             : Large Model (23-Bit Data Pointers)                   *
      22              ;*   Calls              : Normal Library ASM calls                             *
      23              ;*   Debug Info         : Standard TI Debug Information                        *
      24              ;*******************************************************************************
      25              
      26              $C$DW$CU        .dwtag  DW_TAG_compile_unit
      27                      .dwattr $C$DW$CU, DW_AT_name("../FreeRTOS/Demo/Common/Minimal/MessageBufferDemo.c")
      28                      .dwattr $C$DW$CU, DW_AT_producer("TMS320C55x C/C++ Codegen PC v4.4.1 Copyright (c) 1996-2012 Texas In
      29                      .dwattr $C$DW$CU, DW_AT_TI_version(0x01)
      30                      .dwattr $C$DW$CU, DW_AT_comp_dir("F:\eZdsp_C55x_FreeRTOS_Port\eZDSP\eZDSP_5535_Files\ccsws2\test\Debu
      31              ;******************************************************************************
      32              ;* CINIT RECORDS                                                              *
      33              ;******************************************************************************
      34 000000               .sect   ".cinit"
      35                      .align  1
      36 000000 0002          .field          $C$IR_1,16
      37 000001 0000-         .field          _ulEchoLoopCounters+0,24
         000002 0000 
      38 000002 0000          .field          0,8
      39 000003 0000          .field  0,32                    ; _ulEchoLoopCounters[0] @ 0
         000004 0000 
      40              $C$IR_1:        .set    2
      41              
      42 000005               .sect   ".cinit"
      43                      .align  1
      44 000005 0002          .field          2,16
      45 000006 0000-         .field          _ulNonBlockingRxCounter+0,24
         000007 0400 
      46 000007 0400          .field          0,8
      47 000008 0000          .field  0,32                    ; _ulNonBlockingRxCounter @ 0
         000009 0000 
      48              
      49 00000a               .sect   ".cinit"
      50                      .align  1
TMS320C55x Assembler PC v4.4.1 Sat Sep 08 05:55:01 2018

Tools Copyright (c) 1996-2012 Texas Instruments Incorporated
MessageBufferDemo.asm                                                PAGE    2

      51 00000a 0002          .field          2,16
      52 00000b 0000-         .field          _pc55ByteString+0,24
         00000c 0600 
      53 00000c 0600          .field          0,8
      54 00000d 0000+         .field  $C$FSL1,32              ; _pc55ByteString @ 0
         00000e 0000 
      55              
      56 00000f               .sect   ".cinit"
      57                      .align  1
      58 00000f 0001          .field          1,16
      59 000010 0000-         .field          _xBlockingStackSize+0,24
         000011 0800 
      60 000011 0800          .field          0,8
      61 000012 0000          .field  0,16                    ; _xBlockingStackSize @ 0
      62              
      63 000013               .sect   ".cinit"
      64                      .align  1
      65 000013 0002          .field          $C$IR_2,16
      66 000014 0000-         .field          _ulLastEchoLoopCounters$1+0,24
         000015 0A00 
      67 000015 0A00          .field          0,8
      68 000016 0000          .field  0,32                    ; _ulLastEchoLoopCounters$1[0] @ 0
         000017 0000 
      69              $C$IR_2:        .set    2
      70              
      71 000018               .sect   ".cinit"
      72                      .align  1
      73 000018 0002          .field          2,16
      74 000019 0000-         .field          _ulLastNonBlockingRxCounter$2+0,24
         00001a 0E00 
      75 00001a 0E00          .field          0,8
      76 00001b 0000          .field  0,32                    ; _ulLastNonBlockingRxCounter$2 @ 0
         00001c 0000 
      77              
      78              
      79              $C$DW$1 .dwtag  DW_TAG_subprogram, DW_AT_name("sprintf")
      80                      .dwattr $C$DW$1, DW_AT_TI_symbol_name("_sprintf")
      81                      .dwattr $C$DW$1, DW_AT_type(*$C$DW$T$10)
      82                      .dwattr $C$DW$1, DW_AT_declaration
      83                      .dwattr $C$DW$1, DW_AT_external
      84              $C$DW$2 .dwtag  DW_TAG_formal_parameter
      85                      .dwattr $C$DW$2, DW_AT_type(*$C$DW$T$71)
      86              $C$DW$3 .dwtag  DW_TAG_formal_parameter
      87                      .dwattr $C$DW$3, DW_AT_type(*$C$DW$T$56)
      88              $C$DW$4 .dwtag  DW_TAG_unspecified_parameters
      89                      .dwendtag $C$DW$1
      90              
      91              
      92              $C$DW$5 .dwtag  DW_TAG_subprogram, DW_AT_name("strlen")
      93                      .dwattr $C$DW$5, DW_AT_TI_symbol_name("_strlen")
      94                      .dwattr $C$DW$5, DW_AT_type(*$C$DW$T$27)
      95                      .dwattr $C$DW$5, DW_AT_declaration
      96                      .dwattr $C$DW$5, DW_AT_external
      97              $C$DW$6 .dwtag  DW_TAG_formal_parameter
      98                      .dwattr $C$DW$6, DW_AT_type(*$C$DW$T$56)
TMS320C55x Assembler PC v4.4.1 Sat Sep 08 05:55:01 2018

Tools Copyright (c) 1996-2012 Texas Instruments Incorporated
MessageBufferDemo.asm                                                PAGE    3

      99                      .dwendtag $C$DW$5
     100              
     101              
     102              $C$DW$7 .dwtag  DW_TAG_subprogram, DW_AT_name("strcmp")
     103                      .dwattr $C$DW$7, DW_AT_TI_symbol_name("_strcmp")
     104                      .dwattr $C$DW$7, DW_AT_type(*$C$DW$T$10)
     105                      .dwattr $C$DW$7, DW_AT_declaration
     106                      .dwattr $C$DW$7, DW_AT_external
     107              $C$DW$8 .dwtag  DW_TAG_formal_parameter
     108                      .dwattr $C$DW$8, DW_AT_type(*$C$DW$T$56)
     109              $C$DW$9 .dwtag  DW_TAG_formal_parameter
     110                      .dwattr $C$DW$9, DW_AT_type(*$C$DW$T$56)
     111                      .dwendtag $C$DW$7
     112              
     113              
     114              $C$DW$10        .dwtag  DW_TAG_subprogram, DW_AT_name("memset")
     115                      .dwattr $C$DW$10, DW_AT_TI_symbol_name("_memset")
     116                      .dwattr $C$DW$10, DW_AT_type(*$C$DW$T$3)
     117                      .dwattr $C$DW$10, DW_AT_declaration
     118                      .dwattr $C$DW$10, DW_AT_external
     119              $C$DW$11        .dwtag  DW_TAG_formal_parameter
     120                      .dwattr $C$DW$11, DW_AT_type(*$C$DW$T$3)
     121              $C$DW$12        .dwtag  DW_TAG_formal_parameter
     122                      .dwattr $C$DW$12, DW_AT_type(*$C$DW$T$10)
     123              $C$DW$13        .dwtag  DW_TAG_formal_parameter
     124                      .dwattr $C$DW$13, DW_AT_type(*$C$DW$T$27)
     125                      .dwendtag $C$DW$10
     126              
     127              
     128              $C$DW$14        .dwtag  DW_TAG_subprogram, DW_AT_name("pvPortMalloc")
     129                      .dwattr $C$DW$14, DW_AT_TI_symbol_name("_pvPortMalloc")
     130                      .dwattr $C$DW$14, DW_AT_type(*$C$DW$T$3)
     131                      .dwattr $C$DW$14, DW_AT_declaration
     132                      .dwattr $C$DW$14, DW_AT_external
     133              $C$DW$15        .dwtag  DW_TAG_formal_parameter
     134                      .dwattr $C$DW$15, DW_AT_type(*$C$DW$T$27)
     135                      .dwendtag $C$DW$14
     136              
     137              
     138              $C$DW$16        .dwtag  DW_TAG_subprogram, DW_AT_name("vPortFree")
     139                      .dwattr $C$DW$16, DW_AT_TI_symbol_name("_vPortFree")
     140                      .dwattr $C$DW$16, DW_AT_declaration
     141                      .dwattr $C$DW$16, DW_AT_external
     142              $C$DW$17        .dwtag  DW_TAG_formal_parameter
     143                      .dwattr $C$DW$17, DW_AT_type(*$C$DW$T$3)
     144                      .dwendtag $C$DW$16
     145              
     146              
     147              $C$DW$18        .dwtag  DW_TAG_subprogram, DW_AT_name("xTaskCreate")
     148                      .dwattr $C$DW$18, DW_AT_TI_symbol_name("_xTaskCreate")
     149                      .dwattr $C$DW$18, DW_AT_type(*$C$DW$T$28)
     150                      .dwattr $C$DW$18, DW_AT_declaration
     151                      .dwattr $C$DW$18, DW_AT_external
     152              $C$DW$19        .dwtag  DW_TAG_formal_parameter
     153                      .dwattr $C$DW$19, DW_AT_type(*$C$DW$T$38)
TMS320C55x Assembler PC v4.4.1 Sat Sep 08 05:55:01 2018

Tools Copyright (c) 1996-2012 Texas Instruments Incorporated
MessageBufferDemo.asm                                                PAGE    4

     154              $C$DW$20        .dwtag  DW_TAG_formal_parameter
     155                      .dwattr $C$DW$20, DW_AT_type(*$C$DW$T$57)
     156              $C$DW$21        .dwtag  DW_TAG_formal_parameter
     157                      .dwattr $C$DW$21, DW_AT_type(*$C$DW$T$58)
     158              $C$DW$22        .dwtag  DW_TAG_formal_parameter
     159                      .dwattr $C$DW$22, DW_AT_type(*$C$DW$T$35)
     160              $C$DW$23        .dwtag  DW_TAG_formal_parameter
     161                      .dwattr $C$DW$23, DW_AT_type(*$C$DW$T$41)
     162              $C$DW$24        .dwtag  DW_TAG_formal_parameter
     163                      .dwattr $C$DW$24, DW_AT_type(*$C$DW$T$60)
     164                      .dwendtag $C$DW$18
     165              
     166              
     167              $C$DW$25        .dwtag  DW_TAG_subprogram, DW_AT_name("uxTaskPriorityGet")
     168                      .dwattr $C$DW$25, DW_AT_TI_symbol_name("_uxTaskPriorityGet")
     169                      .dwattr $C$DW$25, DW_AT_type(*$C$DW$T$41)
     170                      .dwattr $C$DW$25, DW_AT_declaration
     171                      .dwattr $C$DW$25, DW_AT_external
     172              $C$DW$26        .dwtag  DW_TAG_formal_parameter
     173                      .dwattr $C$DW$26, DW_AT_type(*$C$DW$T$68)
     174                      .dwendtag $C$DW$25
     175              
     176              
     177              $C$DW$27        .dwtag  DW_TAG_subprogram, DW_AT_name("vTaskPrioritySet")
     178                      .dwattr $C$DW$27, DW_AT_TI_symbol_name("_vTaskPrioritySet")
     179                      .dwattr $C$DW$27, DW_AT_declaration
     180                      .dwattr $C$DW$27, DW_AT_external
     181              $C$DW$28        .dwtag  DW_TAG_formal_parameter
     182                      .dwattr $C$DW$28, DW_AT_type(*$C$DW$T$40)
     183              $C$DW$29        .dwtag  DW_TAG_formal_parameter
     184                      .dwattr $C$DW$29, DW_AT_type(*$C$DW$T$41)
     185                      .dwendtag $C$DW$27
     186              
     187              
     188              $C$DW$30        .dwtag  DW_TAG_subprogram, DW_AT_name("xTaskGetTickCount")
     189                      .dwattr $C$DW$30, DW_AT_TI_symbol_name("_xTaskGetTickCount")
     190                      .dwattr $C$DW$30, DW_AT_type(*$C$DW$T$76)
     191                      .dwattr $C$DW$30, DW_AT_declaration
     192                      .dwattr $C$DW$30, DW_AT_external
     193              
     194              $C$DW$31        .dwtag  DW_TAG_subprogram, DW_AT_name("xStreamBufferSend")
     195                      .dwattr $C$DW$31, DW_AT_TI_symbol_name("_xStreamBufferSend")
     196                      .dwattr $C$DW$31, DW_AT_type(*$C$DW$T$27)
     197                      .dwattr $C$DW$31, DW_AT_declaration
     198                      .dwattr $C$DW$31, DW_AT_external
     199              $C$DW$32        .dwtag  DW_TAG_formal_parameter
     200                      .dwattr $C$DW$32, DW_AT_type(*$C$DW$T$26)
     201              $C$DW$33        .dwtag  DW_TAG_formal_parameter
     202                      .dwattr $C$DW$33, DW_AT_type(*$C$DW$T$45)
     203              $C$DW$34        .dwtag  DW_TAG_formal_parameter
     204                      .dwattr $C$DW$34, DW_AT_type(*$C$DW$T$27)
     205              $C$DW$35        .dwtag  DW_TAG_formal_parameter
     206                      .dwattr $C$DW$35, DW_AT_type(*$C$DW$T$76)
     207                      .dwendtag $C$DW$31
     208              
TMS320C55x Assembler PC v4.4.1 Sat Sep 08 05:55:01 2018

Tools Copyright (c) 1996-2012 Texas Instruments Incorporated
MessageBufferDemo.asm                                                PAGE    5

     209              
     210              $C$DW$36        .dwtag  DW_TAG_subprogram, DW_AT_name("xStreamBufferSendFromISR")
     211                      .dwattr $C$DW$36, DW_AT_TI_symbol_name("_xStreamBufferSendFromISR")
     212                      .dwattr $C$DW$36, DW_AT_type(*$C$DW$T$27)
     213                      .dwattr $C$DW$36, DW_AT_declaration
     214                      .dwattr $C$DW$36, DW_AT_external
     215              $C$DW$37        .dwtag  DW_TAG_formal_parameter
     216                      .dwattr $C$DW$37, DW_AT_type(*$C$DW$T$26)
     217              $C$DW$38        .dwtag  DW_TAG_formal_parameter
     218                      .dwattr $C$DW$38, DW_AT_type(*$C$DW$T$45)
     219              $C$DW$39        .dwtag  DW_TAG_formal_parameter
     220                      .dwattr $C$DW$39, DW_AT_type(*$C$DW$T$27)
     221              $C$DW$40        .dwtag  DW_TAG_formal_parameter
     222                      .dwattr $C$DW$40, DW_AT_type(*$C$DW$T$64)
     223                      .dwendtag $C$DW$36
     224              
     225              
     226              $C$DW$41        .dwtag  DW_TAG_subprogram, DW_AT_name("xStreamBufferReceive")
     227                      .dwattr $C$DW$41, DW_AT_TI_symbol_name("_xStreamBufferReceive")
     228                      .dwattr $C$DW$41, DW_AT_type(*$C$DW$T$27)
     229                      .dwattr $C$DW$41, DW_AT_declaration
     230                      .dwattr $C$DW$41, DW_AT_external
     231              $C$DW$42        .dwtag  DW_TAG_formal_parameter
     232                      .dwattr $C$DW$42, DW_AT_type(*$C$DW$T$26)
     233              $C$DW$43        .dwtag  DW_TAG_formal_parameter
     234                      .dwattr $C$DW$43, DW_AT_type(*$C$DW$T$3)
     235              $C$DW$44        .dwtag  DW_TAG_formal_parameter
     236                      .dwattr $C$DW$44, DW_AT_type(*$C$DW$T$27)
     237              $C$DW$45        .dwtag  DW_TAG_formal_parameter
     238                      .dwattr $C$DW$45, DW_AT_type(*$C$DW$T$76)
     239                      .dwendtag $C$DW$41
     240              
     241              
     242              $C$DW$46        .dwtag  DW_TAG_subprogram, DW_AT_name("xStreamBufferReceiveFromISR")
     243                      .dwattr $C$DW$46, DW_AT_TI_symbol_name("_xStreamBufferReceiveFromISR")
     244                      .dwattr $C$DW$46, DW_AT_type(*$C$DW$T$27)
     245                      .dwattr $C$DW$46, DW_AT_declaration
     246                      .dwattr $C$DW$46, DW_AT_external
     247              $C$DW$47        .dwtag  DW_TAG_formal_parameter
     248                      .dwattr $C$DW$47, DW_AT_type(*$C$DW$T$26)
     249              $C$DW$48        .dwtag  DW_TAG_formal_parameter
     250                      .dwattr $C$DW$48, DW_AT_type(*$C$DW$T$3)
     251              $C$DW$49        .dwtag  DW_TAG_formal_parameter
     252                      .dwattr $C$DW$49, DW_AT_type(*$C$DW$T$27)
     253              $C$DW$50        .dwtag  DW_TAG_formal_parameter
     254                      .dwattr $C$DW$50, DW_AT_type(*$C$DW$T$64)
     255                      .dwendtag $C$DW$46
     256              
     257              
     258              $C$DW$51        .dwtag  DW_TAG_subprogram, DW_AT_name("vStreamBufferDelete")
     259                      .dwattr $C$DW$51, DW_AT_TI_symbol_name("_vStreamBufferDelete")
     260                      .dwattr $C$DW$51, DW_AT_declaration
     261                      .dwattr $C$DW$51, DW_AT_external
     262              $C$DW$52        .dwtag  DW_TAG_formal_parameter
     263                      .dwattr $C$DW$52, DW_AT_type(*$C$DW$T$26)
TMS320C55x Assembler PC v4.4.1 Sat Sep 08 05:55:01 2018

Tools Copyright (c) 1996-2012 Texas Instruments Incorporated
MessageBufferDemo.asm                                                PAGE    6

     264                      .dwendtag $C$DW$51
     265              
     266              
     267              $C$DW$53        .dwtag  DW_TAG_subprogram, DW_AT_name("xStreamBufferReset")
     268                      .dwattr $C$DW$53, DW_AT_TI_symbol_name("_xStreamBufferReset")
     269                      .dwattr $C$DW$53, DW_AT_type(*$C$DW$T$28)
     270                      .dwattr $C$DW$53, DW_AT_declaration
     271                      .dwattr $C$DW$53, DW_AT_external
     272              $C$DW$54        .dwtag  DW_TAG_formal_parameter
     273                      .dwattr $C$DW$54, DW_AT_type(*$C$DW$T$26)
     274                      .dwendtag $C$DW$53
     275              
     276              
     277              $C$DW$55        .dwtag  DW_TAG_subprogram, DW_AT_name("xStreamBufferSpacesAvailable")
     278                      .dwattr $C$DW$55, DW_AT_TI_symbol_name("_xStreamBufferSpacesAvailable")
     279                      .dwattr $C$DW$55, DW_AT_type(*$C$DW$T$27)
     280                      .dwattr $C$DW$55, DW_AT_declaration
     281                      .dwattr $C$DW$55, DW_AT_external
     282              $C$DW$56        .dwtag  DW_TAG_formal_parameter
     283                      .dwattr $C$DW$56, DW_AT_type(*$C$DW$T$26)
     284                      .dwendtag $C$DW$55
     285              
     286              
     287              $C$DW$57        .dwtag  DW_TAG_subprogram, DW_AT_name("xStreamBufferGenericCreate")
     288                      .dwattr $C$DW$57, DW_AT_TI_symbol_name("_xStreamBufferGenericCreate")
     289                      .dwattr $C$DW$57, DW_AT_type(*$C$DW$T$26)
     290                      .dwattr $C$DW$57, DW_AT_declaration
     291                      .dwattr $C$DW$57, DW_AT_external
     292              $C$DW$58        .dwtag  DW_TAG_formal_parameter
     293                      .dwattr $C$DW$58, DW_AT_type(*$C$DW$T$27)
     294              $C$DW$59        .dwtag  DW_TAG_formal_parameter
     295                      .dwattr $C$DW$59, DW_AT_type(*$C$DW$T$27)
     296              $C$DW$60        .dwtag  DW_TAG_formal_parameter
     297                      .dwattr $C$DW$60, DW_AT_type(*$C$DW$T$28)
     298                      .dwendtag $C$DW$57
     299              
     300              
     301              $C$DW$61        .dwtag  DW_TAG_subprogram, DW_AT_name("xStreamBufferNextMessageLengthBytes")
     302                      .dwattr $C$DW$61, DW_AT_TI_symbol_name("_xStreamBufferNextMessageLengthBytes")
     303                      .dwattr $C$DW$61, DW_AT_type(*$C$DW$T$27)
     304                      .dwattr $C$DW$61, DW_AT_declaration
     305                      .dwattr $C$DW$61, DW_AT_external
     306              $C$DW$62        .dwtag  DW_TAG_formal_parameter
     307                      .dwattr $C$DW$62, DW_AT_type(*$C$DW$T$26)
     308                      .dwendtag $C$DW$61
     309              
     310 000000               .bss    _ulEchoLoopCounters,4,0,2
     311              $C$DW$63        .dwtag  DW_TAG_variable, DW_AT_name("ulEchoLoopCounters")
     312                      .dwattr $C$DW$63, DW_AT_TI_symbol_name("_ulEchoLoopCounters")
     313                      .dwattr $C$DW$63, DW_AT_type(*$C$DW$T$97)
     314                      .dwattr $C$DW$63, DW_AT_location[DW_OP_addr _ulEchoLoopCounters]
     315 000004               .bss    _ulNonBlockingRxCounter,2,0,2
     316              $C$DW$64        .dwtag  DW_TAG_variable, DW_AT_name("ulNonBlockingRxCounter")
     317                      .dwattr $C$DW$64, DW_AT_TI_symbol_name("_ulNonBlockingRxCounter")
     318                      .dwattr $C$DW$64, DW_AT_type(*$C$DW$T$96)
TMS320C55x Assembler PC v4.4.1 Sat Sep 08 05:55:01 2018

Tools Copyright (c) 1996-2012 Texas Instruments Incorporated
MessageBufferDemo.asm                                                PAGE    7

     319                      .dwattr $C$DW$64, DW_AT_location[DW_OP_addr _ulNonBlockingRxCounter]
     320 000006               .bss    _pc55ByteString,2,0,2
     321              $C$DW$65        .dwtag  DW_TAG_variable, DW_AT_name("pc55ByteString")
     322                      .dwattr $C$DW$65, DW_AT_TI_symbol_name("_pc55ByteString")
     323                      .dwattr $C$DW$65, DW_AT_type(*$C$DW$T$56)
     324                      .dwattr $C$DW$65, DW_AT_location[DW_OP_addr _pc55ByteString]
     325 000008               .bss    _xBlockingStackSize,1,0,0
     326              $C$DW$66        .dwtag  DW_TAG_variable, DW_AT_name("xBlockingStackSize")
     327                      .dwattr $C$DW$66, DW_AT_TI_symbol_name("_xBlockingStackSize")
     328                      .dwattr $C$DW$66, DW_AT_type(*$C$DW$T$48)
     329                      .dwattr $C$DW$66, DW_AT_location[DW_OP_addr _xBlockingStackSize]
     330              $C$DW$67        .dwtag  DW_TAG_variable, DW_AT_name("usCriticalNesting")
     331                      .dwattr $C$DW$67, DW_AT_TI_symbol_name("_usCriticalNesting")
     332                      .dwattr $C$DW$67, DW_AT_type(*$C$DW$T$80)
     333                      .dwattr $C$DW$67, DW_AT_declaration
     334                      .dwattr $C$DW$67, DW_AT_external
     335 00000a               .bss    _ulLastEchoLoopCounters$1,4,0,2
     336 00000e               .bss    _ulLastNonBlockingRxCounter$2,2,0,2
     337              ;       F:\TI_CCS_7P4\ccsv7\tools\compiler\c5500_4.4.1\bin\acp55.exe -@f:\\AppData\\Local\\Temp\\0590012 
     338 000000               .sect   ".text"
     339                      .align 4
     340                      .global _vStartMessageBufferTasks
     341              
     342              $C$DW$68        .dwtag  DW_TAG_subprogram, DW_AT_name("vStartMessageBufferTasks")
     343                      .dwattr $C$DW$68, DW_AT_low_pc(_vStartMessageBufferTasks)
     344                      .dwattr $C$DW$68, DW_AT_high_pc(0x00)
     345                      .dwattr $C$DW$68, DW_AT_TI_symbol_name("_vStartMessageBufferTasks")
     346                      .dwattr $C$DW$68, DW_AT_external
     347                      .dwattr $C$DW$68, DW_AT_TI_begin_file("../FreeRTOS/Demo/Common/Minimal/MessageBufferDemo.c")
     348                      .dwattr $C$DW$68, DW_AT_TI_begin_line(0x80)
     349                      .dwattr $C$DW$68, DW_AT_TI_begin_column(0x06)
     350                      .dwattr $C$DW$68, DW_AT_TI_max_frame_size(0x06)
     351                      .dwpsn  file "../FreeRTOS/Demo/Common/Minimal/MessageBufferDemo.c",line 129,column 1,is_stmt,address 
     352              
     353                      .dwfde $C$DW$CIE, _vStartMessageBufferTasks
     354              $C$DW$69        .dwtag  DW_TAG_formal_parameter, DW_AT_name("xStackSize")
     355                      .dwattr $C$DW$69, DW_AT_TI_symbol_name("_xStackSize")
     356                      .dwattr $C$DW$69, DW_AT_type(*$C$DW$T$48)
     357                      .dwattr $C$DW$69, DW_AT_location[DW_OP_reg12]
     358              ;*******************************************************************************
     359              ;* FUNCTION NAME: vStartMessageBufferTasks                                     *
     360              ;*                                                                             *
     361              ;*   Function Uses Regs : AC0,AC0,T0,T1,AR0,XAR0,AR1,XAR1,AR2,XAR2,SP,CARRY,   *
     362              ;*                        M40,SATA,SATD,RDM,FRCT,SMUL                          *
     363              ;*   Stack Frame        : Compact (No Frame Pointer, w/ debug)                 *
     364              ;*   Total Frame Size   : 6 words                                              *
     365              ;*                        (2 return address/alignment)                         *
     366              ;*                        (4 local values)                                     *
     367              ;*   Min System Stack   : 1 word                                               *
     368              ;*******************************************************************************
     369 000000       _vStartMessageBufferTasks:
     370                      .dwcfi  cfa_offset, 1
     371                      .dwcfi  save_reg_to_mem, 91, -1
     372 000000 4EFB          AADD #-5, SP
     373                      .dwcfi  cfa_offset, 6
TMS320C55x Assembler PC v4.4.1 Sat Sep 08 05:55:01 2018

Tools Copyright (c) 1996-2012 Texas Instruments Incorporated
MessageBufferDemo.asm                                                PAGE    8

     374              $C$DW$70        .dwtag  DW_TAG_variable, DW_AT_name("xStackSize")
     375                      .dwattr $C$DW$70, DW_AT_TI_symbol_name("_xStackSize")
     376                      .dwattr $C$DW$70, DW_AT_type(*$C$DW$T$48)
     377                      .dwattr $C$DW$70, DW_AT_location[DW_OP_bregx 0x24 0]
     378              $C$DW$71        .dwtag  DW_TAG_variable, DW_AT_name("xMessageBuffer")
     379                      .dwattr $C$DW$71, DW_AT_TI_symbol_name("_xMessageBuffer")
     380                      .dwattr $C$DW$71, DW_AT_type(*$C$DW$T$21)
     381                      .dwattr $C$DW$71, DW_AT_location[DW_OP_bregx 0x24 2]
     382 000002 C400          MOV T0, *SP(#0) ; |129| 
     383                      .dwpsn  file "../FreeRTOS/Demo/Common/Minimal/MessageBufferDemo.c",line 132,column 2,is_stmt
     384 000004 2249          MOV T0, AR1
     385 000006 5091          SFTL AR1, #-1 ; |132| 
     386 000008 D600          ADD *SP(#0), AR1, AR1 ; |132| 
         00000a 99   
     387 00000b C931          MOV AR1, *(#_xBlockingStackSize) ; |132| 
         00000d 0000 
         00000f 08-  
     388                      .dwpsn  file "../FreeRTOS/Demo/Common/Minimal/MessageBufferDemo.c",line 137,column 2,is_stmt
     389              
     390 000014 2394          MOV AR1, T0 ; |137| 
     391 000010 7A00  ||      MOV #(_prvEchoServer >> 16) << #16, AC0 ; |137| 
         000012 000A%
     392              
     393 000016 EC31          AMOV #0, XAR2 ; |137| 
         000018 AE00 
         00001a 0000 
     394 00001c EC31          AMOV #$C$FSL2, XAR0 ; |137| 
         00001e 8E00 
         000020 0038+
     395 000022 7E00          OR #(_prvEchoServer & 0xffff), AC0, AC0 ; |137| 
         000024 0000%
     396 000026 EC31          AMOV #0, XAR1 ; |137| 
         000028 9E00 
         00002a 0000 
     397              $C$DW$72        .dwtag  DW_TAG_TI_branch
     398                      .dwattr $C$DW$72, DW_AT_low_pc(0x00)
     399                      .dwattr $C$DW$72, DW_AT_name("_xTaskCreate")
     400                      .dwattr $C$DW$72, DW_AT_TI_call
     401              
     402 00002c 6C00          CALL #_xTaskCreate ; |137| 
         00002e 0000!
     403 000030 3D15  ||      MOV #1, T1
     404              
     405                                                      ; call occurs [#_xTaskCreate] ; |137| 
     406                      .dwpsn  file "../FreeRTOS/Demo/Common/Minimal/MessageBufferDemo.c",line 138,column 2,is_stmt
     407 000032 A431          MOV *(#_xBlockingStackSize), T0 ; |138| 
         000034 0000 
         000036 08-  
     408 000037 EC31          AMOV #0, XAR2 ; |138| 
         000039 AE00 
         00003b 0000 
     409 00003d EC31          AMOV #0, XAR1 ; |138| 
         00003f 9E00 
         000041 0000 
     410 000043 EC31          AMOV #$C$FSL3, XAR0 ; |138| 
TMS320C55x Assembler PC v4.4.1 Sat Sep 08 05:55:01 2018

Tools Copyright (c) 1996-2012 Texas Instruments Incorporated
MessageBufferDemo.asm                                                PAGE    9

         000045 8E00 
         000047 0044+
     411 000049 7A00          MOV #(_prvEchoServer >> 16) << #16, AC0 ; |138| 
         00004b 000A%
     412 00004d 7E00          OR #(_prvEchoServer & 0xffff), AC0, AC0 ; |138| 
         00004f 0000%
     413              $C$DW$73        .dwtag  DW_TAG_TI_branch
     414                      .dwattr $C$DW$73, DW_AT_low_pc(0x00)
     415                      .dwattr $C$DW$73, DW_AT_name("_xTaskCreate")
     416                      .dwattr $C$DW$73, DW_AT_TI_call
     417              
     418 000051 6C00          CALL #_xTaskCreate ; |138| 
         000053 0000!
     419 000055 3D05  ||      MOV #0, T1
     420              
     421                                                      ; call occurs [#_xTaskCreate] ; |138| 
     422                      .dwpsn  file "../FreeRTOS/Demo/Common/Minimal/MessageBufferDemo.c",line 143,column 2,is_stmt
     423              
     424 000057 7600          MOV #50, T0 ; |143| 
         000059 3248 
     425 00005b 3D05  ||      MOV #0, T1
     426              
     427              $C$DW$74        .dwtag  DW_TAG_TI_branch
     428                      .dwattr $C$DW$74, DW_AT_low_pc(0x00)
     429                      .dwattr $C$DW$74, DW_AT_name("_xStreamBufferGenericCreate")
     430                      .dwattr $C$DW$74, DW_AT_TI_call
     431              
     432 00005d 6C00          CALL #_xStreamBufferGenericCreate ; |143| 
         00005f 0000!
     433 000061 3D18  ||      MOV #1, AR0
     434              
     435                                                      ; call occurs [#_xStreamBufferGenericCreate] ; |143| 
     436 000063 EB04          MOV XAR0, dbl(*SP(#2))
         000065 85   
     437                      .dwpsn  file "../FreeRTOS/Demo/Common/Minimal/MessageBufferDemo.c",line 144,column 2,is_stmt
     438 000066 A400          MOV *SP(#0), T0 ; |144| 
     439 000068 EC31          AMOV #0, XAR2 ; |144| 
         00006a AE00 
         00006c 0000 
     440 00006e EC31          AMOV #$C$FSL4, XAR0 ; |144| 
         000070 8E00 
         000072 0050+
     441 000074 ED04          MOV dbl(*SP(#2)), XAR1
         000076 9F   
     442 000077 7A00          MOV #(_prvNonBlockingReceiverTask >> 16) << #16, AC0 ; |144| 
         000079 000A%
     443 00007b 7E00          OR #(_prvNonBlockingReceiverTask & 0xffff), AC0, AC0 ; |144| 
         00007d 0000%
     444              $C$DW$75        .dwtag  DW_TAG_TI_branch
     445                      .dwattr $C$DW$75, DW_AT_low_pc(0x00)
     446                      .dwattr $C$DW$75, DW_AT_name("_xTaskCreate")
     447                      .dwattr $C$DW$75, DW_AT_TI_call
     448              
     449 00007f 6C00          CALL #_xTaskCreate ; |144| 
         000081 0000!
TMS320C55x Assembler PC v4.4.1 Sat Sep 08 05:55:01 2018

Tools Copyright (c) 1996-2012 Texas Instruments Incorporated
MessageBufferDemo.asm                                                PAGE   10

     450 000083 3D05  ||      MOV #0, T1
     451              
     452                                                      ; call occurs [#_xTaskCreate] ; |144| 
     453                      .dwpsn  file "../FreeRTOS/Demo/Common/Minimal/MessageBufferDemo.c",line 145,column 2,is_stmt
     454 000085 EC31          AMOV #0, XAR2 ; |145| 
         000087 AE00 
         000089 0000 
     455 00008b A400          MOV *SP(#0), T0 ; |145| 
     456 00008d ED04          MOV dbl(*SP(#2)), XAR1
         00008f 9F   
     457 000090 EC31          AMOV #$C$FSL5, XAR0 ; |145| 
         000092 8E00 
         000094 005A+
     458 000096 7A00          MOV #(_prvNonBlockingSenderTask >> 16) << #16, AC0 ; |145| 
         000098 000A%
     459              
     460 00009a 7E00          OR #(_prvNonBlockingSenderTask & 0xffff), AC0, AC0 ; |145| 
         00009c 0000%
     461 00009e 3D05  ||      MOV #0, T1
     462              
     463              $C$DW$76        .dwtag  DW_TAG_TI_branch
     464                      .dwattr $C$DW$76, DW_AT_low_pc(0x00)
     465                      .dwattr $C$DW$76, DW_AT_name("_xTaskCreate")
     466                      .dwattr $C$DW$76, DW_AT_TI_call
     467 0000a0 6C00          CALL #_xTaskCreate ; |145| 
         0000a2 0000!
     468                                                      ; call occurs [#_xTaskCreate] ; |145| 
     469                      .dwpsn  file "../FreeRTOS/Demo/Common/Minimal/MessageBufferDemo.c",line 156,column 1,is_stmt
     470 0000a4 4E05          AADD #5, SP
     471                      .dwcfi  cfa_offset, 1
     472              $C$DW$77        .dwtag  DW_TAG_TI_branch
     473                      .dwattr $C$DW$77, DW_AT_low_pc(0x00)
     474                      .dwattr $C$DW$77, DW_AT_TI_return
     475 0000a6 4804          RET
     476                                                      ; return occurs
     477                      .dwattr $C$DW$68, DW_AT_TI_end_file("../FreeRTOS/Demo/Common/Minimal/MessageBufferDemo.c")
     478                      .dwattr $C$DW$68, DW_AT_TI_end_line(0x9c)
     479                      .dwattr $C$DW$68, DW_AT_TI_end_column(0x01)
     480                      .dwendentry
     481                      .dwendtag $C$DW$68
     482              
     483 0000a8               .sect   ".text"
     484                      .align 4
     485              
     486              $C$DW$78        .dwtag  DW_TAG_subprogram, DW_AT_name("prvSingleTaskTests")
     487                      .dwattr $C$DW$78, DW_AT_low_pc(_prvSingleTaskTests)
     488                      .dwattr $C$DW$78, DW_AT_high_pc(0x00)
     489                      .dwattr $C$DW$78, DW_AT_TI_symbol_name("_prvSingleTaskTests")
     490                      .dwattr $C$DW$78, DW_AT_TI_begin_file("../FreeRTOS/Demo/Common/Minimal/MessageBufferDemo.c")
     491                      .dwattr $C$DW$78, DW_AT_TI_begin_line(0x9f)
     492                      .dwattr $C$DW$78, DW_AT_TI_begin_column(0x0d)
     493                      .dwattr $C$DW$78, DW_AT_TI_max_frame_size(0x16)
     494                      .dwpsn  file "../FreeRTOS/Demo/Common/Minimal/MessageBufferDemo.c",line 160,column 1,is_stmt,address 
     495              
     496                      .dwfde $C$DW$CIE, _prvSingleTaskTests
TMS320C55x Assembler PC v4.4.1 Sat Sep 08 05:55:01 2018

Tools Copyright (c) 1996-2012 Texas Instruments Incorporated
MessageBufferDemo.asm                                                PAGE   11

     497              $C$DW$79        .dwtag  DW_TAG_formal_parameter, DW_AT_name("xMessageBuffer")
     498                      .dwattr $C$DW$79, DW_AT_TI_symbol_name("_xMessageBuffer")
     499                      .dwattr $C$DW$79, DW_AT_type(*$C$DW$T$21)
     500                      .dwattr $C$DW$79, DW_AT_location[DW_OP_reg17]
     501              ;*******************************************************************************
     502              ;* FUNCTION NAME: prvSingleTaskTests                                           *
     503              ;*                                                                             *
     504              ;*   Function Uses Regs : AC0,T0,T1,AR0,XAR0,AR1,XAR1,AR2,XAR2,AR3,XAR3,SP,    *
     505              ;*                        CARRY,TC1,M40,SATA,SATD,RDM,FRCT,SMUL                *
     506              ;*   Stack Frame        : Compact (No Frame Pointer, w/ debug)                 *
     507              ;*   Total Frame Size   : 22 words                                             *
     508              ;*                        (1 return address/alignment)                         *
     509              ;*                        (21 local values)                                    *
     510              ;*   Min System Stack   : 1 word                                               *
     511              ;*******************************************************************************
     512 0000a8       _prvSingleTaskTests:
     513                      .dwcfi  cfa_offset, 1
     514                      .dwcfi  save_reg_to_mem, 91, -1
     515 0000a8 4EEB          AADD #-21, SP
     516                      .dwcfi  cfa_offset, 22
     517              $C$DW$80        .dwtag  DW_TAG_variable, DW_AT_name("xMessageBuffer")
     518                      .dwattr $C$DW$80, DW_AT_TI_symbol_name("_xMessageBuffer")
     519                      .dwattr $C$DW$80, DW_AT_type(*$C$DW$T$21)
     520                      .dwattr $C$DW$80, DW_AT_location[DW_OP_bregx 0x24 0]
     521              $C$DW$81        .dwtag  DW_TAG_variable, DW_AT_name("xReturned")
     522                      .dwattr $C$DW$81, DW_AT_TI_symbol_name("_xReturned")
     523                      .dwattr $C$DW$81, DW_AT_type(*$C$DW$T$27)
     524                      .dwattr $C$DW$81, DW_AT_location[DW_OP_bregx 0x24 2]
     525              $C$DW$82        .dwtag  DW_TAG_variable, DW_AT_name("xItem")
     526                      .dwattr $C$DW$82, DW_AT_TI_symbol_name("_xItem")
     527                      .dwattr $C$DW$82, DW_AT_type(*$C$DW$T$27)
     528                      .dwattr $C$DW$82, DW_AT_location[DW_OP_bregx 0x24 3]
     529              $C$DW$83        .dwtag  DW_TAG_variable, DW_AT_name("xExpectedSpace")
     530                      .dwattr $C$DW$83, DW_AT_TI_symbol_name("_xExpectedSpace")
     531                      .dwattr $C$DW$83, DW_AT_type(*$C$DW$T$27)
     532                      .dwattr $C$DW$83, DW_AT_location[DW_OP_bregx 0x24 4]
     533              $C$DW$84        .dwtag  DW_TAG_variable, DW_AT_name("xNextLength")
     534                      .dwattr $C$DW$84, DW_AT_TI_symbol_name("_xNextLength")
     535                      .dwattr $C$DW$84, DW_AT_type(*$C$DW$T$27)
     536                      .dwattr $C$DW$84, DW_AT_location[DW_OP_bregx 0x24 5]
     537              $C$DW$85        .dwtag  DW_TAG_variable, DW_AT_name("xMax6ByteMessages")
     538                      .dwattr $C$DW$85, DW_AT_TI_symbol_name("_xMax6ByteMessages")
     539                      .dwattr $C$DW$85, DW_AT_type(*$C$DW$T$93)
     540                      .dwattr $C$DW$85, DW_AT_location[DW_OP_bregx 0x24 6]
     541              $C$DW$86        .dwtag  DW_TAG_variable, DW_AT_name("x6ByteLength")
     542                      .dwattr $C$DW$86, DW_AT_TI_symbol_name("_x6ByteLength")
     543                      .dwattr $C$DW$86, DW_AT_type(*$C$DW$T$93)
     544                      .dwattr $C$DW$86, DW_AT_location[DW_OP_bregx 0x24 7]
     545              $C$DW$87        .dwtag  DW_TAG_variable, DW_AT_name("x17ByteLength")
     546                      .dwattr $C$DW$87, DW_AT_TI_symbol_name("_x17ByteLength")
     547                      .dwattr $C$DW$87, DW_AT_type(*$C$DW$T$93)
     548                      .dwattr $C$DW$87, DW_AT_location[DW_OP_bregx 0x24 8]
     549              $C$DW$88        .dwtag  DW_TAG_variable, DW_AT_name("pucFullBuffer")
     550                      .dwattr $C$DW$88, DW_AT_TI_symbol_name("_pucFullBuffer")
     551                      .dwattr $C$DW$88, DW_AT_type(*$C$DW$T$53)
TMS320C55x Assembler PC v4.4.1 Sat Sep 08 05:55:01 2018

Tools Copyright (c) 1996-2012 Texas Instruments Incorporated
MessageBufferDemo.asm                                                PAGE   12

     552                      .dwattr $C$DW$88, DW_AT_location[DW_OP_bregx 0x24 10]
     553              $C$DW$89        .dwtag  DW_TAG_variable, DW_AT_name("pucData")
     554                      .dwattr $C$DW$89, DW_AT_TI_symbol_name("_pucData")
     555                      .dwattr $C$DW$89, DW_AT_type(*$C$DW$T$53)
     556                      .dwattr $C$DW$89, DW_AT_location[DW_OP_bregx 0x24 12]
     557              $C$DW$90        .dwtag  DW_TAG_variable, DW_AT_name("pucReadData")
     558                      .dwattr $C$DW$90, DW_AT_TI_symbol_name("_pucReadData")
     559                      .dwattr $C$DW$90, DW_AT_type(*$C$DW$T$53)
     560                      .dwattr $C$DW$90, DW_AT_location[DW_OP_bregx 0x24 14]
     561              $C$DW$91        .dwtag  DW_TAG_variable, DW_AT_name("xTimeBeforeCall")
     562                      .dwattr $C$DW$91, DW_AT_TI_symbol_name("_xTimeBeforeCall")
     563                      .dwattr $C$DW$91, DW_AT_type(*$C$DW$T$76)
     564                      .dwattr $C$DW$91, DW_AT_location[DW_OP_bregx 0x24 16]
     565              $C$DW$92        .dwtag  DW_TAG_variable, DW_AT_name("xTimeAfterCall")
     566                      .dwattr $C$DW$92, DW_AT_TI_symbol_name("_xTimeAfterCall")
     567                      .dwattr $C$DW$92, DW_AT_type(*$C$DW$T$76)
     568                      .dwattr $C$DW$92, DW_AT_location[DW_OP_bregx 0x24 17]
     569              $C$DW$93        .dwtag  DW_TAG_variable, DW_AT_name("xBlockTime")
     570                      .dwattr $C$DW$93, DW_AT_TI_symbol_name("_xBlockTime")
     571                      .dwattr $C$DW$93, DW_AT_type(*$C$DW$T$77)
     572                      .dwattr $C$DW$93, DW_AT_location[DW_OP_bregx 0x24 18]
     573              $C$DW$94        .dwtag  DW_TAG_variable, DW_AT_name("xAllowableMargin")
     574                      .dwattr $C$DW$94, DW_AT_TI_symbol_name("_xAllowableMargin")
     575                      .dwattr $C$DW$94, DW_AT_type(*$C$DW$T$77)
     576                      .dwattr $C$DW$94, DW_AT_location[DW_OP_bregx 0x24 19]
     577              $C$DW$95        .dwtag  DW_TAG_variable, DW_AT_name("uxOriginalPriority")
     578                      .dwattr $C$DW$95, DW_AT_TI_symbol_name("_uxOriginalPriority")
     579                      .dwattr $C$DW$95, DW_AT_type(*$C$DW$T$41)
     580                      .dwattr $C$DW$95, DW_AT_location[DW_OP_bregx 0x24 20]
     581 0000aa EB00          MOV XAR0, dbl(*SP(#0))
         0000ac 85   
     582                      .dwpsn  file "../FreeRTOS/Demo/Common/Minimal/MessageBufferDemo.c",line 162,column 14,is_stmt
     583 0000ad E60C          MOV #7, *SP(#6) ; |162| 
         0000af 07   
     584                      .dwpsn  file "../FreeRTOS/Demo/Common/Minimal/MessageBufferDemo.c",line 163,column 14,is_stmt
     585 0000b0 E60E          MOV #6, *SP(#7) ; |163| 
         0000b2 06   
     586                      .dwpsn  file "../FreeRTOS/Demo/Common/Minimal/MessageBufferDemo.c",line 163,column 32,is_stmt
     587 0000b3 E610          MOV #17, *SP(#8) ; |163| 
         0000b5 11   
     588                      .dwpsn  file "../FreeRTOS/Demo/Common/Minimal/MessageBufferDemo.c",line 166,column 18,is_stmt
     589 0000b6 E624          MOV #25, *SP(#18) ; |166| 
         0000b8 19   
     590                      .dwpsn  file "../FreeRTOS/Demo/Common/Minimal/MessageBufferDemo.c",line 166,column 52,is_stmt
     591 0000b9 E626          MOV #3, *SP(#19) ; |166| 
         0000bb 03   
     592                      .dwpsn  file "../FreeRTOS/Demo/Common/Minimal/MessageBufferDemo.c",line 170,column 2,is_stmt
     593                      .dwpsn  file "../FreeRTOS/Demo/Common/Minimal/MessageBufferDemo.c",line 175,column 2,is_stmt
     594 0000bc 7600          MOV #50, T0 ; |175| 
         0000be 3248 
     595              $C$DW$96        .dwtag  DW_TAG_TI_branch
     596                      .dwattr $C$DW$96, DW_AT_low_pc(0x00)
     597                      .dwattr $C$DW$96, DW_AT_name("_pvPortMalloc")
     598                      .dwattr $C$DW$96, DW_AT_TI_call
     599 0000c0 6C00          CALL #_pvPortMalloc ; |175| 
TMS320C55x Assembler PC v4.4.1 Sat Sep 08 05:55:01 2018

Tools Copyright (c) 1996-2012 Texas Instruments Incorporated
MessageBufferDemo.asm                                                PAGE   13

         0000c2 0000!
     600                                                      ; call occurs [#_pvPortMalloc] ; |175| 
     601 0000c4 EB14          MOV XAR0, dbl(*SP(#10))
         0000c6 85   
     602                      .dwpsn  file "../FreeRTOS/Demo/Common/Minimal/MessageBufferDemo.c",line 178,column 2,is_stmt
     603 0000c7 ED14          MOV dbl(*SP(#10)), XAR3
         0000c9 BF   
     604 0000ca EB18          MOV XAR3, dbl(*SP(#12))
         0000cc B5   
     605                      .dwpsn  file "../FreeRTOS/Demo/Common/Minimal/MessageBufferDemo.c",line 179,column 2,is_stmt
     606 0000cd A910          MOV *SP(#8), AR1 ; |179| 
     607              
     608 0000cf 8E1C          MOV XAR3, dbl(*SP(#14))
         0000d1 BB10 
         0000d3 B590 
     609              ||      AADD AR1, AR3 ; |179| 
     610              
     611                      .dwpsn  file "../FreeRTOS/Demo/Common/Minimal/MessageBufferDemo.c",line 183,column 2,is_stmt
     612 0000d5 ED00          MOV dbl(*SP(#0)), XAR0
         0000d7 8F   
     613              $C$DW$97        .dwtag  DW_TAG_TI_branch
     614                      .dwattr $C$DW$97, DW_AT_low_pc(0x00)
     615                      .dwattr $C$DW$97, DW_AT_name("_xStreamBufferSpacesAvailable")
     616                      .dwattr $C$DW$97, DW_AT_TI_call
     617 0000d8 6C00          CALL #_xStreamBufferSpacesAvailable ; |183| 
         0000da 0000!
     618                                                      ; call occurs [#_xStreamBufferSpacesAvailable] ; |183| 
     619 0000dc C408          MOV T0, *SP(#4) ; |183| 
     620                      .dwpsn  file "../FreeRTOS/Demo/Common/Minimal/MessageBufferDemo.c",line 186,column 2,is_stmt
     621 0000de ED00          MOV dbl(*SP(#0)), XAR0
         0000e0 8F   
     622              $C$DW$98        .dwtag  DW_TAG_TI_branch
     623                      .dwattr $C$DW$98, DW_AT_low_pc(0x00)
     624                      .dwattr $C$DW$98, DW_AT_name("_xStreamBufferNextMessageLengthBytes")
     625                      .dwattr $C$DW$98, DW_AT_TI_call
     626 0000e1 6C00          CALL #_xStreamBufferNextMessageLengthBytes ; |186| 
         0000e3 0000!
     627                                                      ; call occurs [#_xStreamBufferNextMessageLengthBytes] ; |186| 
     628 0000e5 C40A          MOV T0, *SP(#5) ; |186| 
     629                      .dwpsn  file "../FreeRTOS/Demo/Common/Minimal/MessageBufferDemo.c",line 189,column 2,is_stmt
     630                      .dwpsn  file "../FreeRTOS/Demo/Common/Minimal/MessageBufferDemo.c",line 190,column 2,is_stmt
     631                      .dwpsn  file "../FreeRTOS/Demo/Common/Minimal/MessageBufferDemo.c",line 198,column 7,is_stmt
     632 0000e7 E606          MOV #0, *SP(#3) ; |198| 
         0000e9 00   
     633                      .dwpsn  file "../FreeRTOS/Demo/Common/Minimal/MessageBufferDemo.c",line 198,column 18,is_stmt
     634 0000ea A90C          MOV *SP(#6), AR1 ; |198| 
     635 0000ec AA06          MOV *SP(#3), AR2 ; |198| 
     636 0000ee 12A8          CMPU AR2 >= AR1, TC1 ; |198| 
         0000f0 94   
     637 0000f1 0464          BCC $C$L3,TC1 ; |198| 
         0000f3 72   
     638                                                      ; branchcc occurs ; |198| 
     639 0000f4       $C$L1:    
     640 0000f4       $C$DW$L$_prvSingleTaskTests$2$B:
     641                      .dwpsn  file "../FreeRTOS/Demo/Common/Minimal/MessageBufferDemo.c",line 209,column 3,is_stmt
TMS320C55x Assembler PC v4.4.1 Sat Sep 08 05:55:01 2018

Tools Copyright (c) 1996-2012 Texas Instruments Incorporated
MessageBufferDemo.asm                                                PAGE   14

     642 0000f4 A906          MOV *SP(#3), AR1 ; |209| 
     643 0000f6 ED18          MOV dbl(*SP(#12)), XAR0
         0000f8 8F   
     644 0000f9 A50E          MOV *SP(#7), T1 ; |209| 
     645 0000fb 7B00          ADD #48, AR1, T0 ; |209| 
         0000fd 3049 
     646              $C$DW$99        .dwtag  DW_TAG_TI_branch
     647                      .dwattr $C$DW$99, DW_AT_low_pc(0x00)
     648                      .dwattr $C$DW$99, DW_AT_name("_memset")
     649                      .dwattr $C$DW$99, DW_AT_TI_call
     650 0000ff 6C00          CALL #_memset ; |209| 
         000101 0000!
     651                                                      ; call occurs [#_memset] ; |209| 
     652                      .dwpsn  file "../FreeRTOS/Demo/Common/Minimal/MessageBufferDemo.c",line 210,column 3,is_stmt
     653 000103 20     nop
     654 000104 46B3   bset INTM
     655 000106 F731          ADD #1, *(#_usCriticalNesting) ; |210| 
         000108 0001 
         00010a 0000 
         00010c 00!  
     656                      .dwpsn  file "../FreeRTOS/Demo/Common/Minimal/MessageBufferDemo.c",line 212,column 4,is_stmt
     657 00010d EC31          AMOV #0, XAR2 ; |212| 
         00010f AE00 
         000111 0000 
     658 000113 ED18          MOV dbl(*SP(#12)), XAR1
         000115 9F   
     659 000116 ED00          MOV dbl(*SP(#0)), XAR0
         000118 8F   
     660 000119 A40E          MOV *SP(#7), T0 ; |212| 
     661              $C$DW$100       .dwtag  DW_TAG_TI_branch
     662                      .dwattr $C$DW$100, DW_AT_low_pc(0x00)
     663                      .dwattr $C$DW$100, DW_AT_name("_xStreamBufferSendFromISR")
     664                      .dwattr $C$DW$100, DW_AT_TI_call
     665 00011b 6C00          CALL #_xStreamBufferSendFromISR ; |212| 
         00011d 0000!
     666                                                      ; call occurs [#_xStreamBufferSendFromISR] ; |212| 
     667 00011f C404          MOV T0, *SP(#2) ; |212| 
     668                      .dwpsn  file "../FreeRTOS/Demo/Common/Minimal/MessageBufferDemo.c",line 214,column 3,is_stmt
     669 000121 A931          MOV *(#_usCriticalNesting), AR1 ; |214| 
         000123 0000 
         000125 00!  
     670 000126 0409          BCC $C$L2,AR1 == #0 ; |214| 
         000128 14   
     671                                                      ; branchcc occurs ; |214| 
     672 000129       $C$DW$L$_prvSingleTaskTests$2$E:
     673 000129       $C$DW$L$_prvSingleTaskTests$3$B:
     674 000129 F731          SUB #1, *(#_usCriticalNesting) ; |214| 
         00012b FFFF 
         00012d 0000 
         00012f 00!  
     675 000130 20            NOP
     676 000131 20            NOP
     677 000132 20            NOP
     678 000133 A931          MOV *(#_usCriticalNesting), AR1 ; |214| 
         000135 0000 
TMS320C55x Assembler PC v4.4.1 Sat Sep 08 05:55:01 2018

Tools Copyright (c) 1996-2012 Texas Instruments Incorporated
MessageBufferDemo.asm                                                PAGE   15

         000137 00!  
     679 000138 6199          BCC $C$L2,AR1 != #0 ; |214| 
     680                                                      ; branchcc occurs ; |214| 
     681 00013a       $C$DW$L$_prvSingleTaskTests$3$E:
     682 00013a       $C$DW$L$_prvSingleTaskTests$4$B:
     683 00013a 20     nop
     684 00013b 46B2   bclr INTM
     685 00013d       $C$DW$L$_prvSingleTaskTests$4$E:
     686 00013d       $C$L2:    
     687 00013d       $C$DW$L$_prvSingleTaskTests$5$B:
     688                      .dwpsn  file "../FreeRTOS/Demo/Common/Minimal/MessageBufferDemo.c",line 216,column 3,is_stmt
     689                      .dwpsn  file "../FreeRTOS/Demo/Common/Minimal/MessageBufferDemo.c",line 221,column 3,is_stmt
     690 00013d A008          MOV *SP(#4), AC0 ; |221| 
     691 00013f DF0E          SUB uns(*SP(#7)), AC0, AC0 ; |221| 
         000141 0F   
     692 000142 4210          SUB #1, AC0 ; |221| 
     693 000144 C008          MOV AC0, *SP(#4) ; |221| 
     694                      .dwpsn  file "../FreeRTOS/Demo/Common/Minimal/MessageBufferDemo.c",line 222,column 3,is_stmt
     695 000146 ED00          MOV dbl(*SP(#0)), XAR0
         000148 8F   
     696              $C$DW$101       .dwtag  DW_TAG_TI_branch
     697                      .dwattr $C$DW$101, DW_AT_low_pc(0x00)
     698                      .dwattr $C$DW$101, DW_AT_name("_xStreamBufferSpacesAvailable")
     699                      .dwattr $C$DW$101, DW_AT_TI_call
     700 000149 6C00          CALL #_xStreamBufferSpacesAvailable ; |222| 
         00014b 0000!
     701                                                      ; call occurs [#_xStreamBufferSpacesAvailable] ; |222| 
     702 00014d C404          MOV T0, *SP(#2) ; |222| 
     703                      .dwpsn  file "../FreeRTOS/Demo/Common/Minimal/MessageBufferDemo.c",line 224,column 3,is_stmt
     704                      .dwpsn  file "../FreeRTOS/Demo/Common/Minimal/MessageBufferDemo.c",line 227,column 3,is_stmt
     705 00014f ED00          MOV dbl(*SP(#0)), XAR0
         000151 8F   
     706              $C$DW$102       .dwtag  DW_TAG_TI_branch
     707                      .dwattr $C$DW$102, DW_AT_low_pc(0x00)
     708                      .dwattr $C$DW$102, DW_AT_name("_xStreamBufferNextMessageLengthBytes")
     709                      .dwattr $C$DW$102, DW_AT_TI_call
     710 000152 6C00          CALL #_xStreamBufferNextMessageLengthBytes ; |227| 
         000154 0000!
     711                                                      ; call occurs [#_xStreamBufferNextMessageLengthBytes] ; |227| 
     712 000156 C40A          MOV T0, *SP(#5) ; |227| 
     713                      .dwpsn  file "../FreeRTOS/Demo/Common/Minimal/MessageBufferDemo.c",line 229,column 3,is_stmt
     714                      .dwpsn  file "../FreeRTOS/Demo/Common/Minimal/MessageBufferDemo.c",line 198,column 45,is_stmt
     715 000158 F706          ADD #1, *SP(#3) ; |198| 
         00015a 0001 
     716                      .dwpsn  file "../FreeRTOS/Demo/Common/Minimal/MessageBufferDemo.c",line 198,column 18,is_stmt
     717 00015c A90C          MOV *SP(#6), AR1 ; |198| 
     718 00015e AA06          MOV *SP(#3), AR2 ; |198| 
     719 000160 12A4          CMPU AR2 < AR1, TC1 ; |198| 
         000162 94   
     720 000163 0464          BCC $C$L1,TC1 ; |198| 
         000165 8E   
     721                                                      ; branchcc occurs ; |198| 
     722 000166       $C$DW$L$_prvSingleTaskTests$5$E:
     723 000166       $C$L3:    
     724                      .dwpsn  file "../FreeRTOS/Demo/Common/Minimal/MessageBufferDemo.c",line 235,column 2,is_stmt
TMS320C55x Assembler PC v4.4.1 Sat Sep 08 05:55:01 2018

Tools Copyright (c) 1996-2012 Texas Instruments Incorporated
MessageBufferDemo.asm                                                PAGE   16

     725 000166 ED00          MOV dbl(*SP(#0)), XAR0
         000168 8F   
     726 000169 ED18          MOV dbl(*SP(#12)), XAR1
         00016b 9F   
     727 00016c 3C14          MOV #1, T0
     728              $C$DW$103       .dwtag  DW_TAG_TI_branch
     729                      .dwattr $C$DW$103, DW_AT_low_pc(0x00)
     730                      .dwattr $C$DW$103, DW_AT_name("_xStreamBufferSend")
     731                      .dwattr $C$DW$103, DW_AT_TI_call
     732              
     733 00016e 6C00          CALL #_xStreamBufferSend ; |235| 
         000170 0000!
     734 000172 3D05  ||      MOV #0, T1
     735              
     736                                                      ; call occurs [#_xStreamBufferSend] ; |235| 
     737 000174 C404          MOV T0, *SP(#2) ; |235| 
     738                      .dwpsn  file "../FreeRTOS/Demo/Common/Minimal/MessageBufferDemo.c",line 237,column 2,is_stmt
     739                      .dwpsn  file "../FreeRTOS/Demo/Common/Minimal/MessageBufferDemo.c",line 242,column 2,is_stmt
     740 000176 EC31          AMOV #0, XAR0 ; |242| 
         000178 8E00 
         00017a 0000 
     741              $C$DW$104       .dwtag  DW_TAG_TI_branch
     742                      .dwattr $C$DW$104, DW_AT_low_pc(0x00)
     743                      .dwattr $C$DW$104, DW_AT_name("_uxTaskPriorityGet")
     744                      .dwattr $C$DW$104, DW_AT_TI_call
     745 00017c 6C00          CALL #_uxTaskPriorityGet ; |242| 
         00017e 0000!
     746                                                      ; call occurs [#_uxTaskPriorityGet] ; |242| 
     747 000180 C428          MOV T0, *SP(#20) ; |242| 
     748                      .dwpsn  file "../FreeRTOS/Demo/Common/Minimal/MessageBufferDemo.c",line 243,column 2,is_stmt
     749 000182 EC31          AMOV #0, XAR0 ; |243| 
         000184 8E00 
         000186 0000 
     750              $C$DW$105       .dwtag  DW_TAG_TI_branch
     751                      .dwattr $C$DW$105, DW_AT_low_pc(0x00)
     752                      .dwattr $C$DW$105, DW_AT_name("_vTaskPrioritySet")
     753                      .dwattr $C$DW$105, DW_AT_TI_call
     754              
     755 000188 6C00          CALL #_vTaskPrioritySet ; |243| 
         00018a 0000!
     756 00018c 3D34  ||      MOV #3, T0
     757              
     758                                                      ; call occurs [#_vTaskPrioritySet] ; |243| 
     759                      .dwpsn  file "../FreeRTOS/Demo/Common/Minimal/MessageBufferDemo.c",line 244,column 2,is_stmt
     760              $C$DW$106       .dwtag  DW_TAG_TI_branch
     761                      .dwattr $C$DW$106, DW_AT_low_pc(0x00)
     762                      .dwattr $C$DW$106, DW_AT_name("_xTaskGetTickCount")
     763                      .dwattr $C$DW$106, DW_AT_TI_call
     764 00018e 6C00          CALL #_xTaskGetTickCount ; |244| 
         000190 0000!
     765                                                      ; call occurs [#_xTaskGetTickCount] ; |244| 
     766 000192 C420          MOV T0, *SP(#16) ; |244| 
     767                      .dwpsn  file "../FreeRTOS/Demo/Common/Minimal/MessageBufferDemo.c",line 245,column 2,is_stmt
     768 000194 ED00          MOV dbl(*SP(#0)), XAR0
         000196 8F   
TMS320C55x Assembler PC v4.4.1 Sat Sep 08 05:55:01 2018

Tools Copyright (c) 1996-2012 Texas Instruments Incorporated
MessageBufferDemo.asm                                                PAGE   17

     769 000197 A524          MOV *SP(#18), T1 ; |245| 
     770 000199 ED18          MOV dbl(*SP(#12)), XAR1
         00019b 9F   
     771              $C$DW$107       .dwtag  DW_TAG_TI_branch
     772                      .dwattr $C$DW$107, DW_AT_low_pc(0x00)
     773                      .dwattr $C$DW$107, DW_AT_name("_xStreamBufferSend")
     774                      .dwattr $C$DW$107, DW_AT_TI_call
     775              
     776 00019c 6C00          CALL #_xStreamBufferSend ; |245| 
         00019e 0000!
     777 0001a0 3D14  ||      MOV #1, T0
     778              
     779                                                      ; call occurs [#_xStreamBufferSend] ; |245| 
     780 0001a2 C404          MOV T0, *SP(#2) ; |245| 
     781                      .dwpsn  file "../FreeRTOS/Demo/Common/Minimal/MessageBufferDemo.c",line 246,column 2,is_stmt
     782              $C$DW$108       .dwtag  DW_TAG_TI_branch
     783                      .dwattr $C$DW$108, DW_AT_low_pc(0x00)
     784                      .dwattr $C$DW$108, DW_AT_name("_xTaskGetTickCount")
     785                      .dwattr $C$DW$108, DW_AT_TI_call
     786 0001a4 6C00          CALL #_xTaskGetTickCount ; |246| 
         0001a6 0000!
     787                                                      ; call occurs [#_xTaskGetTickCount] ; |246| 
     788 0001a8 C422          MOV T0, *SP(#17) ; |246| 
     789                      .dwpsn  file "../FreeRTOS/Demo/Common/Minimal/MessageBufferDemo.c",line 247,column 2,is_stmt
     790 0001aa A428          MOV *SP(#20), T0 ; |247| 
     791 0001ac EC31          AMOV #0, XAR0 ; |247| 
         0001ae 8E00 
         0001b0 0000 
     792              $C$DW$109       .dwtag  DW_TAG_TI_branch
     793                      .dwattr $C$DW$109, DW_AT_low_pc(0x00)
     794                      .dwattr $C$DW$109, DW_AT_name("_vTaskPrioritySet")
     795                      .dwattr $C$DW$109, DW_AT_TI_call
     796 0001b2 6C00          CALL #_vTaskPrioritySet ; |247| 
         0001b4 0000!
     797                                                      ; call occurs [#_vTaskPrioritySet] ; |247| 
     798                      .dwpsn  file "../FreeRTOS/Demo/Common/Minimal/MessageBufferDemo.c",line 251,column 2,is_stmt
     799                      .dwpsn  file "../FreeRTOS/Demo/Common/Minimal/MessageBufferDemo.c",line 252,column 2,is_stmt
     800                      .dwpsn  file "../FreeRTOS/Demo/Common/Minimal/MessageBufferDemo.c",line 253,column 2,is_stmt
     801                      .dwpsn  file "../FreeRTOS/Demo/Common/Minimal/MessageBufferDemo.c",line 258,column 7,is_stmt
     802 0001b6 E606          MOV #0, *SP(#3) ; |258| 
         0001b8 00   
     803                      .dwpsn  file "../FreeRTOS/Demo/Common/Minimal/MessageBufferDemo.c",line 258,column 18,is_stmt
     804 0001b9 A90C          MOV *SP(#6), AR1 ; |258| 
     805 0001bb AA06          MOV *SP(#3), AR2 ; |258| 
     806 0001bd 12A8          CMPU AR2 >= AR1, TC1 ; |258| 
         0001bf 94   
     807 0001c0 6D64          BCC $C$L6,TC1 ; |258| 
         0001c2 0087 
     808                                                      ; branchcc occurs ; |258| 
     809 0001c4       $C$L4:    
     810 0001c4       $C$DW$L$_prvSingleTaskTests$7$B:
     811                      .dwpsn  file "../FreeRTOS/Demo/Common/Minimal/MessageBufferDemo.c",line 262,column 3,is_stmt
     812 0001c4 A906          MOV *SP(#3), AR1 ; |262| 
     813 0001c6 ED18          MOV dbl(*SP(#12)), XAR0
         0001c8 8F   
TMS320C55x Assembler PC v4.4.1 Sat Sep 08 05:55:01 2018

Tools Copyright (c) 1996-2012 Texas Instruments Incorporated
MessageBufferDemo.asm                                                PAGE   18

     814 0001c9 A50E          MOV *SP(#7), T1 ; |262| 
     815 0001cb 7B00          ADD #48, AR1, T0 ; |262| 
         0001cd 3049 
     816              $C$DW$110       .dwtag  DW_TAG_TI_branch
     817                      .dwattr $C$DW$110, DW_AT_low_pc(0x00)
     818                      .dwattr $C$DW$110, DW_AT_name("_memset")
     819                      .dwattr $C$DW$110, DW_AT_TI_call
     820 0001cf 6C00          CALL #_memset ; |262| 
         0001d1 0000!
     821                                                      ; call occurs [#_memset] ; |262| 
     822                      .dwpsn  file "../FreeRTOS/Demo/Common/Minimal/MessageBufferDemo.c",line 266,column 3,is_stmt
     823 0001d3 A90E          MOV *SP(#7), AR1 ; |266| 
     824 0001d5 ED00          MOV dbl(*SP(#0)), XAR0
         0001d7 8F   
     825 0001d8 7C00          SUB #1, AR1, T0 ; |266| 
         0001da 0149 
     826 0001dc ED1C          MOV dbl(*SP(#14)), XAR1
         0001de 9F   
     827              $C$DW$111       .dwtag  DW_TAG_TI_branch
     828                      .dwattr $C$DW$111, DW_AT_low_pc(0x00)
     829                      .dwattr $C$DW$111, DW_AT_name("_xStreamBufferReceive")
     830                      .dwattr $C$DW$111, DW_AT_TI_call
     831              
     832 0001df 6C00          CALL #_xStreamBufferReceive ; |266| 
         0001e1 0000!
     833 0001e3 3D05  ||      MOV #0, T1
     834              
     835                                                      ; call occurs [#_xStreamBufferReceive] ; |266| 
     836 0001e5 C404          MOV T0, *SP(#2) ; |266| 
     837                      .dwpsn  file "../FreeRTOS/Demo/Common/Minimal/MessageBufferDemo.c",line 268,column 3,is_stmt
     838                      .dwpsn  file "../FreeRTOS/Demo/Common/Minimal/MessageBufferDemo.c",line 271,column 3,is_stmt
     839 0001e7 ED00          MOV dbl(*SP(#0)), XAR0
         0001e9 8F   
     840              $C$DW$112       .dwtag  DW_TAG_TI_branch
     841                      .dwattr $C$DW$112, DW_AT_low_pc(0x00)
     842                      .dwattr $C$DW$112, DW_AT_name("_xStreamBufferNextMessageLengthBytes")
     843                      .dwattr $C$DW$112, DW_AT_TI_call
     844 0001ea 6C00          CALL #_xStreamBufferNextMessageLengthBytes ; |271| 
         0001ec 0000!
     845                                                      ; call occurs [#_xStreamBufferNextMessageLengthBytes] ; |271| 
     846 0001ee C40A          MOV T0, *SP(#5) ; |271| 
     847                      .dwpsn  file "../FreeRTOS/Demo/Common/Minimal/MessageBufferDemo.c",line 273,column 3,is_stmt
     848                      .dwpsn  file "../FreeRTOS/Demo/Common/Minimal/MessageBufferDemo.c",line 280,column 3,is_stmt
     849 0001f0 20     nop
     850 0001f1 46B3   bset INTM
     851 0001f3 F731          ADD #1, *(#_usCriticalNesting) ; |280| 
         0001f5 0001 
         0001f7 0000 
         0001f9 00!  
     852                      .dwpsn  file "../FreeRTOS/Demo/Common/Minimal/MessageBufferDemo.c",line 282,column 4,is_stmt
     853 0001fa A40E          MOV *SP(#7), T0 ; |282| 
     854 0001fc ED00          MOV dbl(*SP(#0)), XAR0
         0001fe 8F   
     855 0001ff EC31          AMOV #0, XAR2 ; |282| 
         000201 AE00 
TMS320C55x Assembler PC v4.4.1 Sat Sep 08 05:55:01 2018

Tools Copyright (c) 1996-2012 Texas Instruments Incorporated
MessageBufferDemo.asm                                                PAGE   19

         000203 0000 
     856 000205 ED1C          MOV dbl(*SP(#14)), XAR1
         000207 9F   
     857              $C$DW$113       .dwtag  DW_TAG_TI_branch
     858                      .dwattr $C$DW$113, DW_AT_low_pc(0x00)
     859                      .dwattr $C$DW$113, DW_AT_name("_xStreamBufferReceiveFromISR")
     860                      .dwattr $C$DW$113, DW_AT_TI_call
     861 000208 6C00          CALL #_xStreamBufferReceiveFromISR ; |282| 
         00020a 0000!
     862                                                      ; call occurs [#_xStreamBufferReceiveFromISR] ; |282| 
     863 00020c C404          MOV T0, *SP(#2) ; |282| 
     864                      .dwpsn  file "../FreeRTOS/Demo/Common/Minimal/MessageBufferDemo.c",line 284,column 3,is_stmt
     865 00020e A931          MOV *(#_usCriticalNesting), AR1 ; |284| 
         000210 0000 
         000212 00!  
     866 000213 0409          BCC $C$L5,AR1 == #0 ; |284| 
         000215 14   
     867                                                      ; branchcc occurs ; |284| 
     868 000216       $C$DW$L$_prvSingleTaskTests$7$E:
     869 000216       $C$DW$L$_prvSingleTaskTests$8$B:
     870 000216 F731          SUB #1, *(#_usCriticalNesting) ; |284| 
         000218 FFFF 
         00021a 0000 
         00021c 00!  
     871 00021d 20            NOP
     872 00021e 20            NOP
     873 00021f 20            NOP
     874 000220 A931          MOV *(#_usCriticalNesting), AR1 ; |284| 
         000222 0000 
         000224 00!  
     875 000225 6199          BCC $C$L5,AR1 != #0 ; |284| 
     876                                                      ; branchcc occurs ; |284| 
     877 000227       $C$DW$L$_prvSingleTaskTests$8$E:
     878 000227       $C$DW$L$_prvSingleTaskTests$9$B:
     879 000227 20     nop
     880 000228 46B2   bclr INTM
     881 00022a       $C$DW$L$_prvSingleTaskTests$9$E:
     882 00022a       $C$L5:    
     883 00022a       $C$DW$L$_prvSingleTaskTests$10$B:
     884                      .dwpsn  file "../FreeRTOS/Demo/Common/Minimal/MessageBufferDemo.c",line 286,column 3,is_stmt
     885                      .dwpsn  file "../FreeRTOS/Demo/Common/Minimal/MessageBufferDemo.c",line 294,column 3,is_stmt
     886 00022a A90E          MOV *SP(#7), AR1 ; |294| 
     887 00022c D608          ADD *SP(#4), AR1, AR1 ; |294| 
         00022e 99   
     888 00022f 4019          ADD #1, AR1 ; |294| 
     889 000231 C908          MOV AR1, *SP(#4) ; |294| 
     890                      .dwpsn  file "../FreeRTOS/Demo/Common/Minimal/MessageBufferDemo.c",line 295,column 3,is_stmt
     891 000233 ED00          MOV dbl(*SP(#0)), XAR0
         000235 8F   
     892              $C$DW$114       .dwtag  DW_TAG_TI_branch
     893                      .dwattr $C$DW$114, DW_AT_low_pc(0x00)
     894                      .dwattr $C$DW$114, DW_AT_name("_xStreamBufferSpacesAvailable")
     895                      .dwattr $C$DW$114, DW_AT_TI_call
     896 000236 6C00          CALL #_xStreamBufferSpacesAvailable ; |295| 
         000238 0000!
TMS320C55x Assembler PC v4.4.1 Sat Sep 08 05:55:01 2018

Tools Copyright (c) 1996-2012 Texas Instruments Incorporated
MessageBufferDemo.asm                                                PAGE   20

     897                                                      ; call occurs [#_xStreamBufferSpacesAvailable] ; |295| 
     898 00023a C404          MOV T0, *SP(#2) ; |295| 
     899                      .dwpsn  file "../FreeRTOS/Demo/Common/Minimal/MessageBufferDemo.c",line 297,column 3,is_stmt
     900                      .dwpsn  file "../FreeRTOS/Demo/Common/Minimal/MessageBufferDemo.c",line 258,column 45,is_stmt
     901 00023c F706          ADD #1, *SP(#3) ; |258| 
         00023e 0001 
     902                      .dwpsn  file "../FreeRTOS/Demo/Common/Minimal/MessageBufferDemo.c",line 258,column 18,is_stmt
     903 000240 AA06          MOV *SP(#3), AR2 ; |258| 
     904 000242 A90C          MOV *SP(#6), AR1 ; |258| 
     905 000244 12A4          CMPU AR2 < AR1, TC1 ; |258| 
         000246 94   
     906 000247 6D64          BCC $C$L4,TC1 ; |258| 
         000249 FF79 
     907                                                      ; branchcc occurs ; |258| 
     908 00024b       $C$DW$L$_prvSingleTaskTests$10$E:
     909 00024b       $C$L6:    
     910                      .dwpsn  file "../FreeRTOS/Demo/Common/Minimal/MessageBufferDemo.c",line 302,column 2,is_stmt
     911 00024b ED00          MOV dbl(*SP(#0)), XAR0
         00024d 8F   
     912              $C$DW$115       .dwtag  DW_TAG_TI_branch
     913                      .dwattr $C$DW$115, DW_AT_low_pc(0x00)
     914                      .dwattr $C$DW$115, DW_AT_name("_xStreamBufferSpacesAvailable")
     915                      .dwattr $C$DW$115, DW_AT_TI_call
     916 00024e 6C00          CALL #_xStreamBufferSpacesAvailable ; |302| 
         000250 0000!
     917                                                      ; call occurs [#_xStreamBufferSpacesAvailable] ; |302| 
     918 000252 C408          MOV T0, *SP(#4) ; |302| 
     919                      .dwpsn  file "../FreeRTOS/Demo/Common/Minimal/MessageBufferDemo.c",line 304,column 2,is_stmt
     920                      .dwpsn  file "../FreeRTOS/Demo/Common/Minimal/MessageBufferDemo.c",line 305,column 2,is_stmt
     921 000254 ED00          MOV dbl(*SP(#0)), XAR0
         000256 8F   
     922              $C$DW$116       .dwtag  DW_TAG_TI_branch
     923                      .dwattr $C$DW$116, DW_AT_low_pc(0x00)
     924                      .dwattr $C$DW$116, DW_AT_name("_xStreamBufferNextMessageLengthBytes")
     925                      .dwattr $C$DW$116, DW_AT_TI_call
     926 000257 6C00          CALL #_xStreamBufferNextMessageLengthBytes ; |305| 
         000259 0000!
     927                                                      ; call occurs [#_xStreamBufferNextMessageLengthBytes] ; |305| 
     928 00025b C40A          MOV T0, *SP(#5) ; |305| 
     929                      .dwpsn  file "../FreeRTOS/Demo/Common/Minimal/MessageBufferDemo.c",line 307,column 2,is_stmt
     930                      .dwpsn  file "../FreeRTOS/Demo/Common/Minimal/MessageBufferDemo.c",line 313,column 2,is_stmt
     931 00025d EC31          AMOV #0, XAR0 ; |313| 
         00025f 8E00 
         000261 0000 
     932              $C$DW$117       .dwtag  DW_TAG_TI_branch
     933                      .dwattr $C$DW$117, DW_AT_low_pc(0x00)
     934                      .dwattr $C$DW$117, DW_AT_name("_vTaskPrioritySet")
     935                      .dwattr $C$DW$117, DW_AT_TI_call
     936              
     937 000263 6C00          CALL #_vTaskPrioritySet ; |313| 
         000265 0000!
     938 000267 3D34  ||      MOV #3, T0
     939              
     940                                                      ; call occurs [#_vTaskPrioritySet] ; |313| 
     941                      .dwpsn  file "../FreeRTOS/Demo/Common/Minimal/MessageBufferDemo.c",line 314,column 2,is_stmt
TMS320C55x Assembler PC v4.4.1 Sat Sep 08 05:55:01 2018

Tools Copyright (c) 1996-2012 Texas Instruments Incorporated
MessageBufferDemo.asm                                                PAGE   21

     942              $C$DW$118       .dwtag  DW_TAG_TI_branch
     943                      .dwattr $C$DW$118, DW_AT_low_pc(0x00)
     944                      .dwattr $C$DW$118, DW_AT_name("_xTaskGetTickCount")
     945                      .dwattr $C$DW$118, DW_AT_TI_call
     946 000269 6C00          CALL #_xTaskGetTickCount ; |314| 
         00026b 0000!
     947                                                      ; call occurs [#_xTaskGetTickCount] ; |314| 
     948 00026d C420          MOV T0, *SP(#16) ; |314| 
     949                      .dwpsn  file "../FreeRTOS/Demo/Common/Minimal/MessageBufferDemo.c",line 315,column 2,is_stmt
     950 00026f A40E          MOV *SP(#7), T0 ; |315| 
     951 000271 A524          MOV *SP(#18), T1 ; |315| 
     952 000273 ED00          MOV dbl(*SP(#0)), XAR0
         000275 8F   
     953 000276 ED1C          MOV dbl(*SP(#14)), XAR1
         000278 9F   
     954              $C$DW$119       .dwtag  DW_TAG_TI_branch
     955                      .dwattr $C$DW$119, DW_AT_low_pc(0x00)
     956                      .dwattr $C$DW$119, DW_AT_name("_xStreamBufferReceive")
     957                      .dwattr $C$DW$119, DW_AT_TI_call
     958 000279 6C00          CALL #_xStreamBufferReceive ; |315| 
         00027b 0000!
     959                                                      ; call occurs [#_xStreamBufferReceive] ; |315| 
     960 00027d C404          MOV T0, *SP(#2) ; |315| 
     961                      .dwpsn  file "../FreeRTOS/Demo/Common/Minimal/MessageBufferDemo.c",line 316,column 2,is_stmt
     962              $C$DW$120       .dwtag  DW_TAG_TI_branch
     963                      .dwattr $C$DW$120, DW_AT_low_pc(0x00)
     964                      .dwattr $C$DW$120, DW_AT_name("_xTaskGetTickCount")
     965                      .dwattr $C$DW$120, DW_AT_TI_call
     966 00027f 6C00          CALL #_xTaskGetTickCount ; |316| 
         000281 0000!
     967                                                      ; call occurs [#_xTaskGetTickCount] ; |316| 
     968 000283 C422          MOV T0, *SP(#17) ; |316| 
     969                      .dwpsn  file "../FreeRTOS/Demo/Common/Minimal/MessageBufferDemo.c",line 317,column 2,is_stmt
     970 000285 A428          MOV *SP(#20), T0 ; |317| 
     971 000287 EC31          AMOV #0, XAR0 ; |317| 
         000289 8E00 
         00028b 0000 
     972              $C$DW$121       .dwtag  DW_TAG_TI_branch
     973                      .dwattr $C$DW$121, DW_AT_low_pc(0x00)
     974                      .dwattr $C$DW$121, DW_AT_name("_vTaskPrioritySet")
     975                      .dwattr $C$DW$121, DW_AT_TI_call
     976 00028d 6C00          CALL #_vTaskPrioritySet ; |317| 
         00028f 0000!
     977                                                      ; call occurs [#_vTaskPrioritySet] ; |317| 
     978                      .dwpsn  file "../FreeRTOS/Demo/Common/Minimal/MessageBufferDemo.c",line 321,column 2,is_stmt
     979                      .dwpsn  file "../FreeRTOS/Demo/Common/Minimal/MessageBufferDemo.c",line 322,column 2,is_stmt
     980                      .dwpsn  file "../FreeRTOS/Demo/Common/Minimal/MessageBufferDemo.c",line 323,column 2,is_stmt
     981                      .dwpsn  file "../FreeRTOS/Demo/Common/Minimal/MessageBufferDemo.c",line 330,column 2,is_stmt
     982 000291 7600          MOV #50, AC0 ; |330| 
         000293 3208 
     983 000295 DF10          SUB uns(*SP(#8)), AC0, AC0 ; |330| 
         000297 0F   
     984 000298 4210          SUB #1, AC0 ; |330| 
     985 00029a C008          MOV AC0, *SP(#4) ; |330| 
     986                      .dwpsn  file "../FreeRTOS/Demo/Common/Minimal/MessageBufferDemo.c",line 335,column 7,is_stmt
TMS320C55x Assembler PC v4.4.1 Sat Sep 08 05:55:01 2018

Tools Copyright (c) 1996-2012 Texas Instruments Incorporated
MessageBufferDemo.asm                                                PAGE   22

     987 00029c E606          MOV #0, *SP(#3) ; |335| 
         00029e 00   
     988                      .dwpsn  file "../FreeRTOS/Demo/Common/Minimal/MessageBufferDemo.c",line 335,column 18,is_stmt
     989 00029f 7600          MOV #100, AR2 ; |335| 
         0002a1 64A8 
     990 0002a3 A906          MOV *SP(#3), AR1 ; |335| 
     991 0002a5 1298          CMPU AR1 >= AR2, TC1 ; |335| 
         0002a7 A4   
     992 0002a8 0464          BCC $C$L8,TC1 ; |335| 
         0002aa 5A   
     993                                                      ; branchcc occurs ; |335| 
     994 0002ab       $C$L7:    
     995 0002ab       $C$DW$L$_prvSingleTaskTests$12$B:
     996                      .dwpsn  file "../FreeRTOS/Demo/Common/Minimal/MessageBufferDemo.c",line 340,column 3,is_stmt
     997 0002ab A906          MOV *SP(#3), AR1 ; |340| 
     998 0002ad ED18          MOV dbl(*SP(#12)), XAR0
         0002af 8F   
     999 0002b0 A510          MOV *SP(#8), T1 ; |340| 
    1000 0002b2 7B00          ADD #48, AR1, T0 ; |340| 
         0002b4 3049 
    1001              $C$DW$122       .dwtag  DW_TAG_TI_branch
    1002                      .dwattr $C$DW$122, DW_AT_low_pc(0x00)
    1003                      .dwattr $C$DW$122, DW_AT_name("_memset")
    1004                      .dwattr $C$DW$122, DW_AT_TI_call
    1005 0002b6 6C00          CALL #_memset ; |340| 
         0002b8 0000!
    1006                                                      ; call occurs [#_memset] ; |340| 
    1007                      .dwpsn  file "../FreeRTOS/Demo/Common/Minimal/MessageBufferDemo.c",line 341,column 3,is_stmt
    1008 0002ba ED18          MOV dbl(*SP(#12)), XAR1
         0002bc 9F   
    1009 0002bd ED00          MOV dbl(*SP(#0)), XAR0
         0002bf 8F   
    1010 0002c0 A410          MOV *SP(#8), T0 ; |341| 
    1011              $C$DW$123       .dwtag  DW_TAG_TI_branch
    1012                      .dwattr $C$DW$123, DW_AT_low_pc(0x00)
    1013                      .dwattr $C$DW$123, DW_AT_name("_xStreamBufferSend")
    1014                      .dwattr $C$DW$123, DW_AT_TI_call
    1015              
    1016 0002c2 6C00          CALL #_xStreamBufferSend ; |341| 
         0002c4 0000!
    1017 0002c6 3D05  ||      MOV #0, T1
    1018              
    1019                                                      ; call occurs [#_xStreamBufferSend] ; |341| 
    1020 0002c8 C404          MOV T0, *SP(#2) ; |341| 
    1021                      .dwpsn  file "../FreeRTOS/Demo/Common/Minimal/MessageBufferDemo.c",line 343,column 3,is_stmt
    1022                      .dwpsn  file "../FreeRTOS/Demo/Common/Minimal/MessageBufferDemo.c",line 346,column 3,is_stmt
    1023 0002ca ED00          MOV dbl(*SP(#0)), XAR0
         0002cc 8F   
    1024              $C$DW$124       .dwtag  DW_TAG_TI_branch
    1025                      .dwattr $C$DW$124, DW_AT_low_pc(0x00)
    1026                      .dwattr $C$DW$124, DW_AT_name("_xStreamBufferNextMessageLengthBytes")
    1027                      .dwattr $C$DW$124, DW_AT_TI_call
    1028 0002cd 6C00          CALL #_xStreamBufferNextMessageLengthBytes ; |346| 
         0002cf 0000!
    1029                                                      ; call occurs [#_xStreamBufferNextMessageLengthBytes] ; |346| 
TMS320C55x Assembler PC v4.4.1 Sat Sep 08 05:55:01 2018

Tools Copyright (c) 1996-2012 Texas Instruments Incorporated
MessageBufferDemo.asm                                                PAGE   23

    1030 0002d1 C40A          MOV T0, *SP(#5) ; |346| 
    1031                      .dwpsn  file "../FreeRTOS/Demo/Common/Minimal/MessageBufferDemo.c",line 348,column 3,is_stmt
    1032                      .dwpsn  file "../FreeRTOS/Demo/Common/Minimal/MessageBufferDemo.c",line 353,column 3,is_stmt
    1033 0002d3 ED00          MOV dbl(*SP(#0)), XAR0
         0002d5 8F   
    1034              $C$DW$125       .dwtag  DW_TAG_TI_branch
    1035                      .dwattr $C$DW$125, DW_AT_low_pc(0x00)
    1036                      .dwattr $C$DW$125, DW_AT_name("_xStreamBufferSpacesAvailable")
    1037                      .dwattr $C$DW$125, DW_AT_TI_call
    1038 0002d6 6C00          CALL #_xStreamBufferSpacesAvailable ; |353| 
         0002d8 0000!
    1039                                                      ; call occurs [#_xStreamBufferSpacesAvailable] ; |353| 
    1040 0002da C404          MOV T0, *SP(#2) ; |353| 
    1041                      .dwpsn  file "../FreeRTOS/Demo/Common/Minimal/MessageBufferDemo.c",line 355,column 3,is_stmt
    1042                      .dwpsn  file "../FreeRTOS/Demo/Common/Minimal/MessageBufferDemo.c",line 358,column 3,is_stmt
    1043 0002dc A410          MOV *SP(#8), T0 ; |358| 
    1044 0002de ED00          MOV dbl(*SP(#0)), XAR0
         0002e0 8F   
    1045 0002e1 ED1C          MOV dbl(*SP(#14)), XAR1
         0002e3 9F   
    1046              $C$DW$126       .dwtag  DW_TAG_TI_branch
    1047                      .dwattr $C$DW$126, DW_AT_low_pc(0x00)
    1048                      .dwattr $C$DW$126, DW_AT_name("_xStreamBufferReceive")
    1049                      .dwattr $C$DW$126, DW_AT_TI_call
    1050              
    1051 0002e4 6C00          CALL #_xStreamBufferReceive ; |358| 
         0002e6 0000!
    1052 0002e8 3D05  ||      MOV #0, T1
    1053              
    1054                                                      ; call occurs [#_xStreamBufferReceive] ; |358| 
    1055 0002ea C404          MOV T0, *SP(#2) ; |358| 
    1056                      .dwpsn  file "../FreeRTOS/Demo/Common/Minimal/MessageBufferDemo.c",line 360,column 3,is_stmt
    1057                      .dwpsn  file "../FreeRTOS/Demo/Common/Minimal/MessageBufferDemo.c",line 367,column 3,is_stmt
    1058 0002ec ED00          MOV dbl(*SP(#0)), XAR0
         0002ee 8F   
    1059              $C$DW$127       .dwtag  DW_TAG_TI_branch
    1060                      .dwattr $C$DW$127, DW_AT_low_pc(0x00)
    1061                      .dwattr $C$DW$127, DW_AT_name("_xStreamBufferNextMessageLengthBytes")
    1062                      .dwattr $C$DW$127, DW_AT_TI_call
    1063 0002ef 6C00          CALL #_xStreamBufferNextMessageLengthBytes ; |367| 
         0002f1 0000!
    1064                                                      ; call occurs [#_xStreamBufferNextMessageLengthBytes] ; |367| 
    1065 0002f3 C40A          MOV T0, *SP(#5) ; |367| 
    1066                      .dwpsn  file "../FreeRTOS/Demo/Common/Minimal/MessageBufferDemo.c",line 369,column 3,is_stmt
    1067                      .dwpsn  file "../FreeRTOS/Demo/Common/Minimal/MessageBufferDemo.c",line 335,column 31,is_stmt
    1068 0002f5 F706          ADD #1, *SP(#3) ; |335| 
         0002f7 0001 
    1069                      .dwpsn  file "../FreeRTOS/Demo/Common/Minimal/MessageBufferDemo.c",line 335,column 18,is_stmt
    1070 0002f9 7600          MOV #100, AR2 ; |335| 
         0002fb 64A8 
    1071 0002fd A906          MOV *SP(#3), AR1 ; |335| 
    1072 0002ff 1294          CMPU AR1 < AR2, TC1 ; |335| 
         000301 A4   
    1073 000302 0464          BCC $C$L7,TC1 ; |335| 
         000304 A6   
TMS320C55x Assembler PC v4.4.1 Sat Sep 08 05:55:01 2018

Tools Copyright (c) 1996-2012 Texas Instruments Incorporated
MessageBufferDemo.asm                                                PAGE   24

    1074                                                      ; branchcc occurs ; |335| 
    1075 000305       $C$DW$L$_prvSingleTaskTests$12$E:
    1076 000305       $C$L8:    
    1077                      .dwpsn  file "../FreeRTOS/Demo/Common/Minimal/MessageBufferDemo.c",line 374,column 2,is_stmt
    1078 000305 ED00          MOV dbl(*SP(#0)), XAR0
         000307 8F   
    1079              $C$DW$128       .dwtag  DW_TAG_TI_branch
    1080                      .dwattr $C$DW$128, DW_AT_low_pc(0x00)
    1081                      .dwattr $C$DW$128, DW_AT_name("_xStreamBufferSpacesAvailable")
    1082                      .dwattr $C$DW$128, DW_AT_TI_call
    1083 000308 6C00          CALL #_xStreamBufferSpacesAvailable ; |374| 
         00030a 0000!
    1084                                                      ; call occurs [#_xStreamBufferSpacesAvailable] ; |374| 
    1085 00030c C408          MOV T0, *SP(#4) ; |374| 
    1086                      .dwpsn  file "../FreeRTOS/Demo/Common/Minimal/MessageBufferDemo.c",line 380,column 2,is_stmt
    1087 00030e 7600          MOV #50, T0 ; |380| 
         000310 3248 
    1088 000312 ED31          MOV dbl(*(#_pc55ByteString)), XAR1
         000314 9F00 
         000316 0006-
    1089 000318 ED00          MOV dbl(*SP(#0)), XAR0
         00031a 8F   
    1090              $C$DW$129       .dwtag  DW_TAG_TI_branch
    1091                      .dwattr $C$DW$129, DW_AT_low_pc(0x00)
    1092                      .dwattr $C$DW$129, DW_AT_name("_xStreamBufferSend")
    1093                      .dwattr $C$DW$129, DW_AT_TI_call
    1094              
    1095 00031b 6C00          CALL #_xStreamBufferSend ; |380| 
         00031d 0000!
    1096 00031f 3D05  ||      MOV #0, T1
    1097              
    1098                                                      ; call occurs [#_xStreamBufferSend] ; |380| 
    1099 000321 C404          MOV T0, *SP(#2) ; |380| 
    1100                      .dwpsn  file "../FreeRTOS/Demo/Common/Minimal/MessageBufferDemo.c",line 382,column 2,is_stmt
    1101                      .dwpsn  file "../FreeRTOS/Demo/Common/Minimal/MessageBufferDemo.c",line 401,column 2,is_stmt
    1102 000323 ED00          MOV dbl(*SP(#0)), XAR0
         000325 8F   
    1103              $C$DW$130       .dwtag  DW_TAG_TI_branch
    1104                      .dwattr $C$DW$130, DW_AT_low_pc(0x00)
    1105                      .dwattr $C$DW$130, DW_AT_name("_xStreamBufferNextMessageLengthBytes")
    1106                      .dwattr $C$DW$130, DW_AT_TI_call
    1107 000326 6C00          CALL #_xStreamBufferNextMessageLengthBytes ; |401| 
         000328 0000!
    1108                                                      ; call occurs [#_xStreamBufferNextMessageLengthBytes] ; |401| 
    1109 00032a C40A          MOV T0, *SP(#5) ; |401| 
    1110                      .dwpsn  file "../FreeRTOS/Demo/Common/Minimal/MessageBufferDemo.c",line 403,column 2,is_stmt
    1111                      .dwpsn  file "../FreeRTOS/Demo/Common/Minimal/MessageBufferDemo.c",line 406,column 2,is_stmt
    1112 00032c 7600          MOV #49, T0 ; |406| 
         00032e 3148 
    1113 000330 ED00          MOV dbl(*SP(#0)), XAR0
         000332 8F   
    1114 000333 ED31          MOV dbl(*(#_pc55ByteString)), XAR1
         000335 9F00 
         000337 0006-
    1115              $C$DW$131       .dwtag  DW_TAG_TI_branch
TMS320C55x Assembler PC v4.4.1 Sat Sep 08 05:55:01 2018

Tools Copyright (c) 1996-2012 Texas Instruments Incorporated
MessageBufferDemo.asm                                                PAGE   25

    1116                      .dwattr $C$DW$131, DW_AT_low_pc(0x00)
    1117                      .dwattr $C$DW$131, DW_AT_name("_xStreamBufferSend")
    1118                      .dwattr $C$DW$131, DW_AT_TI_call
    1119              
    1120 000339 6C00          CALL #_xStreamBufferSend ; |406| 
         00033b 0000!
    1121 00033d 3D05  ||      MOV #0, T1
    1122              
    1123                                                      ; call occurs [#_xStreamBufferSend] ; |406| 
    1124 00033f C404          MOV T0, *SP(#2) ; |406| 
    1125                      .dwpsn  file "../FreeRTOS/Demo/Common/Minimal/MessageBufferDemo.c",line 408,column 2,is_stmt
    1126                      .dwpsn  file "../FreeRTOS/Demo/Common/Minimal/MessageBufferDemo.c",line 409,column 2,is_stmt
    1127 000341 ED00          MOV dbl(*SP(#0)), XAR0
         000343 8F   
    1128              $C$DW$132       .dwtag  DW_TAG_TI_branch
    1129                      .dwattr $C$DW$132, DW_AT_low_pc(0x00)
    1130                      .dwattr $C$DW$132, DW_AT_name("_xStreamBufferNextMessageLengthBytes")
    1131                      .dwattr $C$DW$132, DW_AT_TI_call
    1132 000344 6C00          CALL #_xStreamBufferNextMessageLengthBytes ; |409| 
         000346 0000!
    1133                                                      ; call occurs [#_xStreamBufferNextMessageLengthBytes] ; |409| 
    1134 000348 C40A          MOV T0, *SP(#5) ; |409| 
    1135                      .dwpsn  file "../FreeRTOS/Demo/Common/Minimal/MessageBufferDemo.c",line 411,column 2,is_stmt
    1136                      .dwpsn  file "../FreeRTOS/Demo/Common/Minimal/MessageBufferDemo.c",line 412,column 2,is_stmt
    1137 00034a 7600          MOV #49, T0 ; |412| 
         00034c 3148 
    1138 00034e ED00          MOV dbl(*SP(#0)), XAR0
         000350 8F   
    1139 000351 ED14          MOV dbl(*SP(#10)), XAR1
         000353 9F   
    1140              $C$DW$133       .dwtag  DW_TAG_TI_branch
    1141                      .dwattr $C$DW$133, DW_AT_low_pc(0x00)
    1142                      .dwattr $C$DW$133, DW_AT_name("_xStreamBufferReceive")
    1143                      .dwattr $C$DW$133, DW_AT_TI_call
    1144              
    1145 000354 6C00          CALL #_xStreamBufferReceive ; |412| 
         000356 0000!
    1146 000358 3D05  ||      MOV #0, T1
    1147              
    1148                                                      ; call occurs [#_xStreamBufferReceive] ; |412| 
    1149 00035a C404          MOV T0, *SP(#2) ; |412| 
    1150                      .dwpsn  file "../FreeRTOS/Demo/Common/Minimal/MessageBufferDemo.c",line 414,column 2,is_stmt
    1151                      .dwpsn  file "../FreeRTOS/Demo/Common/Minimal/MessageBufferDemo.c",line 418,column 2,is_stmt
    1152 00035c ED14          MOV dbl(*SP(#10)), XAR0
         00035e 8F   
    1153              $C$DW$134       .dwtag  DW_TAG_TI_branch
    1154                      .dwattr $C$DW$134, DW_AT_low_pc(0x00)
    1155                      .dwattr $C$DW$134, DW_AT_name("_vPortFree")
    1156                      .dwattr $C$DW$134, DW_AT_TI_call
    1157 00035f 6C00          CALL #_vPortFree ; |418| 
         000361 0000!
    1158                                                      ; call occurs [#_vPortFree] ; |418| 
    1159                      .dwpsn  file "../FreeRTOS/Demo/Common/Minimal/MessageBufferDemo.c",line 419,column 2,is_stmt
    1160 000363 ED00          MOV dbl(*SP(#0)), XAR0
         000365 8F   
TMS320C55x Assembler PC v4.4.1 Sat Sep 08 05:55:01 2018

Tools Copyright (c) 1996-2012 Texas Instruments Incorporated
MessageBufferDemo.asm                                                PAGE   26

    1161              $C$DW$135       .dwtag  DW_TAG_TI_branch
    1162                      .dwattr $C$DW$135, DW_AT_low_pc(0x00)
    1163                      .dwattr $C$DW$135, DW_AT_name("_xStreamBufferReset")
    1164                      .dwattr $C$DW$135, DW_AT_TI_call
    1165 000366 6C00          CALL #_xStreamBufferReset ; |419| 
         000368 0000!
    1166                                                      ; call occurs [#_xStreamBufferReset] ; |419| 
    1167                      .dwpsn  file "../FreeRTOS/Demo/Common/Minimal/MessageBufferDemo.c",line 420,column 1,is_stmt
    1168 00036a 4E15          AADD #21, SP
    1169                      .dwcfi  cfa_offset, 1
    1170              $C$DW$136       .dwtag  DW_TAG_TI_branch
    1171                      .dwattr $C$DW$136, DW_AT_low_pc(0x00)
    1172                      .dwattr $C$DW$136, DW_AT_TI_return
    1173 00036c 4804          RET
    1174                                                      ; return occurs
    1175              
    1176              $C$DW$137       .dwtag  DW_TAG_TI_loop
    1177                      .dwattr $C$DW$137, DW_AT_name("F:\eZdsp_C55x_FreeRTOS_Port\eZDSP\eZDSP_5535_Files\ccsws2\test\Debug\M
    1178                      .dwattr $C$DW$137, DW_AT_TI_begin_file("../FreeRTOS/Demo/Common/Minimal/MessageBufferDemo.c")
    1179                      .dwattr $C$DW$137, DW_AT_TI_begin_line(0x14f)
    1180                      .dwattr $C$DW$137, DW_AT_TI_end_line(0x172)
    1181              $C$DW$138       .dwtag  DW_TAG_TI_loop_range
    1182                      .dwattr $C$DW$138, DW_AT_low_pc($C$DW$L$_prvSingleTaskTests$12$B)
    1183                      .dwattr $C$DW$138, DW_AT_high_pc($C$DW$L$_prvSingleTaskTests$12$E)
    1184                      .dwendtag $C$DW$137
    1185              
    1186              
    1187              $C$DW$139       .dwtag  DW_TAG_TI_loop
    1188                      .dwattr $C$DW$139, DW_AT_name("F:\eZdsp_C55x_FreeRTOS_Port\eZDSP\eZDSP_5535_Files\ccsws2\test\Debug\M
    1189                      .dwattr $C$DW$139, DW_AT_TI_begin_file("../FreeRTOS/Demo/Common/Minimal/MessageBufferDemo.c")
    1190                      .dwattr $C$DW$139, DW_AT_TI_begin_line(0x102)
    1191                      .dwattr $C$DW$139, DW_AT_TI_end_line(0x12a)
    1192              $C$DW$140       .dwtag  DW_TAG_TI_loop_range
    1193                      .dwattr $C$DW$140, DW_AT_low_pc($C$DW$L$_prvSingleTaskTests$7$B)
    1194                      .dwattr $C$DW$140, DW_AT_high_pc($C$DW$L$_prvSingleTaskTests$7$E)
    1195              $C$DW$141       .dwtag  DW_TAG_TI_loop_range
    1196                      .dwattr $C$DW$141, DW_AT_low_pc($C$DW$L$_prvSingleTaskTests$8$B)
    1197                      .dwattr $C$DW$141, DW_AT_high_pc($C$DW$L$_prvSingleTaskTests$8$E)
    1198              $C$DW$142       .dwtag  DW_TAG_TI_loop_range
    1199                      .dwattr $C$DW$142, DW_AT_low_pc($C$DW$L$_prvSingleTaskTests$9$B)
    1200                      .dwattr $C$DW$142, DW_AT_high_pc($C$DW$L$_prvSingleTaskTests$9$E)
    1201              $C$DW$143       .dwtag  DW_TAG_TI_loop_range
    1202                      .dwattr $C$DW$143, DW_AT_low_pc($C$DW$L$_prvSingleTaskTests$10$B)
    1203                      .dwattr $C$DW$143, DW_AT_high_pc($C$DW$L$_prvSingleTaskTests$10$E)
    1204                      .dwendtag $C$DW$139
    1205              
    1206              
    1207              $C$DW$144       .dwtag  DW_TAG_TI_loop
    1208                      .dwattr $C$DW$144, DW_AT_name("F:\eZdsp_C55x_FreeRTOS_Port\eZDSP\eZDSP_5535_Files\ccsws2\test\Debug\M
    1209                      .dwattr $C$DW$144, DW_AT_TI_begin_file("../FreeRTOS/Demo/Common/Minimal/MessageBufferDemo.c")
    1210                      .dwattr $C$DW$144, DW_AT_TI_begin_line(0xc6)
    1211                      .dwattr $C$DW$144, DW_AT_TI_end_line(0xe6)
    1212              $C$DW$145       .dwtag  DW_TAG_TI_loop_range
    1213                      .dwattr $C$DW$145, DW_AT_low_pc($C$DW$L$_prvSingleTaskTests$2$B)
    1214                      .dwattr $C$DW$145, DW_AT_high_pc($C$DW$L$_prvSingleTaskTests$2$E)
TMS320C55x Assembler PC v4.4.1 Sat Sep 08 05:55:01 2018

Tools Copyright (c) 1996-2012 Texas Instruments Incorporated
MessageBufferDemo.asm                                                PAGE   27

    1215              $C$DW$146       .dwtag  DW_TAG_TI_loop_range
    1216                      .dwattr $C$DW$146, DW_AT_low_pc($C$DW$L$_prvSingleTaskTests$3$B)
    1217                      .dwattr $C$DW$146, DW_AT_high_pc($C$DW$L$_prvSingleTaskTests$3$E)
    1218              $C$DW$147       .dwtag  DW_TAG_TI_loop_range
    1219                      .dwattr $C$DW$147, DW_AT_low_pc($C$DW$L$_prvSingleTaskTests$4$B)
    1220                      .dwattr $C$DW$147, DW_AT_high_pc($C$DW$L$_prvSingleTaskTests$4$E)
    1221              $C$DW$148       .dwtag  DW_TAG_TI_loop_range
    1222                      .dwattr $C$DW$148, DW_AT_low_pc($C$DW$L$_prvSingleTaskTests$5$B)
    1223                      .dwattr $C$DW$148, DW_AT_high_pc($C$DW$L$_prvSingleTaskTests$5$E)
    1224                      .dwendtag $C$DW$144
    1225              
    1226                      .dwattr $C$DW$78, DW_AT_TI_end_file("../FreeRTOS/Demo/Common/Minimal/MessageBufferDemo.c")
    1227                      .dwattr $C$DW$78, DW_AT_TI_end_line(0x1a4)
    1228                      .dwattr $C$DW$78, DW_AT_TI_end_column(0x01)
    1229                      .dwendentry
    1230                      .dwendtag $C$DW$78
    1231              
    1232 00036e               .sect   ".text"
    1233                      .align 4
    1234              
    1235              $C$DW$149       .dwtag  DW_TAG_subprogram, DW_AT_name("prvNonBlockingSenderTask")
    1236                      .dwattr $C$DW$149, DW_AT_low_pc(_prvNonBlockingSenderTask)
    1237                      .dwattr $C$DW$149, DW_AT_high_pc(0x00)
    1238                      .dwattr $C$DW$149, DW_AT_TI_symbol_name("_prvNonBlockingSenderTask")
    1239                      .dwattr $C$DW$149, DW_AT_TI_begin_file("../FreeRTOS/Demo/Common/Minimal/MessageBufferDemo.c")
    1240                      .dwattr $C$DW$149, DW_AT_TI_begin_line(0x1a7)
    1241                      .dwattr $C$DW$149, DW_AT_TI_begin_column(0x0d)
    1242                      .dwattr $C$DW$149, DW_AT_TI_max_frame_size(0x1c)
    1243                      .dwpsn  file "../FreeRTOS/Demo/Common/Minimal/MessageBufferDemo.c",line 424,column 1,is_stmt,address 
    1244              
    1245                      .dwfde $C$DW$CIE, _prvNonBlockingSenderTask
    1246              $C$DW$150       .dwtag  DW_TAG_formal_parameter, DW_AT_name("pvParameters")
    1247                      .dwattr $C$DW$150, DW_AT_TI_symbol_name("_pvParameters")
    1248                      .dwattr $C$DW$150, DW_AT_type(*$C$DW$T$3)
    1249                      .dwattr $C$DW$150, DW_AT_location[DW_OP_reg17]
    1250              ;*******************************************************************************
    1251              ;* FUNCTION NAME: prvNonBlockingSenderTask                                     *
    1252              ;*                                                                             *
    1253              ;*   Function Uses Regs : AC0,AC0,AC1,AC1,T0,T1,AR0,XAR0,AR1,XAR1,AR3,XAR3,SP, *
    1254              ;*                        CARRY,TC1,M40,SATA,SATD,RDM,FRCT,SMUL                *
    1255              ;*   Stack Frame        : Compact (No Frame Pointer, w/ debug)                 *
    1256              ;*   Total Frame Size   : 28 words                                             *
    1257              ;*                        (2 return address/alignment)                         *
    1258              ;*                        (3 function parameters)                              *
    1259              ;*                        (23 local values)                                    *
    1260              ;*   Min System Stack   : 1 word                                               *
    1261              ;*******************************************************************************
    1262 000370       _prvNonBlockingSenderTask:
    1263                      .dwcfi  cfa_offset, 1
    1264                      .dwcfi  save_reg_to_mem, 91, -1
    1265 000370 4EE5          AADD #-27, SP
    1266                      .dwcfi  cfa_offset, 28
    1267              $C$DW$151       .dwtag  DW_TAG_variable, DW_AT_name("pvParameters")
    1268                      .dwattr $C$DW$151, DW_AT_TI_symbol_name("_pvParameters")
    1269                      .dwattr $C$DW$151, DW_AT_type(*$C$DW$T$3)
TMS320C55x Assembler PC v4.4.1 Sat Sep 08 05:55:01 2018

Tools Copyright (c) 1996-2012 Texas Instruments Incorporated
MessageBufferDemo.asm                                                PAGE   28

    1270                      .dwattr $C$DW$151, DW_AT_location[DW_OP_bregx 0x24 4]
    1271              $C$DW$152       .dwtag  DW_TAG_variable, DW_AT_name("xMessageBuffer")
    1272                      .dwattr $C$DW$152, DW_AT_TI_symbol_name("_xMessageBuffer")
    1273                      .dwattr $C$DW$152, DW_AT_type(*$C$DW$T$21)
    1274                      .dwattr $C$DW$152, DW_AT_location[DW_OP_bregx 0x24 6]
    1275              $C$DW$153       .dwtag  DW_TAG_variable, DW_AT_name("iDataToSend")
    1276                      .dwattr $C$DW$153, DW_AT_TI_symbol_name("_iDataToSend")
    1277                      .dwattr $C$DW$153, DW_AT_type(*$C$DW$T$94)
    1278                      .dwattr $C$DW$153, DW_AT_location[DW_OP_bregx 0x24 8]
    1279              $C$DW$154       .dwtag  DW_TAG_variable, DW_AT_name("xStringLength")
    1280                      .dwattr $C$DW$154, DW_AT_TI_symbol_name("_xStringLength")
    1281                      .dwattr $C$DW$154, DW_AT_type(*$C$DW$T$27)
    1282                      .dwattr $C$DW$154, DW_AT_location[DW_OP_bregx 0x24 10]
    1283              $C$DW$155       .dwtag  DW_TAG_variable, DW_AT_name("iMaxValue")
    1284                      .dwattr $C$DW$155, DW_AT_TI_symbol_name("_iMaxValue")
    1285                      .dwattr $C$DW$155, DW_AT_type(*$C$DW$T$95)
    1286                      .dwattr $C$DW$155, DW_AT_location[DW_OP_bregx 0x24 12]
    1287              $C$DW$156       .dwtag  DW_TAG_variable, DW_AT_name("cTxString")
    1288                      .dwattr $C$DW$156, DW_AT_TI_symbol_name("_cTxString")
    1289                      .dwattr $C$DW$156, DW_AT_type(*$C$DW$T$99)
    1290                      .dwattr $C$DW$156, DW_AT_location[DW_OP_bregx 0x24 14]
    1291 000372 EB08          MOV XAR0, dbl(*SP(#4))
         000374 85   
    1292                      .dwpsn  file "../FreeRTOS/Demo/Common/Minimal/MessageBufferDemo.c",line 426,column 9,is_stmt
    1293 000375 3C00          MOV #0, AC0 ; |426| 
    1294 000377 EB10          MOV AC0, dbl(*SP(#8)) ; |426| 
         000379 08   
    1295                      .dwpsn  file "../FreeRTOS/Demo/Common/Minimal/MessageBufferDemo.c",line 428,column 15,is_stmt
    1296 00037a 7605          MOV #1500, AC0 ; |428| 
         00037c DC08 
    1297 00037e EB18          MOV AC0, dbl(*SP(#12)) ; |428| 
         000380 08   
    1298                      .dwpsn  file "../FreeRTOS/Demo/Common/Minimal/MessageBufferDemo.c",line 433,column 2,is_stmt
    1299 000381 ED08          MOV dbl(*SP(#4)), XAR3
         000383 BF   
    1300 000384 EB0C          MOV XAR3, dbl(*SP(#6))
         000386 B5   
    1301                      .dwpsn  file "../FreeRTOS/Demo/Common/Minimal/MessageBufferDemo.c",line 438,column 2,is_stmt
    1302              
    1303 000387 EC1C          AMAR *SP(#14), XAR0
         000389 8E   
    1304 00038a 3D04  ||      MOV #0, T0
    1305              
    1306              $C$DW$157       .dwtag  DW_TAG_TI_branch
    1307                      .dwattr $C$DW$157, DW_AT_low_pc(0x00)
    1308                      .dwattr $C$DW$157, DW_AT_name("_memset")
    1309                      .dwattr $C$DW$157, DW_AT_TI_call
    1310              
    1311 00038c 6C00          CALL #_memset ; |438| 
         00038e 0000!
    1312 000390 3DC5  ||      MOV #12, T1
    1313              
    1314                                                      ; call occurs [#_memset] ; |438| 
    1315                      .dwpsn  file "../FreeRTOS/Demo/Common/Minimal/MessageBufferDemo.c",line 439,column 2,is_stmt
    1316 000392 EC31          AMOV #$C$FSL6, XAR3 ; |439| 
TMS320C55x Assembler PC v4.4.1 Sat Sep 08 05:55:01 2018

Tools Copyright (c) 1996-2012 Texas Instruments Incorporated
MessageBufferDemo.asm                                                PAGE   29

         000394 BE00 
         000396 0064+
    1317 000398 EC1C          AMAR *SP(#14), XAR0
         00039a 8E   
    1318 00039b EB00          MOV XAR3, dbl(*SP(#0))
         00039d B5   
    1319 00039e A912          MOV *SP(#9), AR1 ; |439| 
    1320 0003a0 C904          MOV AR1, *SP(#2) ; |439| 
    1321              $C$DW$158       .dwtag  DW_TAG_TI_branch
    1322                      .dwattr $C$DW$158, DW_AT_low_pc(0x00)
    1323                      .dwattr $C$DW$158, DW_AT_name("_sprintf")
    1324                      .dwattr $C$DW$158, DW_AT_TI_call
    1325 0003a2 6C00          CALL #_sprintf ; |439| 
         0003a4 0000!
    1326                                                      ; call occurs [#_sprintf] ; |439| 
    1327                      .dwpsn  file "../FreeRTOS/Demo/Common/Minimal/MessageBufferDemo.c",line 440,column 2,is_stmt
    1328 0003a6 EC1C          AMAR *SP(#14), XAR0
         0003a8 8E   
    1329              $C$DW$159       .dwtag  DW_TAG_TI_branch
    1330                      .dwattr $C$DW$159, DW_AT_low_pc(0x00)
    1331                      .dwattr $C$DW$159, DW_AT_name("_strlen")
    1332                      .dwattr $C$DW$159, DW_AT_TI_call
    1333 0003a9 6C00          CALL #_strlen ; |440| 
         0003ab 0000!
    1334                                                      ; call occurs [#_strlen] ; |440| 
    1335 0003ad C414          MOV T0, *SP(#10) ; |440| 
    1336 0003af       $C$L9:    
    1337 0003af       $C$DW$L$_prvNonBlockingSenderTask$2$B:
    1338                      .dwpsn  file "../FreeRTOS/Demo/Common/Minimal/MessageBufferDemo.c",line 446,column 3,is_stmt
    1339 0003af EC1C          AMAR *SP(#14), XAR0
         0003b1 8E   
    1340              $C$DW$160       .dwtag  DW_TAG_TI_branch
    1341                      .dwattr $C$DW$160, DW_AT_low_pc(0x00)
    1342                      .dwattr $C$DW$160, DW_AT_name("_strlen")
    1343                      .dwattr $C$DW$160, DW_AT_TI_call
    1344 0003b2 6C00          CALL #_strlen ; |446| 
         0003b4 0000!
    1345                                                      ; call occurs [#_strlen] ; |446| 
    1346 0003b6 EC1C          AMAR *SP(#14), XAR1
         0003b8 9E   
    1347 0003b9 ED0C          MOV dbl(*SP(#6)), XAR0
         0003bb 8F   
    1348              $C$DW$161       .dwtag  DW_TAG_TI_branch
    1349                      .dwattr $C$DW$161, DW_AT_low_pc(0x00)
    1350                      .dwattr $C$DW$161, DW_AT_name("_xStreamBufferSend")
    1351                      .dwattr $C$DW$161, DW_AT_TI_call
    1352              
    1353 0003bc 6C00          CALL #_xStreamBufferSend ; |446| 
         0003be 0000!
    1354 0003c0 3D05  ||      MOV #0, T1
    1355              
    1356                                                      ; call occurs [#_xStreamBufferSend] ; |446| 
    1357 0003c2 A914          MOV *SP(#10), AR1 ; |446| 
    1358 0003c4 124C          CMPU T0 != AR1, TC1 ; |446| 
         0003c6 94   
TMS320C55x Assembler PC v4.4.1 Sat Sep 08 05:55:01 2018

Tools Copyright (c) 1996-2012 Texas Instruments Incorporated
MessageBufferDemo.asm                                                PAGE   30

    1359 0003c7 0464          BCC $C$L9,TC1 ; |446| 
         0003c9 E5   
    1360                                                      ; branchcc occurs ; |446| 
    1361 0003ca       $C$DW$L$_prvNonBlockingSenderTask$2$E:
    1362 0003ca       $C$DW$L$_prvNonBlockingSenderTask$3$B:
    1363                      .dwpsn  file "../FreeRTOS/Demo/Common/Minimal/MessageBufferDemo.c",line 448,column 4,is_stmt
    1364 0003ca ED10          MOV dbl(*SP(#8)), AC0 ; |448| 
         0003cc 08   
    1365 0003cd 4010          ADD #1, AC0 ; |448| 
    1366 0003cf EB10          MOV AC0, dbl(*SP(#8)) ; |448| 
         0003d1 08   
    1367                      .dwpsn  file "../FreeRTOS/Demo/Common/Minimal/MessageBufferDemo.c",line 450,column 4,is_stmt
    1368 0003d2 ED10          MOV dbl(*SP(#8)), AC1 ; |450| 
         0003d4 18   
    1369 0003d5 ED18          MOV dbl(*SP(#12)), AC0 ; |450| 
         0003d7 08   
    1370 0003d8 1208          CMP AC1 <= AC0, TC1 ; |450| 
         0003da 10   
    1371 0003db 62E4          BCC $C$L10,TC1 ; |450| 
    1372                                                      ; branchcc occurs ; |450| 
    1373 0003dd       $C$DW$L$_prvNonBlockingSenderTask$3$E:
    1374 0003dd       $C$DW$L$_prvNonBlockingSenderTask$4$B:
    1375                      .dwpsn  file "../FreeRTOS/Demo/Common/Minimal/MessageBufferDemo.c",line 454,column 5,is_stmt
    1376 0003dd 3C00          MOV #0, AC0 ; |454| 
    1377 0003df EB10          MOV AC0, dbl(*SP(#8)) ; |454| 
         0003e1 08   
    1378 0003e2       $C$DW$L$_prvNonBlockingSenderTask$4$E:
    1379 0003e2       $C$L10:    
    1380 0003e2       $C$DW$L$_prvNonBlockingSenderTask$5$B:
    1381                      .dwpsn  file "../FreeRTOS/Demo/Common/Minimal/MessageBufferDemo.c",line 458,column 4,is_stmt
    1382              
    1383 0003e5 3D04          MOV #0, T0
    1384 0003e2 EC1C  ||      AMAR *SP(#14), XAR0
         0003e4 8E   
    1385              
    1386              $C$DW$162       .dwtag  DW_TAG_TI_branch
    1387                      .dwattr $C$DW$162, DW_AT_low_pc(0x00)
    1388                      .dwattr $C$DW$162, DW_AT_name("_memset")
    1389                      .dwattr $C$DW$162, DW_AT_TI_call
    1390              
    1391 0003e7 6C00          CALL #_memset ; |458| 
         0003e9 0000!
    1392 0003eb 3DC5  ||      MOV #12, T1
    1393              
    1394                                                      ; call occurs [#_memset] ; |458| 
    1395                      .dwpsn  file "../FreeRTOS/Demo/Common/Minimal/MessageBufferDemo.c",line 459,column 4,is_stmt
    1396 0003ed EC31          AMOV #$C$FSL6, XAR3 ; |459| 
         0003ef BE00 
         0003f1 0064+
    1397 0003f3 EB00          MOV XAR3, dbl(*SP(#0))
         0003f5 B5   
    1398 0003f6 EC1C          AMAR *SP(#14), XAR0
         0003f8 8E   
    1399 0003f9 A912          MOV *SP(#9), AR1 ; |459| 
    1400 0003fb C904          MOV AR1, *SP(#2) ; |459| 
TMS320C55x Assembler PC v4.4.1 Sat Sep 08 05:55:01 2018

Tools Copyright (c) 1996-2012 Texas Instruments Incorporated
MessageBufferDemo.asm                                                PAGE   31

    1401              $C$DW$163       .dwtag  DW_TAG_TI_branch
    1402                      .dwattr $C$DW$163, DW_AT_low_pc(0x00)
    1403                      .dwattr $C$DW$163, DW_AT_name("_sprintf")
    1404                      .dwattr $C$DW$163, DW_AT_TI_call
    1405 0003fd 6C00          CALL #_sprintf ; |459| 
         0003ff 0000!
    1406                                                      ; call occurs [#_sprintf] ; |459| 
    1407                      .dwpsn  file "../FreeRTOS/Demo/Common/Minimal/MessageBufferDemo.c",line 460,column 4,is_stmt
    1408 000401 EC1C          AMAR *SP(#14), XAR0
         000403 8E   
    1409              $C$DW$164       .dwtag  DW_TAG_TI_branch
    1410                      .dwattr $C$DW$164, DW_AT_low_pc(0x00)
    1411                      .dwattr $C$DW$164, DW_AT_name("_strlen")
    1412                      .dwattr $C$DW$164, DW_AT_TI_call
    1413 000404 6C00          CALL #_strlen ; |460| 
         000406 0000!
    1414                                                      ; call occurs [#_strlen] ; |460| 
    1415 000408 C414          MOV T0, *SP(#10) ; |460| 
    1416                      .dwpsn  file "../FreeRTOS/Demo/Common/Minimal/MessageBufferDemo.c",line 462,column 2,is_stmt
    1417 00040a 06FF          B $C$L9   ; |462| 
         00040c A2   
    1418                                                      ; branch occurs ; |462| 
    1419 00040d       $C$DW$L$_prvNonBlockingSenderTask$5$E:
    1420                      .dwcfi  cfa_offset, 1
    1421              
    1422              $C$DW$165       .dwtag  DW_TAG_TI_loop
    1423                      .dwattr $C$DW$165, DW_AT_name("F:\eZdsp_C55x_FreeRTOS_Port\eZDSP\eZDSP_5535_Files\ccsws2\test\Debug\M
    1424                      .dwattr $C$DW$165, DW_AT_TI_begin_file("../FreeRTOS/Demo/Common/Minimal/MessageBufferDemo.c")
    1425                      .dwattr $C$DW$165, DW_AT_TI_begin_line(0x1ba)
    1426                      .dwattr $C$DW$165, DW_AT_TI_end_line(0x1ce)
    1427              $C$DW$166       .dwtag  DW_TAG_TI_loop_range
    1428                      .dwattr $C$DW$166, DW_AT_low_pc($C$DW$L$_prvNonBlockingSenderTask$2$B)
    1429                      .dwattr $C$DW$166, DW_AT_high_pc($C$DW$L$_prvNonBlockingSenderTask$2$E)
    1430              $C$DW$167       .dwtag  DW_TAG_TI_loop_range
    1431                      .dwattr $C$DW$167, DW_AT_low_pc($C$DW$L$_prvNonBlockingSenderTask$3$B)
    1432                      .dwattr $C$DW$167, DW_AT_high_pc($C$DW$L$_prvNonBlockingSenderTask$3$E)
    1433              $C$DW$168       .dwtag  DW_TAG_TI_loop_range
    1434                      .dwattr $C$DW$168, DW_AT_low_pc($C$DW$L$_prvNonBlockingSenderTask$4$B)
    1435                      .dwattr $C$DW$168, DW_AT_high_pc($C$DW$L$_prvNonBlockingSenderTask$4$E)
    1436              $C$DW$169       .dwtag  DW_TAG_TI_loop_range
    1437                      .dwattr $C$DW$169, DW_AT_low_pc($C$DW$L$_prvNonBlockingSenderTask$5$B)
    1438                      .dwattr $C$DW$169, DW_AT_high_pc($C$DW$L$_prvNonBlockingSenderTask$5$E)
    1439                      .dwendtag $C$DW$165
    1440              
    1441                      .dwattr $C$DW$149, DW_AT_TI_end_file("../FreeRTOS/Demo/Common/Minimal/MessageBufferDemo.c")
    1442                      .dwattr $C$DW$149, DW_AT_TI_end_line(0x1cf)
    1443                      .dwattr $C$DW$149, DW_AT_TI_end_column(0x01)
    1444                      .dwendentry
    1445                      .dwendtag $C$DW$149
    1446              
    1447 00040d               .sect   ".text"
    1448                      .align 4
    1449              
    1450              $C$DW$170       .dwtag  DW_TAG_subprogram, DW_AT_name("prvNonBlockingReceiverTask")
    1451                      .dwattr $C$DW$170, DW_AT_low_pc(_prvNonBlockingReceiverTask)
TMS320C55x Assembler PC v4.4.1 Sat Sep 08 05:55:01 2018

Tools Copyright (c) 1996-2012 Texas Instruments Incorporated
MessageBufferDemo.asm                                                PAGE   32

    1452                      .dwattr $C$DW$170, DW_AT_high_pc(0x00)
    1453                      .dwattr $C$DW$170, DW_AT_TI_symbol_name("_prvNonBlockingReceiverTask")
    1454                      .dwattr $C$DW$170, DW_AT_TI_begin_file("../FreeRTOS/Demo/Common/Minimal/MessageBufferDemo.c")
    1455                      .dwattr $C$DW$170, DW_AT_TI_begin_line(0x1d2)
    1456                      .dwattr $C$DW$170, DW_AT_TI_begin_column(0x0d)
    1457                      .dwattr $C$DW$170, DW_AT_TI_max_frame_size(0x2a)
    1458                      .dwpsn  file "../FreeRTOS/Demo/Common/Minimal/MessageBufferDemo.c",line 467,column 1,is_stmt,address 
    1459              
    1460                      .dwfde $C$DW$CIE, _prvNonBlockingReceiverTask
    1461              $C$DW$171       .dwtag  DW_TAG_formal_parameter, DW_AT_name("pvParameters")
    1462                      .dwattr $C$DW$171, DW_AT_TI_symbol_name("_pvParameters")
    1463                      .dwattr $C$DW$171, DW_AT_type(*$C$DW$T$3)
    1464                      .dwattr $C$DW$171, DW_AT_location[DW_OP_reg17]
    1465              ;*******************************************************************************
    1466              ;* FUNCTION NAME: prvNonBlockingReceiverTask                                   *
    1467              ;*                                                                             *
    1468              ;*   Function Uses Regs : AC0,AC0,AC1,AC1,T0,T1,AR0,XAR0,AR1,XAR1,AR2,AR3,XAR3,*
    1469              ;*                        SP,CARRY,TC1,M40,SATA,SATD,RDM,FRCT,SMUL             *
    1470              ;*   Stack Frame        : Compact (No Frame Pointer, w/ debug)                 *
    1471              ;*   Total Frame Size   : 42 words                                             *
    1472              ;*                        (2 return address/alignment)                         *
    1473              ;*                        (3 function parameters)                              *
    1474              ;*                        (37 local values)                                    *
    1475              ;*   Min System Stack   : 1 word                                               *
    1476              ;*******************************************************************************
    1477 000410       _prvNonBlockingReceiverTask:
    1478                      .dwcfi  cfa_offset, 1
    1479                      .dwcfi  save_reg_to_mem, 91, -1
    1480 000410 4ED7          AADD #-41, SP
    1481                      .dwcfi  cfa_offset, 42
    1482              $C$DW$172       .dwtag  DW_TAG_variable, DW_AT_name("pvParameters")
    1483                      .dwattr $C$DW$172, DW_AT_TI_symbol_name("_pvParameters")
    1484                      .dwattr $C$DW$172, DW_AT_type(*$C$DW$T$3)
    1485                      .dwattr $C$DW$172, DW_AT_location[DW_OP_bregx 0x24 4]
    1486              $C$DW$173       .dwtag  DW_TAG_variable, DW_AT_name("xMessageBuffer")
    1487                      .dwattr $C$DW$173, DW_AT_TI_symbol_name("_xMessageBuffer")
    1488                      .dwattr $C$DW$173, DW_AT_type(*$C$DW$T$21)
    1489                      .dwattr $C$DW$173, DW_AT_location[DW_OP_bregx 0x24 6]
    1490              $C$DW$174       .dwtag  DW_TAG_variable, DW_AT_name("xNonBlockingReceiveError")
    1491                      .dwattr $C$DW$174, DW_AT_TI_symbol_name("_xNonBlockingReceiveError")
    1492                      .dwattr $C$DW$174, DW_AT_type(*$C$DW$T$28)
    1493                      .dwattr $C$DW$174, DW_AT_location[DW_OP_bregx 0x24 8]
    1494              $C$DW$175       .dwtag  DW_TAG_variable, DW_AT_name("iDataToSend")
    1495                      .dwattr $C$DW$175, DW_AT_TI_symbol_name("_iDataToSend")
    1496                      .dwattr $C$DW$175, DW_AT_type(*$C$DW$T$94)
    1497                      .dwattr $C$DW$175, DW_AT_location[DW_OP_bregx 0x24 10]
    1498              $C$DW$176       .dwtag  DW_TAG_variable, DW_AT_name("xStringLength")
    1499                      .dwattr $C$DW$176, DW_AT_TI_symbol_name("_xStringLength")
    1500                      .dwattr $C$DW$176, DW_AT_type(*$C$DW$T$27)
    1501                      .dwattr $C$DW$176, DW_AT_location[DW_OP_bregx 0x24 12]
    1502              $C$DW$177       .dwtag  DW_TAG_variable, DW_AT_name("xReceiveLength")
    1503                      .dwattr $C$DW$177, DW_AT_TI_symbol_name("_xReceiveLength")
    1504                      .dwattr $C$DW$177, DW_AT_type(*$C$DW$T$27)
    1505                      .dwattr $C$DW$177, DW_AT_location[DW_OP_bregx 0x24 13]
    1506              $C$DW$178       .dwtag  DW_TAG_variable, DW_AT_name("iMaxValue")
TMS320C55x Assembler PC v4.4.1 Sat Sep 08 05:55:01 2018

Tools Copyright (c) 1996-2012 Texas Instruments Incorporated
MessageBufferDemo.asm                                                PAGE   33

    1507                      .dwattr $C$DW$178, DW_AT_TI_symbol_name("_iMaxValue")
    1508                      .dwattr $C$DW$178, DW_AT_type(*$C$DW$T$95)
    1509                      .dwattr $C$DW$178, DW_AT_location[DW_OP_bregx 0x24 14]
    1510              $C$DW$179       .dwtag  DW_TAG_variable, DW_AT_name("cExpectedString")
    1511                      .dwattr $C$DW$179, DW_AT_TI_symbol_name("_cExpectedString")
    1512                      .dwattr $C$DW$179, DW_AT_type(*$C$DW$T$99)
    1513                      .dwattr $C$DW$179, DW_AT_location[DW_OP_bregx 0x24 16]
    1514              $C$DW$180       .dwtag  DW_TAG_variable, DW_AT_name("cRxString")
    1515                      .dwattr $C$DW$180, DW_AT_TI_symbol_name("_cRxString")
    1516                      .dwattr $C$DW$180, DW_AT_type(*$C$DW$T$99)
    1517                      .dwattr $C$DW$180, DW_AT_location[DW_OP_bregx 0x24 28]
    1518 000412 EB08          MOV XAR0, dbl(*SP(#4))
         000414 85   
    1519                      .dwpsn  file "../FreeRTOS/Demo/Common/Minimal/MessageBufferDemo.c",line 469,column 12,is_stmt
    1520 000415 E610          MOV #0, *SP(#8) ; |469| 
         000417 00   
    1521                      .dwpsn  file "../FreeRTOS/Demo/Common/Minimal/MessageBufferDemo.c",line 470,column 9,is_stmt
    1522 000418 3C00          MOV #0, AC0 ; |470| 
    1523 00041a EB14          MOV AC0, dbl(*SP(#10)) ; |470| 
         00041c 08   
    1524                      .dwpsn  file "../FreeRTOS/Demo/Common/Minimal/MessageBufferDemo.c",line 472,column 15,is_stmt
    1525 00041d 7605          MOV #1500, AC0 ; |472| 
         00041f DC08 
    1526 000421 EB1C          MOV AC0, dbl(*SP(#14)) ; |472| 
         000423 08   
    1527                      .dwpsn  file "../FreeRTOS/Demo/Common/Minimal/MessageBufferDemo.c",line 478,column 2,is_stmt
    1528 000424 ED08          MOV dbl(*SP(#4)), XAR3
         000426 BF   
    1529 000427 EB0C          MOV XAR3, dbl(*SP(#6))
         000429 B5   
    1530                      .dwpsn  file "../FreeRTOS/Demo/Common/Minimal/MessageBufferDemo.c",line 484,column 2,is_stmt
    1531              
    1532 00042a EC20          AMAR *SP(#16), XAR0
         00042c 8E   
    1533 00042d 3D04  ||      MOV #0, T0
    1534              
    1535              $C$DW$181       .dwtag  DW_TAG_TI_branch
    1536                      .dwattr $C$DW$181, DW_AT_low_pc(0x00)
    1537                      .dwattr $C$DW$181, DW_AT_name("_memset")
    1538                      .dwattr $C$DW$181, DW_AT_TI_call
    1539              
    1540 00042f 6C00          CALL #_memset ; |484| 
         000431 0000!
    1541 000433 3DC5  ||      MOV #12, T1
    1542              
    1543                                                      ; call occurs [#_memset] ; |484| 
    1544                      .dwpsn  file "../FreeRTOS/Demo/Common/Minimal/MessageBufferDemo.c",line 485,column 2,is_stmt
    1545              
    1546 000435 EC38          AMAR *SP(#28), XAR0
         000437 8E   
    1547 000438 3D04  ||      MOV #0, T0
    1548              
    1549              $C$DW$182       .dwtag  DW_TAG_TI_branch
    1550                      .dwattr $C$DW$182, DW_AT_low_pc(0x00)
    1551                      .dwattr $C$DW$182, DW_AT_name("_memset")
TMS320C55x Assembler PC v4.4.1 Sat Sep 08 05:55:01 2018

Tools Copyright (c) 1996-2012 Texas Instruments Incorporated
MessageBufferDemo.asm                                                PAGE   34

    1552                      .dwattr $C$DW$182, DW_AT_TI_call
    1553              
    1554 00043a 6C00          CALL #_memset ; |485| 
         00043c 0000!
    1555 00043e 3DC5  ||      MOV #12, T1
    1556              
    1557                                                      ; call occurs [#_memset] ; |485| 
    1558                      .dwpsn  file "../FreeRTOS/Demo/Common/Minimal/MessageBufferDemo.c",line 486,column 2,is_stmt
    1559 000440 EC20          AMAR *SP(#16), XAR0
         000442 8E   
    1560 000443 EC31          AMOV #$C$FSL6, XAR3 ; |486| 
         000445 BE00 
         000447 0064+
    1561 000449 EB00          MOV XAR3, dbl(*SP(#0))
         00044b B5   
    1562 00044c A916          MOV *SP(#11), AR1 ; |486| 
    1563 00044e C904          MOV AR1, *SP(#2) ; |486| 
    1564              $C$DW$183       .dwtag  DW_TAG_TI_branch
    1565                      .dwattr $C$DW$183, DW_AT_low_pc(0x00)
    1566                      .dwattr $C$DW$183, DW_AT_name("_sprintf")
    1567                      .dwattr $C$DW$183, DW_AT_TI_call
    1568 000450 6C00          CALL #_sprintf ; |486| 
         000452 0000!
    1569                                                      ; call occurs [#_sprintf] ; |486| 
    1570                      .dwpsn  file "../FreeRTOS/Demo/Common/Minimal/MessageBufferDemo.c",line 487,column 2,is_stmt
    1571 000454 EC20          AMAR *SP(#16), XAR0
         000456 8E   
    1572              $C$DW$184       .dwtag  DW_TAG_TI_branch
    1573                      .dwattr $C$DW$184, DW_AT_low_pc(0x00)
    1574                      .dwattr $C$DW$184, DW_AT_name("_strlen")
    1575                      .dwattr $C$DW$184, DW_AT_TI_call
    1576 000457 6C00          CALL #_strlen ; |487| 
         000459 0000!
    1577                                                      ; call occurs [#_strlen] ; |487| 
    1578 00045b C418          MOV T0, *SP(#12) ; |487| 
    1579 00045d       $C$L11:    
    1580 00045d       $C$DW$L$_prvNonBlockingReceiverTask$2$B:
    1581                      .dwpsn  file "../FreeRTOS/Demo/Common/Minimal/MessageBufferDemo.c",line 493,column 3,is_stmt
    1582 00045d ED0C          MOV dbl(*SP(#6)), XAR0
         00045f 8F   
    1583              
    1584 000463 3DC4          MOV #12, T0
    1585 000460 EC38  ||      AMAR *SP(#28), XAR1
         000462 9E   
    1586              
    1587              $C$DW$185       .dwtag  DW_TAG_TI_branch
    1588                      .dwattr $C$DW$185, DW_AT_low_pc(0x00)
    1589                      .dwattr $C$DW$185, DW_AT_name("_xStreamBufferReceive")
    1590                      .dwattr $C$DW$185, DW_AT_TI_call
    1591              
    1592 000465 6C00          CALL #_xStreamBufferReceive ; |493| 
         000467 0000!
    1593 000469 3D05  ||      MOV #0, T1
    1594              
    1595                                                      ; call occurs [#_xStreamBufferReceive] ; |493| 
TMS320C55x Assembler PC v4.4.1 Sat Sep 08 05:55:01 2018

Tools Copyright (c) 1996-2012 Texas Instruments Incorporated
MessageBufferDemo.asm                                                PAGE   35

    1596 00046b C41A          MOV T0, *SP(#13) ; |493| 
    1597                      .dwpsn  file "../FreeRTOS/Demo/Common/Minimal/MessageBufferDemo.c",line 497,column 3,is_stmt
    1598 00046d 2249          MOV T0, AR1
    1599 00046f 6609          BCC $C$L12,AR1 == #0 ; |497| 
    1600                                                      ; branchcc occurs ; |497| 
    1601 000471       $C$DW$L$_prvNonBlockingReceiverTask$2$E:
    1602 000471       $C$DW$L$_prvNonBlockingReceiverTask$3$B:
    1603              
    1604 000473 234A          MOV T0, AR2 ; |497| 
    1605 000471 A918  ||      MOV *SP(#12), AR1 ; |497| 
    1606              
    1607 000475 12A0          CMPU AR2 == AR1, TC1 ; |497| 
         000477 94   
    1608 000478 61E4          BCC $C$L12,TC1 ; |497| 
    1609                                                      ; branchcc occurs ; |497| 
    1610 00047a       $C$DW$L$_prvNonBlockingReceiverTask$3$E:
    1611 00047a       $C$DW$L$_prvNonBlockingReceiverTask$4$B:
    1612                      .dwpsn  file "../FreeRTOS/Demo/Common/Minimal/MessageBufferDemo.c",line 499,column 4,is_stmt
    1613 00047a E610          MOV #1, *SP(#8) ; |499| 
         00047c 01   
    1614 00047d       $C$DW$L$_prvNonBlockingReceiverTask$4$E:
    1615 00047d       $C$L12:    
    1616 00047d       $C$DW$L$_prvNonBlockingReceiverTask$5$B:
    1617                      .dwpsn  file "../FreeRTOS/Demo/Common/Minimal/MessageBufferDemo.c",line 502,column 3,is_stmt
    1618 00047d A918          MOV *SP(#12), AR1 ; |502| 
    1619 00047f AA1A          MOV *SP(#13), AR2 ; |502| 
    1620 000481 12AC          CMPU AR2 != AR1, TC1 ; |502| 
         000483 94   
    1621 000484 0464          BCC $C$L11,TC1 ; |502| 
         000486 D6   
    1622                                                      ; branchcc occurs ; |502| 
    1623 000487       $C$DW$L$_prvNonBlockingReceiverTask$5$E:
    1624 000487       $C$DW$L$_prvNonBlockingReceiverTask$6$B:
    1625                      .dwpsn  file "../FreeRTOS/Demo/Common/Minimal/MessageBufferDemo.c",line 506,column 4,is_stmt
    1626 000487 EC38          AMAR *SP(#28), XAR0
         000489 8E   
    1627 00048a EC20          AMAR *SP(#16), XAR1
         00048c 9E   
    1628              $C$DW$186       .dwtag  DW_TAG_TI_branch
    1629                      .dwattr $C$DW$186, DW_AT_low_pc(0x00)
    1630                      .dwattr $C$DW$186, DW_AT_name("_strcmp")
    1631                      .dwattr $C$DW$186, DW_AT_TI_call
    1632 00048d 6C00          CALL #_strcmp ; |506| 
         00048f 0000!
    1633                                                      ; call occurs [#_strcmp] ; |506| 
    1634 000491 6184          BCC $C$L13,T0 == #0 ; |506| 
    1635                                                      ; branchcc occurs ; |506| 
    1636 000493       $C$DW$L$_prvNonBlockingReceiverTask$6$E:
    1637 000493       $C$DW$L$_prvNonBlockingReceiverTask$7$B:
    1638                      .dwpsn  file "../FreeRTOS/Demo/Common/Minimal/MessageBufferDemo.c",line 508,column 5,is_stmt
    1639 000493 E610          MOV #1, *SP(#8) ; |508| 
         000495 01   
    1640 000496       $C$DW$L$_prvNonBlockingReceiverTask$7$E:
    1641 000496       $C$L13:    
    1642 000496       $C$DW$L$_prvNonBlockingReceiverTask$8$B:
TMS320C55x Assembler PC v4.4.1 Sat Sep 08 05:55:01 2018

Tools Copyright (c) 1996-2012 Texas Instruments Incorporated
MessageBufferDemo.asm                                                PAGE   36

    1643                      .dwpsn  file "../FreeRTOS/Demo/Common/Minimal/MessageBufferDemo.c",line 511,column 4,is_stmt
    1644 000496 ED14          MOV dbl(*SP(#10)), AC0 ; |511| 
         000498 08   
    1645 000499 4010          ADD #1, AC0 ; |511| 
    1646 00049b EB14          MOV AC0, dbl(*SP(#10)) ; |511| 
         00049d 08   
    1647                      .dwpsn  file "../FreeRTOS/Demo/Common/Minimal/MessageBufferDemo.c",line 513,column 4,is_stmt
    1648 00049e ED14          MOV dbl(*SP(#10)), AC1 ; |513| 
         0004a0 18   
    1649 0004a1 ED1C          MOV dbl(*SP(#14)), AC0 ; |513| 
         0004a3 08   
    1650 0004a4 1208          CMP AC1 <= AC0, TC1 ; |513| 
         0004a6 10   
    1651 0004a7 62E4          BCC $C$L14,TC1 ; |513| 
    1652                                                      ; branchcc occurs ; |513| 
    1653 0004a9       $C$DW$L$_prvNonBlockingReceiverTask$8$E:
    1654 0004a9       $C$DW$L$_prvNonBlockingReceiverTask$9$B:
    1655                      .dwpsn  file "../FreeRTOS/Demo/Common/Minimal/MessageBufferDemo.c",line 517,column 5,is_stmt
    1656 0004a9 3C00          MOV #0, AC0 ; |517| 
    1657 0004ab EB14          MOV AC0, dbl(*SP(#10)) ; |517| 
         0004ad 08   
    1658 0004ae       $C$DW$L$_prvNonBlockingReceiverTask$9$E:
    1659 0004ae       $C$L14:    
    1660 0004ae       $C$DW$L$_prvNonBlockingReceiverTask$10$B:
    1661                      .dwpsn  file "../FreeRTOS/Demo/Common/Minimal/MessageBufferDemo.c",line 520,column 4,is_stmt
    1662              
    1663 0004b1 3D04          MOV #0, T0
    1664 0004ae EC20  ||      AMAR *SP(#16), XAR0
         0004b0 8E   
    1665              
    1666              $C$DW$187       .dwtag  DW_TAG_TI_branch
    1667                      .dwattr $C$DW$187, DW_AT_low_pc(0x00)
    1668                      .dwattr $C$DW$187, DW_AT_name("_memset")
    1669                      .dwattr $C$DW$187, DW_AT_TI_call
    1670              
    1671 0004b3 6C00          CALL #_memset ; |520| 
         0004b5 0000!
    1672 0004b7 3DC5  ||      MOV #12, T1
    1673              
    1674                                                      ; call occurs [#_memset] ; |520| 
    1675                      .dwpsn  file "../FreeRTOS/Demo/Common/Minimal/MessageBufferDemo.c",line 521,column 4,is_stmt
    1676              
    1677 0004b9 EC38          AMAR *SP(#28), XAR0
         0004bb 8E   
    1678 0004bc 3D04  ||      MOV #0, T0
    1679              
    1680              $C$DW$188       .dwtag  DW_TAG_TI_branch
    1681                      .dwattr $C$DW$188, DW_AT_low_pc(0x00)
    1682                      .dwattr $C$DW$188, DW_AT_name("_memset")
    1683                      .dwattr $C$DW$188, DW_AT_TI_call
    1684              
    1685 0004be 6C00          CALL #_memset ; |521| 
         0004c0 0000!
    1686 0004c2 3DC5  ||      MOV #12, T1
    1687              
TMS320C55x Assembler PC v4.4.1 Sat Sep 08 05:55:01 2018

Tools Copyright (c) 1996-2012 Texas Instruments Incorporated
MessageBufferDemo.asm                                                PAGE   37

    1688                                                      ; call occurs [#_memset] ; |521| 
    1689                      .dwpsn  file "../FreeRTOS/Demo/Common/Minimal/MessageBufferDemo.c",line 522,column 4,is_stmt
    1690 0004c4 EC31          AMOV #$C$FSL6, XAR3 ; |522| 
         0004c6 BE00 
         0004c8 0064+
    1691 0004ca EC20          AMAR *SP(#16), XAR0
         0004cc 8E   
    1692 0004cd EB00          MOV XAR3, dbl(*SP(#0))
         0004cf B5   
    1693 0004d0 A916          MOV *SP(#11), AR1 ; |522| 
    1694 0004d2 C904          MOV AR1, *SP(#2) ; |522| 
    1695              $C$DW$189       .dwtag  DW_TAG_TI_branch
    1696                      .dwattr $C$DW$189, DW_AT_low_pc(0x00)
    1697                      .dwattr $C$DW$189, DW_AT_name("_sprintf")
    1698                      .dwattr $C$DW$189, DW_AT_TI_call
    1699 0004d4 6C00          CALL #_sprintf ; |522| 
         0004d6 0000!
    1700                                                      ; call occurs [#_sprintf] ; |522| 
    1701                      .dwpsn  file "../FreeRTOS/Demo/Common/Minimal/MessageBufferDemo.c",line 523,column 4,is_stmt
    1702 0004d8 EC20          AMAR *SP(#16), XAR0
         0004da 8E   
    1703              $C$DW$190       .dwtag  DW_TAG_TI_branch
    1704                      .dwattr $C$DW$190, DW_AT_low_pc(0x00)
    1705                      .dwattr $C$DW$190, DW_AT_name("_strlen")
    1706                      .dwattr $C$DW$190, DW_AT_TI_call
    1707 0004db 6C00          CALL #_strlen ; |523| 
         0004dd 0000!
    1708                                                      ; call occurs [#_strlen] ; |523| 
    1709 0004df C418          MOV T0, *SP(#12) ; |523| 
    1710                      .dwpsn  file "../FreeRTOS/Demo/Common/Minimal/MessageBufferDemo.c",line 525,column 4,is_stmt
    1711 0004e1 A910          MOV *SP(#8), AR1 ; |525| 
    1712 0004e3 6D19          BCC $C$L11,AR1 != #0 ; |525| 
         0004e5 FF76 
    1713                                                      ; branchcc occurs ; |525| 
    1714 0004e7       $C$DW$L$_prvNonBlockingReceiverTask$10$E:
    1715 0004e7       $C$DW$L$_prvNonBlockingReceiverTask$11$B:
    1716                      .dwpsn  file "../FreeRTOS/Demo/Common/Minimal/MessageBufferDemo.c",line 529,column 5,is_stmt
    1717 0004e7 ED31          MOV dbl(*(#_ulNonBlockingRxCounter)), AC0 ; |529| 
         0004e9 0800 
         0004eb 0004-
    1718 0004ed 4010          ADD #1, AC0 ; |529| 
    1719 0004ef EB31          MOV AC0, dbl(*(#_ulNonBlockingRxCounter)) ; |529| 
         0004f1 0800 
         0004f3 0004-
    1720                      .dwpsn  file "../FreeRTOS/Demo/Common/Minimal/MessageBufferDemo.c",line 532,column 2,is_stmt
    1721 0004f5 06FF          B $C$L11  ; |532| 
         0004f7 65   
    1722                                                      ; branch occurs ; |532| 
    1723 0004f8       $C$DW$L$_prvNonBlockingReceiverTask$11$E:
    1724                      .dwcfi  cfa_offset, 1
    1725              
    1726              $C$DW$191       .dwtag  DW_TAG_TI_loop
    1727                      .dwattr $C$DW$191, DW_AT_name("F:\eZdsp_C55x_FreeRTOS_Port\eZDSP\eZDSP_5535_Files\ccsws2\test\Debug\M
    1728                      .dwattr $C$DW$191, DW_AT_TI_begin_file("../FreeRTOS/Demo/Common/Minimal/MessageBufferDemo.c")
    1729                      .dwattr $C$DW$191, DW_AT_TI_begin_line(0x1e9)
TMS320C55x Assembler PC v4.4.1 Sat Sep 08 05:55:01 2018

Tools Copyright (c) 1996-2012 Texas Instruments Incorporated
MessageBufferDemo.asm                                                PAGE   38

    1730                      .dwattr $C$DW$191, DW_AT_TI_end_line(0x214)
    1731              $C$DW$192       .dwtag  DW_TAG_TI_loop_range
    1732                      .dwattr $C$DW$192, DW_AT_low_pc($C$DW$L$_prvNonBlockingReceiverTask$2$B)
    1733                      .dwattr $C$DW$192, DW_AT_high_pc($C$DW$L$_prvNonBlockingReceiverTask$2$E)
    1734              $C$DW$193       .dwtag  DW_TAG_TI_loop_range
    1735                      .dwattr $C$DW$193, DW_AT_low_pc($C$DW$L$_prvNonBlockingReceiverTask$6$B)
    1736                      .dwattr $C$DW$193, DW_AT_high_pc($C$DW$L$_prvNonBlockingReceiverTask$6$E)
    1737              $C$DW$194       .dwtag  DW_TAG_TI_loop_range
    1738                      .dwattr $C$DW$194, DW_AT_low_pc($C$DW$L$_prvNonBlockingReceiverTask$7$B)
    1739                      .dwattr $C$DW$194, DW_AT_high_pc($C$DW$L$_prvNonBlockingReceiverTask$7$E)
    1740              $C$DW$195       .dwtag  DW_TAG_TI_loop_range
    1741                      .dwattr $C$DW$195, DW_AT_low_pc($C$DW$L$_prvNonBlockingReceiverTask$8$B)
    1742                      .dwattr $C$DW$195, DW_AT_high_pc($C$DW$L$_prvNonBlockingReceiverTask$8$E)
    1743              $C$DW$196       .dwtag  DW_TAG_TI_loop_range
    1744                      .dwattr $C$DW$196, DW_AT_low_pc($C$DW$L$_prvNonBlockingReceiverTask$9$B)
    1745                      .dwattr $C$DW$196, DW_AT_high_pc($C$DW$L$_prvNonBlockingReceiverTask$9$E)
    1746              $C$DW$197       .dwtag  DW_TAG_TI_loop_range
    1747                      .dwattr $C$DW$197, DW_AT_low_pc($C$DW$L$_prvNonBlockingReceiverTask$3$B)
    1748                      .dwattr $C$DW$197, DW_AT_high_pc($C$DW$L$_prvNonBlockingReceiverTask$3$E)
    1749              $C$DW$198       .dwtag  DW_TAG_TI_loop_range
    1750                      .dwattr $C$DW$198, DW_AT_low_pc($C$DW$L$_prvNonBlockingReceiverTask$4$B)
    1751                      .dwattr $C$DW$198, DW_AT_high_pc($C$DW$L$_prvNonBlockingReceiverTask$4$E)
    1752              $C$DW$199       .dwtag  DW_TAG_TI_loop_range
    1753                      .dwattr $C$DW$199, DW_AT_low_pc($C$DW$L$_prvNonBlockingReceiverTask$11$B)
    1754                      .dwattr $C$DW$199, DW_AT_high_pc($C$DW$L$_prvNonBlockingReceiverTask$11$E)
    1755              $C$DW$200       .dwtag  DW_TAG_TI_loop_range
    1756                      .dwattr $C$DW$200, DW_AT_low_pc($C$DW$L$_prvNonBlockingReceiverTask$10$B)
    1757                      .dwattr $C$DW$200, DW_AT_high_pc($C$DW$L$_prvNonBlockingReceiverTask$10$E)
    1758              $C$DW$201       .dwtag  DW_TAG_TI_loop_range
    1759                      .dwattr $C$DW$201, DW_AT_low_pc($C$DW$L$_prvNonBlockingReceiverTask$5$B)
    1760                      .dwattr $C$DW$201, DW_AT_high_pc($C$DW$L$_prvNonBlockingReceiverTask$5$E)
    1761                      .dwendtag $C$DW$191
    1762              
    1763                      .dwattr $C$DW$170, DW_AT_TI_end_file("../FreeRTOS/Demo/Common/Minimal/MessageBufferDemo.c")
    1764                      .dwattr $C$DW$170, DW_AT_TI_end_line(0x215)
    1765                      .dwattr $C$DW$170, DW_AT_TI_end_column(0x01)
    1766                      .dwendentry
    1767                      .dwendtag $C$DW$170
    1768              
    1769 0004f8               .sect   ".text"
    1770                      .align 4
    1771              
    1772              $C$DW$202       .dwtag  DW_TAG_subprogram, DW_AT_name("prvEchoClient")
    1773                      .dwattr $C$DW$202, DW_AT_low_pc(_prvEchoClient)
    1774                      .dwattr $C$DW$202, DW_AT_high_pc(0x00)
    1775                      .dwattr $C$DW$202, DW_AT_TI_symbol_name("_prvEchoClient")
    1776                      .dwattr $C$DW$202, DW_AT_TI_begin_file("../FreeRTOS/Demo/Common/Minimal/MessageBufferDemo.c")
    1777                      .dwattr $C$DW$202, DW_AT_TI_begin_line(0x28c)
    1778                      .dwattr $C$DW$202, DW_AT_TI_begin_column(0x0d)
    1779                      .dwattr $C$DW$202, DW_AT_TI_max_frame_size(0x10)
    1780                      .dwpsn  file "../FreeRTOS/Demo/Common/Minimal/MessageBufferDemo.c",line 653,column 1,is_stmt,address 
    1781              
    1782                      .dwfde $C$DW$CIE, _prvEchoClient
    1783              $C$DW$203       .dwtag  DW_TAG_formal_parameter, DW_AT_name("pvParameters")
    1784                      .dwattr $C$DW$203, DW_AT_TI_symbol_name("_pvParameters")
TMS320C55x Assembler PC v4.4.1 Sat Sep 08 05:55:01 2018

Tools Copyright (c) 1996-2012 Texas Instruments Incorporated
MessageBufferDemo.asm                                                PAGE   39

    1785                      .dwattr $C$DW$203, DW_AT_type(*$C$DW$T$3)
    1786                      .dwattr $C$DW$203, DW_AT_location[DW_OP_reg17]
    1787              ;*******************************************************************************
    1788              ;* FUNCTION NAME: prvEchoClient                                                *
    1789              ;*                                                                             *
    1790              ;*   Function Uses Regs : AC0,AC1,AC1,T0,T1,T2,AR0,XAR0,AR1,XAR1,AR2,AR3,XAR3, *
    1791              ;*                        SP,CARRY,TC1,M40,SATA,SATD,RDM,FRCT,SMUL             *
    1792              ;*   Save On Entry Regs : T2                                                   *
    1793              ;*   Stack Frame        : Compact (No Frame Pointer, w/ debug)                 *
    1794              ;*   Total Frame Size   : 16 words                                             *
    1795              ;*                        (1 return address/alignment)                         *
    1796              ;*                        (14 local values)                                    *
    1797              ;*                        (1 register save area)                               *
    1798              ;*   Min System Stack   : 1 word                                               *
    1799              ;*******************************************************************************
    1800 0004f8       _prvEchoClient:
    1801                      .dwcfi  cfa_offset, 1
    1802                      .dwcfi  save_reg_to_mem, 91, -1
    1803 0004f8 5066          PSH T2
    1804                      .dwcfi  cfa_offset, 2
    1805                      .dwcfi  save_reg_to_mem, 14, -2
    1806 0004fa 4EF2          AADD #-14, SP
    1807                      .dwcfi  cfa_offset, 16
    1808              $C$DW$204       .dwtag  DW_TAG_variable, DW_AT_name("pvParameters")
    1809                      .dwattr $C$DW$204, DW_AT_TI_symbol_name("_pvParameters")
    1810                      .dwattr $C$DW$204, DW_AT_type(*$C$DW$T$3)
    1811                      .dwattr $C$DW$204, DW_AT_location[DW_OP_bregx 0x24 0]
    1812              $C$DW$205       .dwtag  DW_TAG_variable, DW_AT_name("xSendLength")
    1813                      .dwattr $C$DW$205, DW_AT_TI_symbol_name("_xSendLength")
    1814                      .dwattr $C$DW$205, DW_AT_type(*$C$DW$T$27)
    1815                      .dwattr $C$DW$205, DW_AT_location[DW_OP_bregx 0x24 2]
    1816              $C$DW$206       .dwtag  DW_TAG_variable, DW_AT_name("ux")
    1817                      .dwattr $C$DW$206, DW_AT_TI_symbol_name("_ux")
    1818                      .dwattr $C$DW$206, DW_AT_type(*$C$DW$T$27)
    1819                      .dwattr $C$DW$206, DW_AT_location[DW_OP_bregx 0x24 3]
    1820              $C$DW$207       .dwtag  DW_TAG_variable, DW_AT_name("pcStringToSend")
    1821                      .dwattr $C$DW$207, DW_AT_TI_symbol_name("_pcStringToSend")
    1822                      .dwattr $C$DW$207, DW_AT_type(*$C$DW$T$71)
    1823                      .dwattr $C$DW$207, DW_AT_location[DW_OP_bregx 0x24 4]
    1824              $C$DW$208       .dwtag  DW_TAG_variable, DW_AT_name("pcStringReceived")
    1825                      .dwattr $C$DW$208, DW_AT_TI_symbol_name("_pcStringReceived")
    1826                      .dwattr $C$DW$208, DW_AT_type(*$C$DW$T$71)
    1827                      .dwattr $C$DW$208, DW_AT_location[DW_OP_bregx 0x24 6]
    1828              $C$DW$209       .dwtag  DW_TAG_variable, DW_AT_name("cNextChar")
    1829                      .dwattr $C$DW$209, DW_AT_TI_symbol_name("_cNextChar")
    1830                      .dwattr $C$DW$209, DW_AT_type(*$C$DW$T$54)
    1831                      .dwattr $C$DW$209, DW_AT_location[DW_OP_bregx 0x24 8]
    1832              $C$DW$210       .dwtag  DW_TAG_variable, DW_AT_name("xTicksToWait")
    1833                      .dwattr $C$DW$210, DW_AT_TI_symbol_name("_xTicksToWait")
    1834                      .dwattr $C$DW$210, DW_AT_type(*$C$DW$T$77)
    1835                      .dwattr $C$DW$210, DW_AT_location[DW_OP_bregx 0x24 9]
    1836              $C$DW$211       .dwtag  DW_TAG_variable, DW_AT_name("uxIndex")
    1837                      .dwattr $C$DW$211, DW_AT_TI_symbol_name("_uxIndex")
    1838                      .dwattr $C$DW$211, DW_AT_type(*$C$DW$T$41)
    1839                      .dwattr $C$DW$211, DW_AT_location[DW_OP_bregx 0x24 10]
TMS320C55x Assembler PC v4.4.1 Sat Sep 08 05:55:01 2018

Tools Copyright (c) 1996-2012 Texas Instruments Incorporated
MessageBufferDemo.asm                                                PAGE   40

    1840              $C$DW$212       .dwtag  DW_TAG_variable, DW_AT_name("pxMessageBuffers")
    1841                      .dwattr $C$DW$212, DW_AT_TI_symbol_name("_pxMessageBuffers")
    1842                      .dwattr $C$DW$212, DW_AT_type(*$C$DW$T$24)
    1843                      .dwattr $C$DW$212, DW_AT_location[DW_OP_bregx 0x24 12]
    1844 0004fc EB00          MOV XAR0, dbl(*SP(#0))
         0004fe 85   
    1845                      .dwpsn  file "../FreeRTOS/Demo/Common/Minimal/MessageBufferDemo.c",line 654,column 8,is_stmt
    1846 0004ff E604          MOV #0, *SP(#2) ; |654| 
         000501 00   
    1847                      .dwpsn  file "../FreeRTOS/Demo/Common/Minimal/MessageBufferDemo.c",line 655,column 42,is_stmt
    1848 000502 E610          MOV #32, *SP(#8) ; |655| 
         000504 20   
    1849                      .dwpsn  file "../FreeRTOS/Demo/Common/Minimal/MessageBufferDemo.c",line 656,column 18,is_stmt
    1850 000505 E612          MOV #50, *SP(#9) ; |656| 
         000507 32   
    1851                      .dwpsn  file "../FreeRTOS/Demo/Common/Minimal/MessageBufferDemo.c",line 660,column 13,is_stmt
    1852 000508 EC31          AMOV #0, XAR0 ; |660| 
         00050a 8E00 
         00050c 0000 
    1853              $C$DW$213       .dwtag  DW_TAG_TI_branch
    1854                      .dwattr $C$DW$213, DW_AT_low_pc(0x00)
    1855                      .dwattr $C$DW$213, DW_AT_name("_uxTaskPriorityGet")
    1856                      .dwattr $C$DW$213, DW_AT_TI_call
    1857 00050e 6C00          CALL #_uxTaskPriorityGet ; |660| 
         000510 0000!
    1858                                                      ; call occurs [#_uxTaskPriorityGet] ; |660| 
    1859 000512 C414          MOV T0, *SP(#10) ; |660| 
    1860                      .dwpsn  file "../FreeRTOS/Demo/Common/Minimal/MessageBufferDemo.c",line 664,column 23,is_stmt
    1861 000514 ED00          MOV dbl(*SP(#0)), XAR3
         000516 BF   
    1862 000517 EB18          MOV XAR3, dbl(*SP(#12))
         000519 B5   
    1863                      .dwpsn  file "../FreeRTOS/Demo/Common/Minimal/MessageBufferDemo.c",line 667,column 2,is_stmt
    1864                      .dwpsn  file "../FreeRTOS/Demo/Common/Minimal/MessageBufferDemo.c",line 672,column 2,is_stmt
    1865 00051a 7600          MOV #50, T0 ; |672| 
         00051c 3248 
    1866              $C$DW$214       .dwtag  DW_TAG_TI_branch
    1867                      .dwattr $C$DW$214, DW_AT_low_pc(0x00)
    1868                      .dwattr $C$DW$214, DW_AT_name("_pvPortMalloc")
    1869                      .dwattr $C$DW$214, DW_AT_TI_call
    1870 00051e 6C00          CALL #_pvPortMalloc ; |672| 
         000520 0000!
    1871                                                      ; call occurs [#_pvPortMalloc] ; |672| 
    1872 000522 EB08          MOV XAR0, dbl(*SP(#4))
         000524 85   
    1873                      .dwpsn  file "../FreeRTOS/Demo/Common/Minimal/MessageBufferDemo.c",line 673,column 2,is_stmt
    1874 000525 7600          MOV #50, T0 ; |673| 
         000527 3248 
    1875              $C$DW$215       .dwtag  DW_TAG_TI_branch
    1876                      .dwattr $C$DW$215, DW_AT_low_pc(0x00)
    1877                      .dwattr $C$DW$215, DW_AT_name("_pvPortMalloc")
    1878                      .dwattr $C$DW$215, DW_AT_TI_call
    1879 000529 6C00          CALL #_pvPortMalloc ; |673| 
         00052b 0000!
    1880                                                      ; call occurs [#_pvPortMalloc] ; |673| 
TMS320C55x Assembler PC v4.4.1 Sat Sep 08 05:55:01 2018

Tools Copyright (c) 1996-2012 Texas Instruments Incorporated
MessageBufferDemo.asm                                                PAGE   41

    1881 00052d 7600          MOV #49, T2 ; |686| 
         00052f 3168 
    1882 000531 EB0C          MOV XAR0, dbl(*SP(#6))
         000533 85   
    1883 000534       $C$L15:    
    1884 000534       $C$DW$L$_prvEchoClient$2$B:
    1885                      .dwpsn  file "../FreeRTOS/Demo/Common/Minimal/MessageBufferDemo.c",line 681,column 3,is_stmt
    1886 000534 F704          ADD #1, *SP(#2) ; |681| 
         000536 0001 
    1887                      .dwpsn  file "../FreeRTOS/Demo/Common/Minimal/MessageBufferDemo.c",line 686,column 3,is_stmt
    1888 000538 A904          MOV *SP(#2), AR1 ; |686| 
    1889 00053a 1268          CMPU AR1 <= T2, TC1 ; |686| 
         00053c 94   
    1890 00053d 0464          BCC $C$L16,TC1 ; |686| 
         00053f 17   
    1891                                                      ; branchcc occurs ; |686| 
    1892 000540       $C$DW$L$_prvEchoClient$2$E:
    1893 000540       $C$DW$L$_prvEchoClient$3$B:
    1894                      .dwpsn  file "../FreeRTOS/Demo/Common/Minimal/MessageBufferDemo.c",line 689,column 4,is_stmt
    1895 000540 E604          MOV #1, *SP(#2) ; |689| 
         000542 01   
    1896                      .dwpsn  file "../FreeRTOS/Demo/Common/Minimal/MessageBufferDemo.c",line 696,column 4,is_stmt
    1897 000543 F914          MOV *SP(#10) << #1, AC0 ; |696| 
         000545 0108 
    1898 000547 2204          MOV AC0, T0 ; |696| 
    1899 000549 EC31          AMOV #_ulEchoLoopCounters, XAR3 ; |696| 
         00054b BE00 
         00054d 0000-
    1900 00054f ED6B          MOV dbl(*AR3(T0)), AC1 ; |696| 
         000551 18   
    1901 000552 4011          ADD #1, AC1 ; |696| 
    1902 000554 EB6B          MOV AC1, dbl(*AR3(T0)) ; |696| 
         000556 18   
    1903 000557       $C$DW$L$_prvEchoClient$3$E:
    1904 000557       $C$L16:    
    1905 000557       $C$DW$L$_prvEchoClient$4$B:
    1906                      .dwpsn  file "../FreeRTOS/Demo/Common/Minimal/MessageBufferDemo.c",line 699,column 3,is_stmt
    1907 000557 ED08          MOV dbl(*SP(#4)), XAR0
         000559 8F   
    1908 00055a 7600          MOV #50, T1 ; |699| 
         00055c 3258 
    1909              $C$DW$216       .dwtag  DW_TAG_TI_branch
    1910                      .dwattr $C$DW$216, DW_AT_low_pc(0x00)
    1911                      .dwattr $C$DW$216, DW_AT_name("_memset")
    1912                      .dwattr $C$DW$216, DW_AT_TI_call
    1913              
    1914 00055e 6C00          CALL #_memset ; |699| 
         000560 0000!
    1915 000562 3D04  ||      MOV #0, T0
    1916              
    1917                                                      ; call occurs [#_memset] ; |699| 
    1918                      .dwpsn  file "../FreeRTOS/Demo/Common/Minimal/MessageBufferDemo.c",line 701,column 8,is_stmt
    1919 000564 E606          MOV #0, *SP(#3) ; |701| 
         000566 00   
    1920                      .dwpsn  file "../FreeRTOS/Demo/Common/Minimal/MessageBufferDemo.c",line 701,column 16,is_stmt
TMS320C55x Assembler PC v4.4.1 Sat Sep 08 05:55:01 2018

Tools Copyright (c) 1996-2012 Texas Instruments Incorporated
MessageBufferDemo.asm                                                PAGE   42

    1921 000567 A904          MOV *SP(#2), AR1 ; |701| 
    1922 000569 AA06          MOV *SP(#3), AR2 ; |701| 
    1923 00056b 12A8          CMPU AR2 >= AR1, TC1 ; |701| 
         00056d 94   
    1924 00056e 0464          BCC $C$L19,TC1 ; |701| 
         000570 29   
    1925                                                      ; branchcc occurs ; |701| 
    1926 000571       $C$DW$L$_prvEchoClient$4$E:
    1927 000571       $C$L17:    
    1928 000571       $C$DW$L$_prvEchoClient$5$B:
    1929                      .dwpsn  file "../FreeRTOS/Demo/Common/Minimal/MessageBufferDemo.c",line 703,column 4,is_stmt
    1930 000571 ED08          MOV dbl(*SP(#4)), XAR3
         000573 BF   
    1931 000574 A406          MOV *SP(#3), T0 ; |703| 
    1932 000576 A910          MOV *SP(#8), AR1 ; |703| 
    1933 000578 C96B          MOV AR1, *AR3(T0) ; |703| 
    1934                      .dwpsn  file "../FreeRTOS/Demo/Common/Minimal/MessageBufferDemo.c",line 705,column 4,is_stmt
    1935 00057a F710          ADD #1, *SP(#8) ; |705| 
         00057c 0001 
    1936                      .dwpsn  file "../FreeRTOS/Demo/Common/Minimal/MessageBufferDemo.c",line 707,column 4,is_stmt
    1937 00057e 7600          MOV #126, AR2 ; |707| 
         000580 7EA8 
    1938 000582 A910          MOV *SP(#8), AR1 ; |707| 
    1939 000584 12A8          CMP AR1 <= AR2, TC1 ; |707| 
         000586 90   
    1940 000587 61E4          BCC $C$L18,TC1 ; |707| 
    1941                                                      ; branchcc occurs ; |707| 
    1942 000589       $C$DW$L$_prvEchoClient$5$E:
    1943 000589       $C$DW$L$_prvEchoClient$6$B:
    1944                      .dwpsn  file "../FreeRTOS/Demo/Common/Minimal/MessageBufferDemo.c",line 709,column 5,is_stmt
    1945 000589 E610          MOV #32, *SP(#8) ; |709| 
         00058b 20   
    1946 00058c       $C$DW$L$_prvEchoClient$6$E:
    1947 00058c       $C$L18:    
    1948 00058c       $C$DW$L$_prvEchoClient$7$B:
    1949                      .dwpsn  file "../FreeRTOS/Demo/Common/Minimal/MessageBufferDemo.c",line 701,column 34,is_stmt
    1950 00058c F706          ADD #1, *SP(#3) ; |701| 
         00058e 0001 
    1951                      .dwpsn  file "../FreeRTOS/Demo/Common/Minimal/MessageBufferDemo.c",line 701,column 16,is_stmt
    1952 000590 A904          MOV *SP(#2), AR1 ; |701| 
    1953 000592 AA06          MOV *SP(#3), AR2 ; |701| 
    1954 000594 12A4          CMPU AR2 < AR1, TC1 ; |701| 
         000596 94   
    1955 000597 0464          BCC $C$L17,TC1 ; |701| 
         000599 D7   
    1956                                                      ; branchcc occurs ; |701| 
    1957 00059a       $C$DW$L$_prvEchoClient$7$E:
    1958 00059a       $C$L19:    
    1959 00059a       $C$DW$L$_prvEchoClient$8$B:
    1960                      .dwpsn  file "../FreeRTOS/Demo/Common/Minimal/MessageBufferDemo.c",line 716,column 4,is_stmt
    1961 00059a ED18          MOV dbl(*SP(#12)), XAR3
         00059c BF   
    1962 00059d ED08          MOV dbl(*SP(#4)), XAR1
         00059f 9F   
    1963 0005a0 A404          MOV *SP(#2), T0 ; |716| 
TMS320C55x Assembler PC v4.4.1 Sat Sep 08 05:55:01 2018

Tools Copyright (c) 1996-2012 Texas Instruments Incorporated
MessageBufferDemo.asm                                                PAGE   43

    1964 0005a2 A512          MOV *SP(#9), T1 ; |716| 
    1965 0005a4 ED61          MOV dbl(*AR3), XAR0
         0005a6 8F   
    1966              $C$DW$217       .dwtag  DW_TAG_TI_branch
    1967                      .dwattr $C$DW$217, DW_AT_low_pc(0x00)
    1968                      .dwattr $C$DW$217, DW_AT_name("_xStreamBufferSend")
    1969                      .dwattr $C$DW$217, DW_AT_TI_call
    1970 0005a7 6C00          CALL #_xStreamBufferSend ; |716| 
         0005a9 0000!
    1971                                                      ; call occurs [#_xStreamBufferSend] ; |716| 
    1972 0005ab C406          MOV T0, *SP(#3) ; |716| 
    1973                      .dwpsn  file "../FreeRTOS/Demo/Common/Minimal/MessageBufferDemo.c",line 718,column 4,is_stmt
    1974                      .dwpsn  file "../FreeRTOS/Demo/Common/Minimal/MessageBufferDemo.c",line 723,column 12,is_stmt
    1975 0005ad 2249          MOV T0, AR1
    1976 0005af 0409          BCC $C$L19,AR1 == #0 ; |723| 
         0005b1 E8   
    1977                                                      ; branchcc occurs ; |723| 
    1978 0005b2       $C$DW$L$_prvEchoClient$8$E:
    1979 0005b2       $C$DW$L$_prvEchoClient$9$B:
    1980                      .dwpsn  file "../FreeRTOS/Demo/Common/Minimal/MessageBufferDemo.c",line 726,column 3,is_stmt
    1981 0005b2 ED0C          MOV dbl(*SP(#6)), XAR0
         0005b4 8F   
    1982 0005b5 7600          MOV #50, T1 ; |726| 
         0005b7 3258 
    1983              $C$DW$218       .dwtag  DW_TAG_TI_branch
    1984                      .dwattr $C$DW$218, DW_AT_low_pc(0x00)
    1985                      .dwattr $C$DW$218, DW_AT_name("_memset")
    1986                      .dwattr $C$DW$218, DW_AT_TI_call
    1987              
    1988 0005b9 6C00          CALL #_memset ; |726| 
         0005bb 0000!
    1989 0005bd 3D04  ||      MOV #0, T0
    1990              
    1991                                                      ; call occurs [#_memset] ; |726| 
    1992                      .dwpsn  file "../FreeRTOS/Demo/Common/Minimal/MessageBufferDemo.c",line 727,column 3,is_stmt
    1993 0005bf ED18          MOV dbl(*SP(#12)), XAR3
         0005c1 BF   
    1994 0005c2 76FF          MOV #65535, T1 ; |727| 
         0005c4 FF58 
    1995 0005c6 ED0C          MOV dbl(*SP(#6)), XAR1
         0005c8 9F   
    1996 0005c9 A404          MOV *SP(#2), T0 ; |727| 
    1997 0005cb ED75          MOV dbl(*AR3(short(#2))), XAR0
         0005cd 8F   
    1998              $C$DW$219       .dwtag  DW_TAG_TI_branch
    1999                      .dwattr $C$DW$219, DW_AT_low_pc(0x00)
    2000                      .dwattr $C$DW$219, DW_AT_name("_xStreamBufferReceive")
    2001                      .dwattr $C$DW$219, DW_AT_TI_call
    2002 0005ce 6C00          CALL #_xStreamBufferReceive ; |727| 
         0005d0 0000!
    2003                                                      ; call occurs [#_xStreamBufferReceive] ; |727| 
    2004                      .dwpsn  file "../FreeRTOS/Demo/Common/Minimal/MessageBufferDemo.c",line 730,column 2,is_stmt
    2005 0005d2 06FF          B $C$L15  ; |730| 
         0005d4 5F   
    2006                                                      ; branch occurs ; |730| 
TMS320C55x Assembler PC v4.4.1 Sat Sep 08 05:55:01 2018

Tools Copyright (c) 1996-2012 Texas Instruments Incorporated
MessageBufferDemo.asm                                                PAGE   44

    2007 0005d5       $C$DW$L$_prvEchoClient$9$E:
    2008                      .dwcfi  cfa_offset, 2
    2009                      .dwcfi  restore_reg, 14
    2010                      .dwcfi  cfa_offset, 1
    2011              
    2012              $C$DW$220       .dwtag  DW_TAG_TI_loop
    2013                      .dwattr $C$DW$220, DW_AT_name("F:\eZdsp_C55x_FreeRTOS_Port\eZDSP\eZDSP_5535_Files\ccsws2\test\Debug\M
    2014                      .dwattr $C$DW$220, DW_AT_TI_begin_file("../FreeRTOS/Demo/Common/Minimal/MessageBufferDemo.c")
    2015                      .dwattr $C$DW$220, DW_AT_TI_begin_line(0x2a6)
    2016                      .dwattr $C$DW$220, DW_AT_TI_end_line(0x2da)
    2017              $C$DW$221       .dwtag  DW_TAG_TI_loop_range
    2018                      .dwattr $C$DW$221, DW_AT_low_pc($C$DW$L$_prvEchoClient$2$B)
    2019                      .dwattr $C$DW$221, DW_AT_high_pc($C$DW$L$_prvEchoClient$2$E)
    2020              $C$DW$222       .dwtag  DW_TAG_TI_loop_range
    2021                      .dwattr $C$DW$222, DW_AT_low_pc($C$DW$L$_prvEchoClient$3$B)
    2022                      .dwattr $C$DW$222, DW_AT_high_pc($C$DW$L$_prvEchoClient$3$E)
    2023              $C$DW$223       .dwtag  DW_TAG_TI_loop_range
    2024                      .dwattr $C$DW$223, DW_AT_low_pc($C$DW$L$_prvEchoClient$4$B)
    2025                      .dwattr $C$DW$223, DW_AT_high_pc($C$DW$L$_prvEchoClient$4$E)
    2026              $C$DW$224       .dwtag  DW_TAG_TI_loop_range
    2027                      .dwattr $C$DW$224, DW_AT_low_pc($C$DW$L$_prvEchoClient$9$B)
    2028                      .dwattr $C$DW$224, DW_AT_high_pc($C$DW$L$_prvEchoClient$9$E)
    2029              
    2030              $C$DW$225       .dwtag  DW_TAG_TI_loop
    2031                      .dwattr $C$DW$225, DW_AT_name("F:\eZdsp_C55x_FreeRTOS_Port\eZDSP\eZDSP_5535_Files\ccsws2\test\Debug\M
    2032                      .dwattr $C$DW$225, DW_AT_TI_begin_file("../FreeRTOS/Demo/Common/Minimal/MessageBufferDemo.c")
    2033                      .dwattr $C$DW$225, DW_AT_TI_begin_line(0x2bd)
    2034                      .dwattr $C$DW$225, DW_AT_TI_end_line(0x2c7)
    2035              $C$DW$226       .dwtag  DW_TAG_TI_loop_range
    2036                      .dwattr $C$DW$226, DW_AT_low_pc($C$DW$L$_prvEchoClient$5$B)
    2037                      .dwattr $C$DW$226, DW_AT_high_pc($C$DW$L$_prvEchoClient$5$E)
    2038              $C$DW$227       .dwtag  DW_TAG_TI_loop_range
    2039                      .dwattr $C$DW$227, DW_AT_low_pc($C$DW$L$_prvEchoClient$6$B)
    2040                      .dwattr $C$DW$227, DW_AT_high_pc($C$DW$L$_prvEchoClient$6$E)
    2041              $C$DW$228       .dwtag  DW_TAG_TI_loop_range
    2042                      .dwattr $C$DW$228, DW_AT_low_pc($C$DW$L$_prvEchoClient$7$B)
    2043                      .dwattr $C$DW$228, DW_AT_high_pc($C$DW$L$_prvEchoClient$7$E)
    2044                      .dwendtag $C$DW$225
    2045              
    2046              
    2047              $C$DW$229       .dwtag  DW_TAG_TI_loop
    2048                      .dwattr $C$DW$229, DW_AT_name("F:\eZdsp_C55x_FreeRTOS_Port\eZDSP\eZDSP_5535_Files\ccsws2\test\Debug\M
    2049                      .dwattr $C$DW$229, DW_AT_TI_begin_file("../FreeRTOS/Demo/Common/Minimal/MessageBufferDemo.c")
    2050                      .dwattr $C$DW$229, DW_AT_TI_begin_line(0x2ca)
    2051                      .dwattr $C$DW$229, DW_AT_TI_end_line(0x2d3)
    2052              $C$DW$230       .dwtag  DW_TAG_TI_loop_range
    2053                      .dwattr $C$DW$230, DW_AT_low_pc($C$DW$L$_prvEchoClient$8$B)
    2054                      .dwattr $C$DW$230, DW_AT_high_pc($C$DW$L$_prvEchoClient$8$E)
    2055                      .dwendtag $C$DW$229
    2056              
    2057                      .dwendtag $C$DW$220
    2058              
    2059                      .dwattr $C$DW$202, DW_AT_TI_end_file("../FreeRTOS/Demo/Common/Minimal/MessageBufferDemo.c")
    2060                      .dwattr $C$DW$202, DW_AT_TI_end_line(0x2db)
    2061                      .dwattr $C$DW$202, DW_AT_TI_end_column(0x01)
TMS320C55x Assembler PC v4.4.1 Sat Sep 08 05:55:01 2018

Tools Copyright (c) 1996-2012 Texas Instruments Incorporated
MessageBufferDemo.asm                                                PAGE   45

    2062                      .dwendentry
    2063                      .dwendtag $C$DW$202
    2064              
    2065 0005d5               .sect   ".text"
    2066                      .align 4
    2067              
    2068              $C$DW$231       .dwtag  DW_TAG_subprogram, DW_AT_name("prvEchoServer")
    2069                      .dwattr $C$DW$231, DW_AT_low_pc(_prvEchoServer)
    2070                      .dwattr $C$DW$231, DW_AT_high_pc(0x00)
    2071                      .dwattr $C$DW$231, DW_AT_TI_symbol_name("_prvEchoServer")
    2072                      .dwattr $C$DW$231, DW_AT_TI_begin_file("../FreeRTOS/Demo/Common/Minimal/MessageBufferDemo.c")
    2073                      .dwattr $C$DW$231, DW_AT_TI_begin_line(0x2de)
    2074                      .dwattr $C$DW$231, DW_AT_TI_begin_column(0x0d)
    2075                      .dwattr $C$DW$231, DW_AT_TI_max_frame_size(0x10)
    2076                      .dwpsn  file "../FreeRTOS/Demo/Common/Minimal/MessageBufferDemo.c",line 735,column 1,is_stmt,address 
    2077              
    2078                      .dwfde $C$DW$CIE, _prvEchoServer
    2079              $C$DW$232       .dwtag  DW_TAG_formal_parameter, DW_AT_name("pvParameters")
    2080                      .dwattr $C$DW$232, DW_AT_TI_symbol_name("_pvParameters")
    2081                      .dwattr $C$DW$232, DW_AT_type(*$C$DW$T$3)
    2082                      .dwattr $C$DW$232, DW_AT_location[DW_OP_reg17]
    2083              ;*******************************************************************************
    2084              ;* FUNCTION NAME: prvEchoServer                                                *
    2085              ;*                                                                             *
    2086              ;*   Function Uses Regs : AC0,AC0,T0,T1,AR0,XAR0,AR1,XAR1,AR2,XAR2,SP,M40,SATA,*
    2087              ;*                        SATD,RDM,FRCT,SMUL                                   *
    2088              ;*   Stack Frame        : Compact (No Frame Pointer, w/ debug)                 *
    2089              ;*   Total Frame Size   : 16 words                                             *
    2090              ;*                        (2 return address/alignment)                         *
    2091              ;*                        (14 local values)                                    *
    2092              ;*   Min System Stack   : 1 word                                               *
    2093              ;*******************************************************************************
    2094 0005d8       _prvEchoServer:
    2095                      .dwcfi  cfa_offset, 1
    2096                      .dwcfi  save_reg_to_mem, 91, -1
    2097 0005d8 4EF1          AADD #-15, SP
    2098                      .dwcfi  cfa_offset, 16
    2099              $C$DW$233       .dwtag  DW_TAG_variable, DW_AT_name("pvParameters")
    2100                      .dwattr $C$DW$233, DW_AT_TI_symbol_name("_pvParameters")
    2101                      .dwattr $C$DW$233, DW_AT_type(*$C$DW$T$3)
    2102                      .dwattr $C$DW$233, DW_AT_location[DW_OP_bregx 0x24 0]
    2103              $C$DW$234       .dwtag  DW_TAG_variable, DW_AT_name("xTempMessageBuffer")
    2104                      .dwattr $C$DW$234, DW_AT_TI_symbol_name("_xTempMessageBuffer")
    2105                      .dwattr $C$DW$234, DW_AT_type(*$C$DW$T$21)
    2106                      .dwattr $C$DW$234, DW_AT_location[DW_OP_bregx 0x24 2]
    2107              $C$DW$235       .dwtag  DW_TAG_variable, DW_AT_name("xReceivedLength")
    2108                      .dwattr $C$DW$235, DW_AT_TI_symbol_name("_xReceivedLength")
    2109                      .dwattr $C$DW$235, DW_AT_type(*$C$DW$T$27)
    2110                      .dwattr $C$DW$235, DW_AT_location[DW_OP_bregx 0x24 4]
    2111              $C$DW$236       .dwtag  DW_TAG_variable, DW_AT_name("pcReceivedString")
    2112                      .dwattr $C$DW$236, DW_AT_TI_symbol_name("_pcReceivedString")
    2113                      .dwattr $C$DW$236, DW_AT_type(*$C$DW$T$71)
    2114                      .dwattr $C$DW$236, DW_AT_location[DW_OP_bregx 0x24 6]
    2115              $C$DW$237       .dwtag  DW_TAG_variable, DW_AT_name("xMessageBuffers")
    2116                      .dwattr $C$DW$237, DW_AT_TI_symbol_name("_xMessageBuffers")
TMS320C55x Assembler PC v4.4.1 Sat Sep 08 05:55:01 2018

Tools Copyright (c) 1996-2012 Texas Instruments Incorporated
MessageBufferDemo.asm                                                PAGE   46

    2117                      .dwattr $C$DW$237, DW_AT_type(*$C$DW$T$23)
    2118                      .dwattr $C$DW$237, DW_AT_location[DW_OP_bregx 0x24 8]
    2119              $C$DW$238       .dwtag  DW_TAG_variable, DW_AT_name("xTimeOnEntering")
    2120                      .dwattr $C$DW$238, DW_AT_TI_symbol_name("_xTimeOnEntering")
    2121                      .dwattr $C$DW$238, DW_AT_type(*$C$DW$T$76)
    2122                      .dwattr $C$DW$238, DW_AT_location[DW_OP_bregx 0x24 12]
    2123              $C$DW$239       .dwtag  DW_TAG_variable, DW_AT_name("xTicksToBlock")
    2124                      .dwattr $C$DW$239, DW_AT_TI_symbol_name("_xTicksToBlock")
    2125                      .dwattr $C$DW$239, DW_AT_type(*$C$DW$T$77)
    2126                      .dwattr $C$DW$239, DW_AT_location[DW_OP_bregx 0x24 13]
    2127 0005da EB00          MOV XAR0, dbl(*SP(#0))
         0005dc 85   
    2128                      .dwpsn  file "../FreeRTOS/Demo/Common/Minimal/MessageBufferDemo.c",line 741,column 18,is_stmt
    2129 0005dd E61A          MOV #53, *SP(#13) ; |741| 
         0005df 35   
    2130                      .dwpsn  file "../FreeRTOS/Demo/Common/Minimal/MessageBufferDemo.c",line 744,column 2,is_stmt
    2131                      .dwpsn  file "../FreeRTOS/Demo/Common/Minimal/MessageBufferDemo.c",line 749,column 2,is_stmt
    2132              
    2133 0005e0 7600          MOV #50, T0 ; |749| 
         0005e2 3248 
    2134 0005e4 3D05  ||      MOV #0, T1
    2135              
    2136              $C$DW$240       .dwtag  DW_TAG_TI_branch
    2137                      .dwattr $C$DW$240, DW_AT_low_pc(0x00)
    2138                      .dwattr $C$DW$240, DW_AT_name("_xStreamBufferGenericCreate")
    2139                      .dwattr $C$DW$240, DW_AT_TI_call
    2140              
    2141 0005e6 6C00          CALL #_xStreamBufferGenericCreate ; |749| 
         0005e8 0000!
    2142 0005ea 3D18  ||      MOV #1, AR0
    2143              
    2144                                                      ; call occurs [#_xStreamBufferGenericCreate] ; |749| 
    2145 0005ec EB10          MOV XAR0, dbl(*SP(#8))
         0005ee 85   
    2146                      .dwpsn  file "../FreeRTOS/Demo/Common/Minimal/MessageBufferDemo.c",line 750,column 2,is_stmt
    2147              
    2148 0005ef 7600          MOV #50, T0 ; |750| 
         0005f1 3248 
    2149 0005f3 3D18  ||      MOV #1, AR0
    2150              
    2151              $C$DW$241       .dwtag  DW_TAG_TI_branch
    2152                      .dwattr $C$DW$241, DW_AT_low_pc(0x00)
    2153                      .dwattr $C$DW$241, DW_AT_name("_xStreamBufferGenericCreate")
    2154                      .dwattr $C$DW$241, DW_AT_TI_call
    2155              
    2156 0005f5 6C00          CALL #_xStreamBufferGenericCreate ; |750| 
         0005f7 0000!
    2157 0005f9 3D05  ||      MOV #0, T1
    2158              
    2159                                                      ; call occurs [#_xStreamBufferGenericCreate] ; |750| 
    2160 0005fb EB14          MOV XAR0, dbl(*SP(#10))
         0005fd 85   
    2161                      .dwpsn  file "../FreeRTOS/Demo/Common/Minimal/MessageBufferDemo.c",line 755,column 2,is_stmt
    2162 0005fe 7600          MOV #50, T0 ; |755| 
         000600 3248 
TMS320C55x Assembler PC v4.4.1 Sat Sep 08 05:55:01 2018

Tools Copyright (c) 1996-2012 Texas Instruments Incorporated
MessageBufferDemo.asm                                                PAGE   47

    2163              $C$DW$242       .dwtag  DW_TAG_TI_branch
    2164                      .dwattr $C$DW$242, DW_AT_low_pc(0x00)
    2165                      .dwattr $C$DW$242, DW_AT_name("_pvPortMalloc")
    2166                      .dwattr $C$DW$242, DW_AT_TI_call
    2167 000602 6C00          CALL #_pvPortMalloc ; |755| 
         000604 0000!
    2168                                                      ; call occurs [#_pvPortMalloc] ; |755| 
    2169 000606 EB0C          MOV XAR0, dbl(*SP(#6))
         000608 85   
    2170                      .dwpsn  file "../FreeRTOS/Demo/Common/Minimal/MessageBufferDemo.c",line 759,column 2,is_stmt
    2171              $C$DW$243       .dwtag  DW_TAG_TI_branch
    2172                      .dwattr $C$DW$243, DW_AT_low_pc(0x00)
    2173                      .dwattr $C$DW$243, DW_AT_name("_xTaskGetTickCount")
    2174                      .dwattr $C$DW$243, DW_AT_TI_call
    2175 000609 6C00          CALL #_xTaskGetTickCount ; |759| 
         00060b 0000!
    2176                                                      ; call occurs [#_xTaskGetTickCount] ; |759| 
    2177 00060d C418          MOV T0, *SP(#12) ; |759| 
    2178                      .dwpsn  file "../FreeRTOS/Demo/Common/Minimal/MessageBufferDemo.c",line 760,column 2,is_stmt
    2179 00060f 7600          MOV #50, T0 ; |760| 
         000611 3248 
    2180 000613 ED10          MOV dbl(*SP(#8)), XAR0
         000615 8F   
    2181 000616 A51A          MOV *SP(#13), T1 ; |760| 
    2182 000618 ED0C          MOV dbl(*SP(#6)), XAR1
         00061a 9F   
    2183              $C$DW$244       .dwtag  DW_TAG_TI_branch
    2184                      .dwattr $C$DW$244, DW_AT_low_pc(0x00)
    2185                      .dwattr $C$DW$244, DW_AT_name("_xStreamBufferReceive")
    2186                      .dwattr $C$DW$244, DW_AT_TI_call
    2187 00061b 6C00          CALL #_xStreamBufferReceive ; |760| 
         00061d 0000!
    2188                                                      ; call occurs [#_xStreamBufferReceive] ; |760| 
    2189 00061f C408          MOV T0, *SP(#4) ; |760| 
    2190                      .dwpsn  file "../FreeRTOS/Demo/Common/Minimal/MessageBufferDemo.c",line 763,column 2,is_stmt
    2191                      .dwpsn  file "../FreeRTOS/Demo/Common/Minimal/MessageBufferDemo.c",line 769,column 2,is_stmt
    2192 000621 EC31          AMOV #0, XAR0 ; |769| 
         000623 8E00 
         000625 0000 
    2193              $C$DW$245       .dwtag  DW_TAG_TI_branch
    2194                      .dwattr $C$DW$245, DW_AT_low_pc(0x00)
    2195                      .dwattr $C$DW$245, DW_AT_name("_uxTaskPriorityGet")
    2196                      .dwattr $C$DW$245, DW_AT_TI_call
    2197 000627 6C00          CALL #_uxTaskPriorityGet ; |769| 
         000629 0000!
    2198                                                      ; call occurs [#_uxTaskPriorityGet] ; |769| 
    2199 00062b 0414          BCC $C$L20,T0 != #0 ; |769| 
         00062d 23   
    2200                                                      ; branchcc occurs ; |769| 
    2201                      .dwpsn  file "../FreeRTOS/Demo/Common/Minimal/MessageBufferDemo.c",line 771,column 3,is_stmt
    2202 00062e 7A00          MOV #(_prvEchoClient >> 16) << #16, AC0 ; |771| 
         000630 000A%
    2203 000632 EC10          AMAR *SP(#8), XAR1
         000634 9E   
    2204 000635 EC31          AMOV #0, XAR2 ; |771| 
TMS320C55x Assembler PC v4.4.1 Sat Sep 08 05:55:01 2018

Tools Copyright (c) 1996-2012 Texas Instruments Incorporated
MessageBufferDemo.asm                                                PAGE   48

         000637 AE00 
         000639 0000 
    2205 00063b EC31          AMOV #$C$FSL7, XAR0 ; |771| 
         00063d 8E00 
         00063f 0068+
    2206 000641 7600          MOV #128, T0 ; |771| 
         000643 8048 
    2207 000645 7E00          OR #(_prvEchoClient & 0xffff), AC0, AC0 ; |771| 
         000647 0000%
    2208              $C$DW$246       .dwtag  DW_TAG_TI_branch
    2209                      .dwattr $C$DW$246, DW_AT_low_pc(0x00)
    2210                      .dwattr $C$DW$246, DW_AT_name("_xTaskCreate")
    2211                      .dwattr $C$DW$246, DW_AT_TI_call
    2212              
    2213 000649 6C00          CALL #_xTaskCreate ; |771| 
         00064b 0000!
    2214 00064d 3D15  ||      MOV #1, T1
    2215              
    2216                                                      ; call occurs [#_xTaskCreate] ; |771| 
    2217                      .dwpsn  file "../FreeRTOS/Demo/Common/Minimal/MessageBufferDemo.c",line 772,column 2,is_stmt
    2218 00064f 4A27          B $C$L21  ; |772| 
    2219                                                      ; branch occurs ; |772| 
    2220 000651       $C$L20:    
    2221                      .dwpsn  file "../FreeRTOS/Demo/Common/Minimal/MessageBufferDemo.c",line 777,column 3,is_stmt
    2222 000651 ED10          MOV dbl(*SP(#8)), XAR0
         000653 8F   
    2223              $C$DW$247       .dwtag  DW_TAG_TI_branch
    2224                      .dwattr $C$DW$247, DW_AT_low_pc(0x00)
    2225                      .dwattr $C$DW$247, DW_AT_name("_prvSingleTaskTests")
    2226                      .dwattr $C$DW$247, DW_AT_TI_call
    2227 000654 08FA          CALL #_prvSingleTaskTests ; |777| 
         000656 51   
    2228                                                      ; call occurs [#_prvSingleTaskTests] ; |777| 
    2229                      .dwpsn  file "../FreeRTOS/Demo/Common/Minimal/MessageBufferDemo.c",line 778,column 3,is_stmt
    2230 000657 7A00          MOV #(_prvEchoClient >> 16) << #16, AC0 ; |778| 
         000659 000A%
    2231 00065b 7600          MOV #128, T0 ; |778| 
         00065d 8048 
    2232 00065f EC31          AMOV #0, XAR2 ; |778| 
         000661 AE00 
         000663 0000 
    2233 000665 EC10          AMAR *SP(#8), XAR1
         000667 9E   
    2234 000668 EC31          AMOV #$C$FSL7, XAR0 ; |778| 
         00066a 8E00 
         00066c 0068+
    2235 00066e 7E00          OR #(_prvEchoClient & 0xffff), AC0, AC0 ; |778| 
         000670 0000%
    2236              $C$DW$248       .dwtag  DW_TAG_TI_branch
    2237                      .dwattr $C$DW$248, DW_AT_low_pc(0x00)
    2238                      .dwattr $C$DW$248, DW_AT_name("_xTaskCreate")
    2239                      .dwattr $C$DW$248, DW_AT_TI_call
    2240              
    2241 000672 6C00          CALL #_xTaskCreate ; |778| 
         000674 0000!
TMS320C55x Assembler PC v4.4.1 Sat Sep 08 05:55:01 2018

Tools Copyright (c) 1996-2012 Texas Instruments Incorporated
MessageBufferDemo.asm                                                PAGE   49

    2242 000676 3D05  ||      MOV #0, T1
    2243              
    2244                                                      ; call occurs [#_xTaskCreate] ; |778| 
    2245 000678       $C$L21:    
    2246 000678       $C$DW$L$_prvEchoServer$4$B:
    2247                      .dwpsn  file "../FreeRTOS/Demo/Common/Minimal/MessageBufferDemo.c",line 783,column 3,is_stmt
    2248 000678 ED0C          MOV dbl(*SP(#6)), XAR0
         00067a 8F   
    2249 00067b 7600          MOV #50, T1 ; |783| 
         00067d 3258 
    2250              $C$DW$249       .dwtag  DW_TAG_TI_branch
    2251                      .dwattr $C$DW$249, DW_AT_low_pc(0x00)
    2252                      .dwattr $C$DW$249, DW_AT_name("_memset")
    2253                      .dwattr $C$DW$249, DW_AT_TI_call
    2254              
    2255 00067f 6C00          CALL #_memset ; |783| 
         000681 0000!
    2256 000683 3D04  ||      MOV #0, T0
    2257              
    2258                                                      ; call occurs [#_memset] ; |783| 
    2259                      .dwpsn  file "../FreeRTOS/Demo/Common/Minimal/MessageBufferDemo.c",line 786,column 3,is_stmt
    2260 000685 76FF          MOV #65535, T1 ; |786| 
         000687 FF58 
    2261 000689 7600          MOV #50, T0 ; |786| 
         00068b 3248 
    2262 00068d ED0C          MOV dbl(*SP(#6)), XAR1
         00068f 9F   
    2263 000690 ED10          MOV dbl(*SP(#8)), XAR0
         000692 8F   
    2264              $C$DW$250       .dwtag  DW_TAG_TI_branch
    2265                      .dwattr $C$DW$250, DW_AT_low_pc(0x00)
    2266                      .dwattr $C$DW$250, DW_AT_name("_xStreamBufferReceive")
    2267                      .dwattr $C$DW$250, DW_AT_TI_call
    2268 000693 6C00          CALL #_xStreamBufferReceive ; |786| 
         000695 0000!
    2269                                                      ; call occurs [#_xStreamBufferReceive] ; |786| 
    2270 000697 C408          MOV T0, *SP(#4) ; |786| 
    2271                      .dwpsn  file "../FreeRTOS/Demo/Common/Minimal/MessageBufferDemo.c",line 792,column 3,is_stmt
    2272 000699 76FF          MOV #65535, T1 ; |792| 
         00069b FF58 
    2273 00069d ED14          MOV dbl(*SP(#10)), XAR0
         00069f 8F   
    2274 0006a0 ED0C          MOV dbl(*SP(#6)), XAR1
         0006a2 9F   
    2275              $C$DW$251       .dwtag  DW_TAG_TI_branch
    2276                      .dwattr $C$DW$251, DW_AT_low_pc(0x00)
    2277                      .dwattr $C$DW$251, DW_AT_name("_xStreamBufferSend")
    2278                      .dwattr $C$DW$251, DW_AT_TI_call
    2279 0006a3 6C00          CALL #_xStreamBufferSend ; |792| 
         0006a5 0000!
    2280                                                      ; call occurs [#_xStreamBufferSend] ; |792| 
    2281                      .dwpsn  file "../FreeRTOS/Demo/Common/Minimal/MessageBufferDemo.c",line 796,column 3,is_stmt
    2282              
    2283 0006a7 7600          MOV #50, T0 ; |796| 
         0006a9 3248 
TMS320C55x Assembler PC v4.4.1 Sat Sep 08 05:55:01 2018

Tools Copyright (c) 1996-2012 Texas Instruments Incorporated
MessageBufferDemo.asm                                                PAGE   50

    2284 0006ab 3D05  ||      MOV #0, T1
    2285              
    2286              $C$DW$252       .dwtag  DW_TAG_TI_branch
    2287                      .dwattr $C$DW$252, DW_AT_low_pc(0x00)
    2288                      .dwattr $C$DW$252, DW_AT_name("_xStreamBufferGenericCreate")
    2289                      .dwattr $C$DW$252, DW_AT_TI_call
    2290              
    2291 0006ad 6C00          CALL #_xStreamBufferGenericCreate ; |796| 
         0006af 0000!
    2292 0006b1 3D18  ||      MOV #1, AR0
    2293              
    2294                                                      ; call occurs [#_xStreamBufferGenericCreate] ; |796| 
    2295 0006b3 EB04          MOV XAR0, dbl(*SP(#2))
         0006b5 85   
    2296                      .dwpsn  file "../FreeRTOS/Demo/Common/Minimal/MessageBufferDemo.c",line 797,column 3,is_stmt
    2297              $C$DW$253       .dwtag  DW_TAG_TI_branch
    2298                      .dwattr $C$DW$253, DW_AT_low_pc(0x00)
    2299                      .dwattr $C$DW$253, DW_AT_name("_vStreamBufferDelete")
    2300                      .dwattr $C$DW$253, DW_AT_TI_call
    2301 0006b6 6C00          CALL #_vStreamBufferDelete ; |797| 
         0006b8 0000!
    2302                                                      ; call occurs [#_vStreamBufferDelete] ; |797| 
    2303                      .dwpsn  file "../FreeRTOS/Demo/Common/Minimal/MessageBufferDemo.c",line 798,column 2,is_stmt
    2304 0006ba 06FF          B $C$L21  ; |798| 
         0006bc BB   
    2305                                                      ; branch occurs ; |798| 
    2306 0006bd       $C$DW$L$_prvEchoServer$4$E:
    2307                      .dwcfi  cfa_offset, 1
    2308              
    2309              $C$DW$254       .dwtag  DW_TAG_TI_loop
    2310                      .dwattr $C$DW$254, DW_AT_name("F:\eZdsp_C55x_FreeRTOS_Port\eZDSP\eZDSP_5535_Files\ccsws2\test\Debug\M
    2311                      .dwattr $C$DW$254, DW_AT_TI_begin_file("../FreeRTOS/Demo/Common/Minimal/MessageBufferDemo.c")
    2312                      .dwattr $C$DW$254, DW_AT_TI_begin_line(0x30d)
    2313                      .dwattr $C$DW$254, DW_AT_TI_end_line(0x31e)
    2314              $C$DW$255       .dwtag  DW_TAG_TI_loop_range
    2315                      .dwattr $C$DW$255, DW_AT_low_pc($C$DW$L$_prvEchoServer$4$B)
    2316                      .dwattr $C$DW$255, DW_AT_high_pc($C$DW$L$_prvEchoServer$4$E)
    2317                      .dwendtag $C$DW$254
    2318              
    2319                      .dwattr $C$DW$231, DW_AT_TI_end_file("../FreeRTOS/Demo/Common/Minimal/MessageBufferDemo.c")
    2320                      .dwattr $C$DW$231, DW_AT_TI_end_line(0x31f)
    2321                      .dwattr $C$DW$231, DW_AT_TI_end_column(0x01)
    2322                      .dwendentry
    2323                      .dwendtag $C$DW$231
    2324              
    2325 0006bd               .sect   ".text"
    2326                      .align 4
    2327                      .global _xAreMessageBufferTasksStillRunning
    2328              
    2329              $C$DW$256       .dwtag  DW_TAG_subprogram, DW_AT_name("xAreMessageBufferTasksStillRunning")
    2330                      .dwattr $C$DW$256, DW_AT_low_pc(_xAreMessageBufferTasksStillRunning)
    2331                      .dwattr $C$DW$256, DW_AT_high_pc(0x00)
    2332                      .dwattr $C$DW$256, DW_AT_TI_symbol_name("_xAreMessageBufferTasksStillRunning")
    2333                      .dwattr $C$DW$256, DW_AT_external
    2334                      .dwattr $C$DW$256, DW_AT_type(*$C$DW$T$28)
TMS320C55x Assembler PC v4.4.1 Sat Sep 08 05:55:01 2018

Tools Copyright (c) 1996-2012 Texas Instruments Incorporated
MessageBufferDemo.asm                                                PAGE   51

    2335                      .dwattr $C$DW$256, DW_AT_TI_begin_file("../FreeRTOS/Demo/Common/Minimal/MessageBufferDemo.c")
    2336                      .dwattr $C$DW$256, DW_AT_TI_begin_line(0x322)
    2337                      .dwattr $C$DW$256, DW_AT_TI_begin_column(0x0c)
    2338                      .dwattr $C$DW$256, DW_AT_TI_max_frame_size(0x04)
    2339                      .dwpsn  file "../FreeRTOS/Demo/Common/Minimal/MessageBufferDemo.c",line 803,column 1,is_stmt,address 
    2340              
    2341                      .dwfde $C$DW$CIE, _xAreMessageBufferTasksStillRunning
    2342              $C$DW$257       .dwtag  DW_TAG_variable, DW_AT_name("ulLastEchoLoopCounters")
    2343                      .dwattr $C$DW$257, DW_AT_TI_symbol_name("_ulLastEchoLoopCounters$1")
    2344                      .dwattr $C$DW$257, DW_AT_type(*$C$DW$T$97)
    2345                      .dwattr $C$DW$257, DW_AT_location[DW_OP_addr _ulLastEchoLoopCounters$1]
    2346              $C$DW$258       .dwtag  DW_TAG_variable, DW_AT_name("ulLastNonBlockingRxCounter")
    2347                      .dwattr $C$DW$258, DW_AT_TI_symbol_name("_ulLastNonBlockingRxCounter$2")
    2348                      .dwattr $C$DW$258, DW_AT_type(*$C$DW$T$96)
    2349                      .dwattr $C$DW$258, DW_AT_location[DW_OP_addr _ulLastNonBlockingRxCounter$2]
    2350              ;*******************************************************************************
    2351              ;* FUNCTION NAME: xAreMessageBufferTasksStillRunning                           *
    2352              ;*                                                                             *
    2353              ;*   Function Uses Regs : AC0,AC0,AC1,AC1,T0,AR1,AR2,XAR2,AR3,XAR3,SP,CARRY,   *
    2354              ;*                        TC1,M40,SATA,SATD,RDM,FRCT,SMUL                      *
    2355              ;*   Stack Frame        : Compact (No Frame Pointer, w/ debug)                 *
    2356              ;*   Total Frame Size   : 4 words                                              *
    2357              ;*                        (2 return address/alignment)                         *
    2358              ;*                        (2 local values)                                     *
    2359              ;*   Min System Stack   : 1 word                                               *
    2360              ;*******************************************************************************
    2361 0006c0       _xAreMessageBufferTasksStillRunning:
    2362                      .dwcfi  cfa_offset, 1
    2363                      .dwcfi  save_reg_to_mem, 91, -1
    2364 0006c0 4EFD          AADD #-3, SP
    2365                      .dwcfi  cfa_offset, 4
    2366              $C$DW$259       .dwtag  DW_TAG_variable, DW_AT_name("xReturn")
    2367                      .dwattr $C$DW$259, DW_AT_TI_symbol_name("_xReturn")
    2368                      .dwattr $C$DW$259, DW_AT_type(*$C$DW$T$28)
    2369                      .dwattr $C$DW$259, DW_AT_location[DW_OP_bregx 0x24 0]
    2370              $C$DW$260       .dwtag  DW_TAG_variable, DW_AT_name("x")
    2371                      .dwattr $C$DW$260, DW_AT_TI_symbol_name("_x")
    2372                      .dwattr $C$DW$260, DW_AT_type(*$C$DW$T$28)
    2373                      .dwattr $C$DW$260, DW_AT_location[DW_OP_bregx 0x24 1]
    2374                      .dwpsn  file "../FreeRTOS/Demo/Common/Minimal/MessageBufferDemo.c",line 806,column 12,is_stmt
    2375 0006c2 E600          MOV #1, *SP(#0) ; |806| 
         0006c4 01   
    2376                      .dwpsn  file "../FreeRTOS/Demo/Common/Minimal/MessageBufferDemo.c",line 808,column 7,is_stmt
    2377 0006c5 E602          MOV #0, *SP(#1) ; |808| 
         0006c7 00   
    2378                      .dwpsn  file "../FreeRTOS/Demo/Common/Minimal/MessageBufferDemo.c",line 808,column 14,is_stmt
    2379              
    2380 0006c8 A902          MOV *SP(#1), AR1 ; |808| 
    2381 0006ca 3D2A  ||      MOV #2, AR2
    2382              
    2383 0006cc 1298          CMP AR1 >= AR2, TC1 ; |808| 
         0006ce A0   
    2384 0006cf 0464          BCC $C$L25,TC1 ; |808| 
         0006d1 44   
    2385                                                      ; branchcc occurs ; |808| 
TMS320C55x Assembler PC v4.4.1 Sat Sep 08 05:55:01 2018

Tools Copyright (c) 1996-2012 Texas Instruments Incorporated
MessageBufferDemo.asm                                                PAGE   52

    2386 0006d2       $C$L22:    
    2387 0006d2       $C$DW$L$_xAreMessageBufferTasksStillRunning$2$B:
    2388                      .dwpsn  file "../FreeRTOS/Demo/Common/Minimal/MessageBufferDemo.c",line 810,column 3,is_stmt
    2389 0006d2 2294          MOV AR1, T0 ; |810| 
    2390 0006d4 5040          SFTL T0, #1 ; |810| 
    2391 0006d6 EC31          AMOV #_ulEchoLoopCounters, XAR3 ; |810| 
         0006d8 BE00 
         0006da 0000-
    2392              
    2393 0006df 2394          MOV AR1, T0 ; |810| 
    2394 0006dc ED6B  ||      MOV dbl(*AR3(T0)), AC0 ; |810| 
         0006de 08   
    2395              
    2396 0006e1 5040          SFTL T0, #1 ; |810| 
    2397 0006e3 EC31          AMOV #_ulLastEchoLoopCounters$1, XAR3 ; |810| 
         0006e5 BE00 
         0006e7 000A-
    2398 0006e9 ED6B          MOV dbl(*AR3(T0)), AC1 ; |810| 
         0006eb 18   
    2399 0006ec 121C          CMPU AC1 != AC0, TC1 ; |810| 
         0006ee 04   
    2400 0006ef 62E4          BCC $C$L23,TC1 ; |810| 
    2401                                                      ; branchcc occurs ; |810| 
    2402 0006f1       $C$DW$L$_xAreMessageBufferTasksStillRunning$2$E:
    2403 0006f1       $C$DW$L$_xAreMessageBufferTasksStillRunning$3$B:
    2404                      .dwpsn  file "../FreeRTOS/Demo/Common/Minimal/MessageBufferDemo.c",line 812,column 4,is_stmt
    2405 0006f1 E600          MOV #0, *SP(#0) ; |812| 
         0006f3 00   
    2406                      .dwpsn  file "../FreeRTOS/Demo/Common/Minimal/MessageBufferDemo.c",line 813,column 3,is_stmt
    2407 0006f4 4A12          B $C$L24  ; |813| 
    2408                                                      ; branch occurs ; |813| 
    2409 0006f6       $C$DW$L$_xAreMessageBufferTasksStillRunning$3$E:
    2410 0006f6       $C$L23:    
    2411 0006f6       $C$DW$L$_xAreMessageBufferTasksStillRunning$4$B:
    2412                      .dwpsn  file "../FreeRTOS/Demo/Common/Minimal/MessageBufferDemo.c",line 816,column 4,is_stmt
    2413 0006f6 2294          MOV AR1, T0 ; |816| 
    2414 0006f8 5040          SFTL T0, #1 ; |816| 
    2415 0006fa 5090          SFTL AR1, #1 ; |816| 
    2416 0006fc EC31          AMOV #_ulEchoLoopCounters, XAR2 ; |816| 
         0006fe AE00 
         000700 0000-
    2417 000702 1490          AADD AR1, AR3 ; |816| 
         000704 B0   
    2418 000705 805D          MOV dbl(*AR2(T0)), dbl(*AR3) ; |816| 
         000707 80   
    2419 000708       $C$DW$L$_xAreMessageBufferTasksStillRunning$4$E:
    2420 000708       $C$L24:    
    2421 000708       $C$DW$L$_xAreMessageBufferTasksStillRunning$5$B:
    2422                      .dwpsn  file "../FreeRTOS/Demo/Common/Minimal/MessageBufferDemo.c",line 808,column 44,is_stmt
    2423 000708 F702          ADD #1, *SP(#1) ; |808| 
         00070a 0001 
    2424                      .dwpsn  file "../FreeRTOS/Demo/Common/Minimal/MessageBufferDemo.c",line 808,column 14,is_stmt
    2425              
    2426 00070c A902          MOV *SP(#1), AR1 ; |808| 
    2427 00070e 3D2A  ||      MOV #2, AR2
TMS320C55x Assembler PC v4.4.1 Sat Sep 08 05:55:01 2018

Tools Copyright (c) 1996-2012 Texas Instruments Incorporated
MessageBufferDemo.asm                                                PAGE   53

    2428              
    2429 000710 1294          CMP AR1 < AR2, TC1 ; |808| 
         000712 A0   
    2430 000713 0464          BCC $C$L22,TC1 ; |808| 
         000715 BC   
    2431                                                      ; branchcc occurs ; |808| 
    2432 000716       $C$DW$L$_xAreMessageBufferTasksStillRunning$5$E:
    2433 000716       $C$L25:    
    2434                      .dwpsn  file "../FreeRTOS/Demo/Common/Minimal/MessageBufferDemo.c",line 820,column 2,is_stmt
    2435 000716 ED31          MOV dbl(*(#_ulLastNonBlockingRxCounter$2)), AC0 ; |820| 
         000718 0800 
         00071a 000E-
    2436 00071c ED31          MOV dbl(*(#_ulNonBlockingRxCounter)), AC1 ; |820| 
         00071e 1800 
         000720 0004-
    2437 000722 121C          CMPU AC1 != AC0, TC1 ; |820| 
         000724 04   
    2438 000725 62E4          BCC $C$L26,TC1 ; |820| 
    2439                                                      ; branchcc occurs ; |820| 
    2440                      .dwpsn  file "../FreeRTOS/Demo/Common/Minimal/MessageBufferDemo.c",line 822,column 3,is_stmt
    2441 000727 E600          MOV #0, *SP(#0) ; |822| 
         000729 00   
    2442                      .dwpsn  file "../FreeRTOS/Demo/Common/Minimal/MessageBufferDemo.c",line 823,column 2,is_stmt
    2443 00072a 4A0C          B $C$L27  ; |823| 
    2444                                                      ; branch occurs ; |823| 
    2445 00072c       $C$L26:    
    2446                      .dwpsn  file "../FreeRTOS/Demo/Common/Minimal/MessageBufferDemo.c",line 826,column 3,is_stmt
    2447 00072c ED31          MOV dbl(*(#_ulNonBlockingRxCounter)), AC0 ; |826| 
         00072e 0800 
         000730 0004-
    2448 000732 EB31          MOV AC0, dbl(*(#_ulLastNonBlockingRxCounter$2)) ; |826| 
         000734 0800 
         000736 000E-
    2449 000738       $C$L27:    
    2450                      .dwpsn  file "../FreeRTOS/Demo/Common/Minimal/MessageBufferDemo.c",line 847,column 2,is_stmt
    2451 000738 A400          MOV *SP(#0), T0 ; |847| 
    2452                      .dwpsn  file "../FreeRTOS/Demo/Common/Minimal/MessageBufferDemo.c",line 848,column 1,is_stmt
    2453 00073a 4E03          AADD #3, SP
    2454                      .dwcfi  cfa_offset, 1
    2455              $C$DW$261       .dwtag  DW_TAG_TI_branch
    2456                      .dwattr $C$DW$261, DW_AT_low_pc(0x00)
    2457                      .dwattr $C$DW$261, DW_AT_TI_return
    2458 00073c 4804          RET
    2459                                                      ; return occurs
    2460              
    2461              $C$DW$262       .dwtag  DW_TAG_TI_loop
    2462                      .dwattr $C$DW$262, DW_AT_name("F:\eZdsp_C55x_FreeRTOS_Port\eZDSP\eZDSP_5535_Files\ccsws2\test\Debug\M
    2463                      .dwattr $C$DW$262, DW_AT_TI_begin_file("../FreeRTOS/Demo/Common/Minimal/MessageBufferDemo.c")
    2464                      .dwattr $C$DW$262, DW_AT_TI_begin_line(0x328)
    2465                      .dwattr $C$DW$262, DW_AT_TI_end_line(0x332)
    2466              $C$DW$263       .dwtag  DW_TAG_TI_loop_range
    2467                      .dwattr $C$DW$263, DW_AT_low_pc($C$DW$L$_xAreMessageBufferTasksStillRunning$2$B)
    2468                      .dwattr $C$DW$263, DW_AT_high_pc($C$DW$L$_xAreMessageBufferTasksStillRunning$2$E)
    2469              $C$DW$264       .dwtag  DW_TAG_TI_loop_range
    2470                      .dwattr $C$DW$264, DW_AT_low_pc($C$DW$L$_xAreMessageBufferTasksStillRunning$3$B)
TMS320C55x Assembler PC v4.4.1 Sat Sep 08 05:55:01 2018

Tools Copyright (c) 1996-2012 Texas Instruments Incorporated
MessageBufferDemo.asm                                                PAGE   54

    2471                      .dwattr $C$DW$264, DW_AT_high_pc($C$DW$L$_xAreMessageBufferTasksStillRunning$3$E)
    2472              $C$DW$265       .dwtag  DW_TAG_TI_loop_range
    2473                      .dwattr $C$DW$265, DW_AT_low_pc($C$DW$L$_xAreMessageBufferTasksStillRunning$4$B)
    2474                      .dwattr $C$DW$265, DW_AT_high_pc($C$DW$L$_xAreMessageBufferTasksStillRunning$4$E)
    2475              $C$DW$266       .dwtag  DW_TAG_TI_loop_range
    2476                      .dwattr $C$DW$266, DW_AT_low_pc($C$DW$L$_xAreMessageBufferTasksStillRunning$5$B)
    2477                      .dwattr $C$DW$266, DW_AT_high_pc($C$DW$L$_xAreMessageBufferTasksStillRunning$5$E)
    2478                      .dwendtag $C$DW$262
    2479              
    2480                      .dwattr $C$DW$256, DW_AT_TI_end_file("../FreeRTOS/Demo/Common/Minimal/MessageBufferDemo.c")
    2481                      .dwattr $C$DW$256, DW_AT_TI_end_line(0x350)
    2482                      .dwattr $C$DW$256, DW_AT_TI_end_column(0x01)
    2483                      .dwendentry
    2484                      .dwendtag $C$DW$256
    2485              
    2486              ;*******************************************************************************
    2487              ;* FAR STRINGS                                                                 *
    2488              ;*******************************************************************************
    2489 000000               .sect   ".const:.string"
    2490                      .align  2
    2491 000000 004F  $C$FSL1:        .string "One two three four five six seven eight nine ten eleve",0
         000001 006E 
         000002 0065 
         000003 0020 
         000004 0074 
         000005 0077 
         000006 006F 
         000007 0020 
         000008 0074 
         000009 0068 
         00000a 0072 
         00000b 0065 
         00000c 0065 
         00000d 0020 
         00000e 0066 
         00000f 006F 
         000010 0075 
         000011 0072 
         000012 0020 
         000013 0066 
         000014 0069 
         000015 0076 
         000016 0065 
         000017 0020 
         000018 0073 
         000019 0069 
         00001a 0078 
         00001b 0020 
         00001c 0073 
         00001d 0065 
         00001e 0076 
         00001f 0065 
         000020 006E 
         000021 0020 
         000022 0065 
TMS320C55x Assembler PC v4.4.1 Sat Sep 08 05:55:01 2018

Tools Copyright (c) 1996-2012 Texas Instruments Incorporated
MessageBufferDemo.asm                                                PAGE   55

         000023 0069 
         000024 0067 
         000025 0068 
         000026 0074 
         000027 0020 
         000028 006E 
         000029 0069 
         00002a 006E 
         00002b 0065 
         00002c 0020 
         00002d 0074 
         00002e 0065 
         00002f 006E 
         000030 0020 
         000031 0065 
         000032 006C 
         000033 0065 
         000034 0076 
         000035 0065 
         000036 0000 
    2492                      .align  2
    2493 000038 0031  $C$FSL2:        .string "1EchoServer",0
         000039 0045 
         00003a 0063 
         00003b 0068 
         00003c 006F 
         00003d 0053 
         00003e 0065 
         00003f 0072 
         000040 0076 
         000041 0065 
         000042 0072 
         000043 0000 
    2494                      .align  2
    2495 000044 0032  $C$FSL3:        .string "2EchoServer",0
         000045 0045 
         000046 0063 
         000047 0068 
         000048 006F 
         000049 0053 
         00004a 0065 
         00004b 0072 
         00004c 0076 
         00004d 0065 
         00004e 0072 
         00004f 0000 
    2496                      .align  2
    2497 000050 004E  $C$FSL4:        .string "NonBlkRx",0
         000051 006F 
         000052 006E 
         000053 0042 
         000054 006C 
         000055 006B 
         000056 0052 
         000057 0078 
TMS320C55x Assembler PC v4.4.1 Sat Sep 08 05:55:01 2018

Tools Copyright (c) 1996-2012 Texas Instruments Incorporated
MessageBufferDemo.asm                                                PAGE   56

         000058 0000 
    2498                      .align  2
    2499 00005a 004E  $C$FSL5:        .string "NonBlkTx",0
         00005b 006F 
         00005c 006E 
         00005d 0042 
         00005e 006C 
         00005f 006B 
         000060 0054 
         000061 0078 
         000062 0000 
    2500                      .align  2
    2501 000064 0025  $C$FSL6:        .string "%d",0
         000065 0064 
         000066 0000 
    2502                      .align  2
    2503 000068 0045  $C$FSL7:        .string "EchoClient",0
         000069 0063 
         00006a 0068 
         00006b 006F 
         00006c 0043 
         00006d 006C 
         00006e 0069 
         00006f 0065 
         000070 006E 
         000071 0074 
         000072 0000 
    2504              ;******************************************************************************
    2505              ;* UNDEFINED EXTERNAL REFERENCES                                              *
    2506              ;******************************************************************************
    2507                      .global _sprintf
    2508                      .global _strlen
    2509                      .global _strcmp
    2510                      .global _memset
    2511                      .global _pvPortMalloc
    2512                      .global _vPortFree
    2513                      .global _xTaskCreate
    2514                      .global _uxTaskPriorityGet
    2515                      .global _vTaskPrioritySet
    2516                      .global _xTaskGetTickCount
    2517                      .global _xStreamBufferSend
    2518                      .global _xStreamBufferSendFromISR
    2519                      .global _xStreamBufferReceive
    2520                      .global _xStreamBufferReceiveFromISR
    2521                      .global _vStreamBufferDelete
    2522                      .global _xStreamBufferReset
    2523                      .global _xStreamBufferSpacesAvailable
    2524                      .global _xStreamBufferGenericCreate
    2525                      .global _xStreamBufferNextMessageLengthBytes
    2526                      .global _usCriticalNesting
    2527              
    2528              ;*******************************************************************************
    2529              ;* TYPE INFORMATION                                                            *
    2530              ;*******************************************************************************
    2531              
TMS320C55x Assembler PC v4.4.1 Sat Sep 08 05:55:01 2018

Tools Copyright (c) 1996-2012 Texas Instruments Incorporated
MessageBufferDemo.asm                                                PAGE   57

    2532              $C$DW$T$22      .dwtag  DW_TAG_structure_type
    2533                      .dwattr $C$DW$T$22, DW_AT_name("ECHO_MESSAGE_BUFFERS")
    2534                      .dwattr $C$DW$T$22, DW_AT_byte_size(0x04)
    2535              $C$DW$267       .dwtag  DW_TAG_member
    2536                      .dwattr $C$DW$267, DW_AT_type(*$C$DW$T$21)
    2537                      .dwattr $C$DW$267, DW_AT_name("xEchoClientBuffer")
    2538                      .dwattr $C$DW$267, DW_AT_TI_symbol_name("_xEchoClientBuffer")
    2539                      .dwattr $C$DW$267, DW_AT_data_member_location[DW_OP_plus_uconst 0x0]
    2540                      .dwattr $C$DW$267, DW_AT_accessibility(DW_ACCESS_public)
    2541              $C$DW$268       .dwtag  DW_TAG_member
    2542                      .dwattr $C$DW$268, DW_AT_type(*$C$DW$T$21)
    2543                      .dwattr $C$DW$268, DW_AT_name("xEchoServerBuffer")
    2544                      .dwattr $C$DW$268, DW_AT_TI_symbol_name("_xEchoServerBuffer")
    2545                      .dwattr $C$DW$268, DW_AT_data_member_location[DW_OP_plus_uconst 0x2]
    2546                      .dwattr $C$DW$268, DW_AT_accessibility(DW_ACCESS_public)
    2547                      .dwendtag $C$DW$T$22
    2548              
    2549              $C$DW$T$23      .dwtag  DW_TAG_typedef, DW_AT_name("EchoMessageBuffers_t")
    2550                      .dwattr $C$DW$T$23, DW_AT_type(*$C$DW$T$22)
    2551                      .dwattr $C$DW$T$23, DW_AT_language(DW_LANG_C)
    2552              $C$DW$T$24      .dwtag  DW_TAG_pointer_type
    2553                      .dwattr $C$DW$T$24, DW_AT_type(*$C$DW$T$23)
    2554                      .dwattr $C$DW$T$24, DW_AT_address_class(0x17)
    2555              
    2556              $C$DW$T$19      .dwtag  DW_TAG_structure_type
    2557                      .dwattr $C$DW$T$19, DW_AT_name("StreamBufferDef_t")
    2558                      .dwattr $C$DW$T$19, DW_AT_declaration
    2559                      .dwendtag $C$DW$T$19
    2560              
    2561              $C$DW$T$25      .dwtag  DW_TAG_pointer_type
    2562                      .dwattr $C$DW$T$25, DW_AT_type(*$C$DW$T$19)
    2563                      .dwattr $C$DW$T$25, DW_AT_address_class(0x17)
    2564              $C$DW$T$26      .dwtag  DW_TAG_typedef, DW_AT_name("StreamBufferHandle_t")
    2565                      .dwattr $C$DW$T$26, DW_AT_type(*$C$DW$T$25)
    2566                      .dwattr $C$DW$T$26, DW_AT_language(DW_LANG_C)
    2567              $C$DW$T$3       .dwtag  DW_TAG_pointer_type
    2568                      .dwattr $C$DW$T$3, DW_AT_address_class(0x17)
    2569              $C$DW$T$21      .dwtag  DW_TAG_typedef, DW_AT_name("MessageBufferHandle_t")
    2570                      .dwattr $C$DW$T$21, DW_AT_type(*$C$DW$T$3)
    2571                      .dwattr $C$DW$T$21, DW_AT_language(DW_LANG_C)
    2572              $C$DW$269       .dwtag  DW_TAG_TI_far_type
    2573                      .dwattr $C$DW$269, DW_AT_type(*$C$DW$T$3)
    2574              $C$DW$T$35      .dwtag  DW_TAG_const_type
    2575                      .dwattr $C$DW$T$35, DW_AT_type(*$C$DW$269)
    2576              
    2577              $C$DW$T$36      .dwtag  DW_TAG_subroutine_type
    2578                      .dwattr $C$DW$T$36, DW_AT_language(DW_LANG_C)
    2579              $C$DW$270       .dwtag  DW_TAG_formal_parameter
    2580                      .dwattr $C$DW$270, DW_AT_type(*$C$DW$T$3)
    2581                      .dwendtag $C$DW$T$36
    2582              
    2583              $C$DW$T$37      .dwtag  DW_TAG_pointer_type
    2584                      .dwattr $C$DW$T$37, DW_AT_type(*$C$DW$T$36)
    2585                      .dwattr $C$DW$T$37, DW_AT_address_class(0x20)
    2586              $C$DW$T$38      .dwtag  DW_TAG_typedef, DW_AT_name("TaskFunction_t")
TMS320C55x Assembler PC v4.4.1 Sat Sep 08 05:55:01 2018

Tools Copyright (c) 1996-2012 Texas Instruments Incorporated
MessageBufferDemo.asm                                                PAGE   58

    2587                      .dwattr $C$DW$T$38, DW_AT_type(*$C$DW$T$37)
    2588                      .dwattr $C$DW$T$38, DW_AT_language(DW_LANG_C)
    2589              $C$DW$271       .dwtag  DW_TAG_TI_far_type
    2590              $C$DW$T$44      .dwtag  DW_TAG_const_type
    2591                      .dwattr $C$DW$T$44, DW_AT_type(*$C$DW$271)
    2592              $C$DW$T$45      .dwtag  DW_TAG_pointer_type
    2593                      .dwattr $C$DW$T$45, DW_AT_type(*$C$DW$T$44)
    2594                      .dwattr $C$DW$T$45, DW_AT_address_class(0x17)
    2595              $C$DW$T$4       .dwtag  DW_TAG_base_type
    2596                      .dwattr $C$DW$T$4, DW_AT_encoding(DW_ATE_boolean)
    2597                      .dwattr $C$DW$T$4, DW_AT_name("bool")
    2598                      .dwattr $C$DW$T$4, DW_AT_byte_size(0x01)
    2599              $C$DW$T$5       .dwtag  DW_TAG_base_type
    2600                      .dwattr $C$DW$T$5, DW_AT_encoding(DW_ATE_signed_char)
    2601                      .dwattr $C$DW$T$5, DW_AT_name("signed char")
    2602                      .dwattr $C$DW$T$5, DW_AT_byte_size(0x01)
    2603              $C$DW$T$6       .dwtag  DW_TAG_base_type
    2604                      .dwattr $C$DW$T$6, DW_AT_encoding(DW_ATE_unsigned_char)
    2605                      .dwattr $C$DW$T$6, DW_AT_name("unsigned char")
    2606                      .dwattr $C$DW$T$6, DW_AT_byte_size(0x01)
    2607              $C$DW$T$52      .dwtag  DW_TAG_typedef, DW_AT_name("uint8_t")
    2608                      .dwattr $C$DW$T$52, DW_AT_type(*$C$DW$T$6)
    2609                      .dwattr $C$DW$T$52, DW_AT_language(DW_LANG_C)
    2610              $C$DW$T$53      .dwtag  DW_TAG_pointer_type
    2611                      .dwattr $C$DW$T$53, DW_AT_type(*$C$DW$T$52)
    2612                      .dwattr $C$DW$T$53, DW_AT_address_class(0x17)
    2613              $C$DW$T$7       .dwtag  DW_TAG_base_type
    2614                      .dwattr $C$DW$T$7, DW_AT_encoding(DW_ATE_signed_char)
    2615                      .dwattr $C$DW$T$7, DW_AT_name("wchar_t")
    2616                      .dwattr $C$DW$T$7, DW_AT_byte_size(0x01)
    2617              $C$DW$T$8       .dwtag  DW_TAG_base_type
    2618                      .dwattr $C$DW$T$8, DW_AT_encoding(DW_ATE_signed)
    2619                      .dwattr $C$DW$T$8, DW_AT_name("short")
    2620                      .dwattr $C$DW$T$8, DW_AT_byte_size(0x01)
    2621              $C$DW$T$28      .dwtag  DW_TAG_typedef, DW_AT_name("BaseType_t")
    2622                      .dwattr $C$DW$T$28, DW_AT_type(*$C$DW$T$8)
    2623                      .dwattr $C$DW$T$28, DW_AT_language(DW_LANG_C)
    2624              $C$DW$T$63      .dwtag  DW_TAG_pointer_type
    2625                      .dwattr $C$DW$T$63, DW_AT_type(*$C$DW$T$28)
    2626                      .dwattr $C$DW$T$63, DW_AT_address_class(0x17)
    2627              $C$DW$272       .dwtag  DW_TAG_TI_far_type
    2628                      .dwattr $C$DW$272, DW_AT_type(*$C$DW$T$63)
    2629              $C$DW$T$64      .dwtag  DW_TAG_const_type
    2630                      .dwattr $C$DW$T$64, DW_AT_type(*$C$DW$272)
    2631              $C$DW$T$9       .dwtag  DW_TAG_base_type
    2632                      .dwattr $C$DW$T$9, DW_AT_encoding(DW_ATE_unsigned)
    2633                      .dwattr $C$DW$T$9, DW_AT_name("unsigned short")
    2634                      .dwattr $C$DW$T$9, DW_AT_byte_size(0x01)
    2635              $C$DW$T$41      .dwtag  DW_TAG_typedef, DW_AT_name("UBaseType_t")
    2636                      .dwattr $C$DW$T$41, DW_AT_type(*$C$DW$T$9)
    2637                      .dwattr $C$DW$T$41, DW_AT_language(DW_LANG_C)
    2638              $C$DW$T$10      .dwtag  DW_TAG_base_type
    2639                      .dwattr $C$DW$T$10, DW_AT_encoding(DW_ATE_signed)
    2640                      .dwattr $C$DW$T$10, DW_AT_name("int")
    2641                      .dwattr $C$DW$T$10, DW_AT_byte_size(0x01)
TMS320C55x Assembler PC v4.4.1 Sat Sep 08 05:55:01 2018

Tools Copyright (c) 1996-2012 Texas Instruments Incorporated
MessageBufferDemo.asm                                                PAGE   59

    2642              $C$DW$T$11      .dwtag  DW_TAG_base_type
    2643                      .dwattr $C$DW$T$11, DW_AT_encoding(DW_ATE_unsigned)
    2644                      .dwattr $C$DW$T$11, DW_AT_name("unsigned int")
    2645                      .dwattr $C$DW$T$11, DW_AT_byte_size(0x01)
    2646              $C$DW$T$76      .dwtag  DW_TAG_typedef, DW_AT_name("TickType_t")
    2647                      .dwattr $C$DW$T$76, DW_AT_type(*$C$DW$T$11)
    2648                      .dwattr $C$DW$T$76, DW_AT_language(DW_LANG_C)
    2649              $C$DW$273       .dwtag  DW_TAG_TI_far_type
    2650                      .dwattr $C$DW$273, DW_AT_type(*$C$DW$T$76)
    2651              $C$DW$T$77      .dwtag  DW_TAG_const_type
    2652                      .dwattr $C$DW$T$77, DW_AT_type(*$C$DW$273)
    2653              $C$DW$274       .dwtag  DW_TAG_TI_far_type
    2654                      .dwattr $C$DW$274, DW_AT_type(*$C$DW$T$11)
    2655              $C$DW$T$80      .dwtag  DW_TAG_volatile_type
    2656                      .dwattr $C$DW$T$80, DW_AT_type(*$C$DW$274)
    2657              $C$DW$T$27      .dwtag  DW_TAG_typedef, DW_AT_name("size_t")
    2658                      .dwattr $C$DW$T$27, DW_AT_type(*$C$DW$T$11)
    2659                      .dwattr $C$DW$T$27, DW_AT_language(DW_LANG_C)
    2660              $C$DW$275       .dwtag  DW_TAG_TI_far_type
    2661                      .dwattr $C$DW$275, DW_AT_type(*$C$DW$T$27)
    2662              $C$DW$T$93      .dwtag  DW_TAG_const_type
    2663                      .dwattr $C$DW$T$93, DW_AT_type(*$C$DW$275)
    2664              $C$DW$T$48      .dwtag  DW_TAG_typedef, DW_AT_name("uint16_t")
    2665                      .dwattr $C$DW$T$48, DW_AT_type(*$C$DW$T$11)
    2666                      .dwattr $C$DW$T$48, DW_AT_language(DW_LANG_C)
    2667              $C$DW$276       .dwtag  DW_TAG_TI_far_type
    2668                      .dwattr $C$DW$276, DW_AT_type(*$C$DW$T$48)
    2669              $C$DW$T$58      .dwtag  DW_TAG_const_type
    2670                      .dwattr $C$DW$T$58, DW_AT_type(*$C$DW$276)
    2671              $C$DW$T$12      .dwtag  DW_TAG_base_type
    2672                      .dwattr $C$DW$T$12, DW_AT_encoding(DW_ATE_signed)
    2673                      .dwattr $C$DW$T$12, DW_AT_name("long")
    2674                      .dwattr $C$DW$T$12, DW_AT_byte_size(0x02)
    2675              $C$DW$T$94      .dwtag  DW_TAG_typedef, DW_AT_name("int32_t")
    2676                      .dwattr $C$DW$T$94, DW_AT_type(*$C$DW$T$12)
    2677                      .dwattr $C$DW$T$94, DW_AT_language(DW_LANG_C)
    2678              $C$DW$277       .dwtag  DW_TAG_TI_far_type
    2679                      .dwattr $C$DW$277, DW_AT_type(*$C$DW$T$94)
    2680              $C$DW$T$95      .dwtag  DW_TAG_const_type
    2681                      .dwattr $C$DW$T$95, DW_AT_type(*$C$DW$277)
    2682              $C$DW$T$13      .dwtag  DW_TAG_base_type
    2683                      .dwattr $C$DW$T$13, DW_AT_encoding(DW_ATE_unsigned)
    2684                      .dwattr $C$DW$T$13, DW_AT_name("unsigned long")
    2685                      .dwattr $C$DW$T$13, DW_AT_byte_size(0x02)
    2686              $C$DW$T$96      .dwtag  DW_TAG_typedef, DW_AT_name("uint32_t")
    2687                      .dwattr $C$DW$T$96, DW_AT_type(*$C$DW$T$13)
    2688                      .dwattr $C$DW$T$96, DW_AT_language(DW_LANG_C)
    2689              
    2690              $C$DW$T$97      .dwtag  DW_TAG_array_type
    2691                      .dwattr $C$DW$T$97, DW_AT_type(*$C$DW$T$96)
    2692                      .dwattr $C$DW$T$97, DW_AT_language(DW_LANG_C)
    2693                      .dwattr $C$DW$T$97, DW_AT_byte_size(0x04)
    2694              $C$DW$278       .dwtag  DW_TAG_subrange_type
    2695                      .dwattr $C$DW$278, DW_AT_upper_bound(0x01)
    2696                      .dwendtag $C$DW$T$97
TMS320C55x Assembler PC v4.4.1 Sat Sep 08 05:55:01 2018

Tools Copyright (c) 1996-2012 Texas Instruments Incorporated
MessageBufferDemo.asm                                                PAGE   60

    2697              
    2698              $C$DW$T$14      .dwtag  DW_TAG_base_type
    2699                      .dwattr $C$DW$T$14, DW_AT_encoding(DW_ATE_signed)
    2700                      .dwattr $C$DW$T$14, DW_AT_name("long long")
    2701                      .dwattr $C$DW$T$14, DW_AT_byte_size(0x04)
    2702                      .dwattr $C$DW$T$14, DW_AT_bit_size(0x28)
    2703                      .dwattr $C$DW$T$14, DW_AT_bit_offset(0x18)
    2704              $C$DW$T$15      .dwtag  DW_TAG_base_type
    2705                      .dwattr $C$DW$T$15, DW_AT_encoding(DW_ATE_unsigned)
    2706                      .dwattr $C$DW$T$15, DW_AT_name("unsigned long long")
    2707                      .dwattr $C$DW$T$15, DW_AT_byte_size(0x04)
    2708                      .dwattr $C$DW$T$15, DW_AT_bit_size(0x28)
    2709                      .dwattr $C$DW$T$15, DW_AT_bit_offset(0x18)
    2710              $C$DW$T$16      .dwtag  DW_TAG_base_type
    2711                      .dwattr $C$DW$T$16, DW_AT_encoding(DW_ATE_float)
    2712                      .dwattr $C$DW$T$16, DW_AT_name("float")
    2713                      .dwattr $C$DW$T$16, DW_AT_byte_size(0x02)
    2714              $C$DW$T$17      .dwtag  DW_TAG_base_type
    2715                      .dwattr $C$DW$T$17, DW_AT_encoding(DW_ATE_float)
    2716                      .dwattr $C$DW$T$17, DW_AT_name("double")
    2717                      .dwattr $C$DW$T$17, DW_AT_byte_size(0x02)
    2718              $C$DW$T$18      .dwtag  DW_TAG_base_type
    2719                      .dwattr $C$DW$T$18, DW_AT_encoding(DW_ATE_float)
    2720                      .dwattr $C$DW$T$18, DW_AT_name("long double")
    2721                      .dwattr $C$DW$T$18, DW_AT_byte_size(0x02)
    2722              $C$DW$T$54      .dwtag  DW_TAG_base_type
    2723                      .dwattr $C$DW$T$54, DW_AT_encoding(DW_ATE_signed_char)
    2724                      .dwattr $C$DW$T$54, DW_AT_name("signed char")
    2725                      .dwattr $C$DW$T$54, DW_AT_byte_size(0x01)
    2726              $C$DW$279       .dwtag  DW_TAG_TI_far_type
    2727                      .dwattr $C$DW$279, DW_AT_type(*$C$DW$T$54)
    2728              $C$DW$T$55      .dwtag  DW_TAG_const_type
    2729                      .dwattr $C$DW$T$55, DW_AT_type(*$C$DW$279)
    2730              $C$DW$T$56      .dwtag  DW_TAG_pointer_type
    2731                      .dwattr $C$DW$T$56, DW_AT_type(*$C$DW$T$55)
    2732                      .dwattr $C$DW$T$56, DW_AT_address_class(0x17)
    2733              $C$DW$280       .dwtag  DW_TAG_TI_far_type
    2734                      .dwattr $C$DW$280, DW_AT_type(*$C$DW$T$56)
    2735              $C$DW$T$57      .dwtag  DW_TAG_const_type
    2736                      .dwattr $C$DW$T$57, DW_AT_type(*$C$DW$280)
    2737              $C$DW$T$71      .dwtag  DW_TAG_pointer_type
    2738                      .dwattr $C$DW$T$71, DW_AT_type(*$C$DW$T$54)
    2739                      .dwattr $C$DW$T$71, DW_AT_address_class(0x17)
    2740              
    2741              $C$DW$T$99      .dwtag  DW_TAG_array_type
    2742                      .dwattr $C$DW$T$99, DW_AT_type(*$C$DW$T$54)
    2743                      .dwattr $C$DW$T$99, DW_AT_language(DW_LANG_C)
    2744                      .dwattr $C$DW$T$99, DW_AT_byte_size(0x0c)
    2745              $C$DW$281       .dwtag  DW_TAG_subrange_type
    2746                      .dwattr $C$DW$281, DW_AT_upper_bound(0x0b)
    2747                      .dwendtag $C$DW$T$99
    2748              
    2749              
    2750              $C$DW$T$20      .dwtag  DW_TAG_structure_type
    2751                      .dwattr $C$DW$T$20, DW_AT_name("tskTaskControlBlock")
TMS320C55x Assembler PC v4.4.1 Sat Sep 08 05:55:01 2018

Tools Copyright (c) 1996-2012 Texas Instruments Incorporated
MessageBufferDemo.asm                                                PAGE   61

    2752                      .dwattr $C$DW$T$20, DW_AT_declaration
    2753                      .dwendtag $C$DW$T$20
    2754              
    2755              $C$DW$T$39      .dwtag  DW_TAG_pointer_type
    2756                      .dwattr $C$DW$T$39, DW_AT_type(*$C$DW$T$20)
    2757                      .dwattr $C$DW$T$39, DW_AT_address_class(0x17)
    2758              $C$DW$T$40      .dwtag  DW_TAG_typedef, DW_AT_name("TaskHandle_t")
    2759                      .dwattr $C$DW$T$40, DW_AT_type(*$C$DW$T$39)
    2760                      .dwattr $C$DW$T$40, DW_AT_language(DW_LANG_C)
    2761              $C$DW$282       .dwtag  DW_TAG_TI_far_type
    2762                      .dwattr $C$DW$282, DW_AT_type(*$C$DW$T$40)
    2763              $C$DW$T$68      .dwtag  DW_TAG_const_type
    2764                      .dwattr $C$DW$T$68, DW_AT_type(*$C$DW$282)
    2765              $C$DW$T$59      .dwtag  DW_TAG_pointer_type
    2766                      .dwattr $C$DW$T$59, DW_AT_type(*$C$DW$T$40)
    2767                      .dwattr $C$DW$T$59, DW_AT_address_class(0x17)
    2768              $C$DW$283       .dwtag  DW_TAG_TI_far_type
    2769                      .dwattr $C$DW$283, DW_AT_type(*$C$DW$T$59)
    2770              $C$DW$T$60      .dwtag  DW_TAG_const_type
    2771                      .dwattr $C$DW$T$60, DW_AT_type(*$C$DW$283)
    2772                      .dwattr $C$DW$CU, DW_AT_language(DW_LANG_C)
    2773              
    2774              ;***************************************************************
    2775              ;* DWARF CIE ENTRIES                                           *
    2776              ;***************************************************************
    2777              
    2778              $C$DW$CIE       .dwcie 91
    2779                      .dwcfi  cfa_register, 36
    2780                      .dwcfi  cfa_offset, 0
    2781                      .dwcfi  undefined, 0
    2782                      .dwcfi  undefined, 1
    2783                      .dwcfi  undefined, 2
    2784                      .dwcfi  undefined, 3
    2785                      .dwcfi  undefined, 4
    2786                      .dwcfi  undefined, 5
    2787                      .dwcfi  undefined, 6
    2788                      .dwcfi  undefined, 7
    2789                      .dwcfi  undefined, 8
    2790                      .dwcfi  undefined, 9
    2791                      .dwcfi  undefined, 10
    2792                      .dwcfi  undefined, 11
    2793                      .dwcfi  undefined, 12
    2794                      .dwcfi  undefined, 13
    2795                      .dwcfi  same_value, 14
    2796                      .dwcfi  same_value, 15
    2797                      .dwcfi  undefined, 16
    2798                      .dwcfi  undefined, 17
    2799                      .dwcfi  undefined, 18
    2800                      .dwcfi  undefined, 19
    2801                      .dwcfi  undefined, 20
    2802                      .dwcfi  undefined, 21
    2803                      .dwcfi  undefined, 22
    2804                      .dwcfi  undefined, 23
    2805                      .dwcfi  undefined, 24
    2806                      .dwcfi  undefined, 25
TMS320C55x Assembler PC v4.4.1 Sat Sep 08 05:55:01 2018

Tools Copyright (c) 1996-2012 Texas Instruments Incorporated
MessageBufferDemo.asm                                                PAGE   62

    2807                      .dwcfi  same_value, 26
    2808                      .dwcfi  same_value, 27
    2809                      .dwcfi  same_value, 28
    2810                      .dwcfi  same_value, 29
    2811                      .dwcfi  same_value, 30
    2812                      .dwcfi  same_value, 31
    2813                      .dwcfi  undefined, 32
    2814                      .dwcfi  undefined, 33
    2815                      .dwcfi  undefined, 34
    2816                      .dwcfi  undefined, 35
    2817                      .dwcfi  undefined, 36
    2818                      .dwcfi  undefined, 37
    2819                      .dwcfi  undefined, 38
    2820                      .dwcfi  undefined, 39
    2821                      .dwcfi  undefined, 40
    2822                      .dwcfi  undefined, 41
    2823                      .dwcfi  undefined, 42
    2824                      .dwcfi  undefined, 43
    2825                      .dwcfi  undefined, 44
    2826                      .dwcfi  undefined, 45
    2827                      .dwcfi  undefined, 46
    2828                      .dwcfi  undefined, 47
    2829                      .dwcfi  undefined, 48
    2830                      .dwcfi  undefined, 49
    2831                      .dwcfi  undefined, 50
    2832                      .dwcfi  undefined, 51
    2833                      .dwcfi  undefined, 52
    2834                      .dwcfi  undefined, 53
    2835                      .dwcfi  undefined, 54
    2836                      .dwcfi  undefined, 55
    2837                      .dwcfi  undefined, 56
    2838                      .dwcfi  undefined, 57
    2839                      .dwcfi  undefined, 58
    2840                      .dwcfi  undefined, 59
    2841                      .dwcfi  undefined, 60
    2842                      .dwcfi  undefined, 61
    2843                      .dwcfi  undefined, 62
    2844                      .dwcfi  undefined, 63
    2845                      .dwcfi  undefined, 64
    2846                      .dwcfi  undefined, 65
    2847                      .dwcfi  undefined, 66
    2848                      .dwcfi  undefined, 67
    2849                      .dwcfi  undefined, 68
    2850                      .dwcfi  undefined, 69
    2851                      .dwcfi  undefined, 70
    2852                      .dwcfi  undefined, 71
    2853                      .dwcfi  undefined, 72
    2854                      .dwcfi  undefined, 73
    2855                      .dwcfi  undefined, 74
    2856                      .dwcfi  undefined, 75
    2857                      .dwcfi  undefined, 76
    2858                      .dwcfi  undefined, 77
    2859                      .dwcfi  undefined, 78
    2860                      .dwcfi  undefined, 79
    2861                      .dwcfi  undefined, 80
TMS320C55x Assembler PC v4.4.1 Sat Sep 08 05:55:01 2018

Tools Copyright (c) 1996-2012 Texas Instruments Incorporated
MessageBufferDemo.asm                                                PAGE   63

    2862                      .dwcfi  undefined, 81
    2863                      .dwcfi  undefined, 82
    2864                      .dwcfi  undefined, 83
    2865                      .dwcfi  undefined, 84
    2866                      .dwcfi  undefined, 85
    2867                      .dwcfi  undefined, 86
    2868                      .dwcfi  undefined, 87
    2869                      .dwcfi  undefined, 88
    2870                      .dwcfi  undefined, 89
    2871                      .dwcfi  undefined, 90
    2872                      .dwcfi  undefined, 91
    2873                      .dwendentry
    2874              
    2875              ;***************************************************************
    2876              ;* DWARF REGISTER MAP                                          *
    2877              ;***************************************************************
    2878              
    2879              $C$DW$284       .dwtag  DW_TAG_TI_assign_register, DW_AT_name("AC0")
    2880                      .dwattr $C$DW$284, DW_AT_location[DW_OP_reg0]
    2881              $C$DW$285       .dwtag  DW_TAG_TI_assign_register, DW_AT_name("AC0")
    2882                      .dwattr $C$DW$285, DW_AT_location[DW_OP_reg1]
    2883              $C$DW$286       .dwtag  DW_TAG_TI_assign_register, DW_AT_name("AC0_G")
    2884                      .dwattr $C$DW$286, DW_AT_location[DW_OP_reg2]
    2885              $C$DW$287       .dwtag  DW_TAG_TI_assign_register, DW_AT_name("AC1")
    2886                      .dwattr $C$DW$287, DW_AT_location[DW_OP_reg3]
    2887              $C$DW$288       .dwtag  DW_TAG_TI_assign_register, DW_AT_name("AC1")
    2888                      .dwattr $C$DW$288, DW_AT_location[DW_OP_reg4]
    2889              $C$DW$289       .dwtag  DW_TAG_TI_assign_register, DW_AT_name("AC1_G")
    2890                      .dwattr $C$DW$289, DW_AT_location[DW_OP_reg5]
    2891              $C$DW$290       .dwtag  DW_TAG_TI_assign_register, DW_AT_name("AC2")
    2892                      .dwattr $C$DW$290, DW_AT_location[DW_OP_reg6]
    2893              $C$DW$291       .dwtag  DW_TAG_TI_assign_register, DW_AT_name("AC2")
    2894                      .dwattr $C$DW$291, DW_AT_location[DW_OP_reg7]
    2895              $C$DW$292       .dwtag  DW_TAG_TI_assign_register, DW_AT_name("AC2_G")
    2896                      .dwattr $C$DW$292, DW_AT_location[DW_OP_reg8]
    2897              $C$DW$293       .dwtag  DW_TAG_TI_assign_register, DW_AT_name("AC3")
    2898                      .dwattr $C$DW$293, DW_AT_location[DW_OP_reg9]
    2899              $C$DW$294       .dwtag  DW_TAG_TI_assign_register, DW_AT_name("AC3")
    2900                      .dwattr $C$DW$294, DW_AT_location[DW_OP_reg10]
    2901              $C$DW$295       .dwtag  DW_TAG_TI_assign_register, DW_AT_name("AC3_G")
    2902                      .dwattr $C$DW$295, DW_AT_location[DW_OP_reg11]
    2903              $C$DW$296       .dwtag  DW_TAG_TI_assign_register, DW_AT_name("T0")
    2904                      .dwattr $C$DW$296, DW_AT_location[DW_OP_reg12]
    2905              $C$DW$297       .dwtag  DW_TAG_TI_assign_register, DW_AT_name("T1")
    2906                      .dwattr $C$DW$297, DW_AT_location[DW_OP_reg13]
    2907              $C$DW$298       .dwtag  DW_TAG_TI_assign_register, DW_AT_name("T2")
    2908                      .dwattr $C$DW$298, DW_AT_location[DW_OP_reg14]
    2909              $C$DW$299       .dwtag  DW_TAG_TI_assign_register, DW_AT_name("T3")
    2910                      .dwattr $C$DW$299, DW_AT_location[DW_OP_reg15]
    2911              $C$DW$300       .dwtag  DW_TAG_TI_assign_register, DW_AT_name("AR0")
    2912                      .dwattr $C$DW$300, DW_AT_location[DW_OP_reg16]
    2913              $C$DW$301       .dwtag  DW_TAG_TI_assign_register, DW_AT_name("XAR0")
    2914                      .dwattr $C$DW$301, DW_AT_location[DW_OP_reg17]
    2915              $C$DW$302       .dwtag  DW_TAG_TI_assign_register, DW_AT_name("AR1")
    2916                      .dwattr $C$DW$302, DW_AT_location[DW_OP_reg18]
TMS320C55x Assembler PC v4.4.1 Sat Sep 08 05:55:01 2018

Tools Copyright (c) 1996-2012 Texas Instruments Incorporated
MessageBufferDemo.asm                                                PAGE   64

    2917              $C$DW$303       .dwtag  DW_TAG_TI_assign_register, DW_AT_name("XAR1")
    2918                      .dwattr $C$DW$303, DW_AT_location[DW_OP_reg19]
    2919              $C$DW$304       .dwtag  DW_TAG_TI_assign_register, DW_AT_name("AR2")
    2920                      .dwattr $C$DW$304, DW_AT_location[DW_OP_reg20]
    2921              $C$DW$305       .dwtag  DW_TAG_TI_assign_register, DW_AT_name("XAR2")
    2922                      .dwattr $C$DW$305, DW_AT_location[DW_OP_reg21]
    2923              $C$DW$306       .dwtag  DW_TAG_TI_assign_register, DW_AT_name("AR3")
    2924                      .dwattr $C$DW$306, DW_AT_location[DW_OP_reg22]
    2925              $C$DW$307       .dwtag  DW_TAG_TI_assign_register, DW_AT_name("XAR3")
    2926                      .dwattr $C$DW$307, DW_AT_location[DW_OP_reg23]
    2927              $C$DW$308       .dwtag  DW_TAG_TI_assign_register, DW_AT_name("AR4")
    2928                      .dwattr $C$DW$308, DW_AT_location[DW_OP_reg24]
    2929              $C$DW$309       .dwtag  DW_TAG_TI_assign_register, DW_AT_name("XAR4")
    2930                      .dwattr $C$DW$309, DW_AT_location[DW_OP_reg25]
    2931              $C$DW$310       .dwtag  DW_TAG_TI_assign_register, DW_AT_name("AR5")
    2932                      .dwattr $C$DW$310, DW_AT_location[DW_OP_reg26]
    2933              $C$DW$311       .dwtag  DW_TAG_TI_assign_register, DW_AT_name("XAR5")
    2934                      .dwattr $C$DW$311, DW_AT_location[DW_OP_reg27]
    2935              $C$DW$312       .dwtag  DW_TAG_TI_assign_register, DW_AT_name("AR6")
    2936                      .dwattr $C$DW$312, DW_AT_location[DW_OP_reg28]
    2937              $C$DW$313       .dwtag  DW_TAG_TI_assign_register, DW_AT_name("XAR6")
    2938                      .dwattr $C$DW$313, DW_AT_location[DW_OP_reg29]
    2939              $C$DW$314       .dwtag  DW_TAG_TI_assign_register, DW_AT_name("AR7")
    2940                      .dwattr $C$DW$314, DW_AT_location[DW_OP_reg30]
    2941              $C$DW$315       .dwtag  DW_TAG_TI_assign_register, DW_AT_name("XAR7")
    2942                      .dwattr $C$DW$315, DW_AT_location[DW_OP_reg31]
    2943              $C$DW$316       .dwtag  DW_TAG_TI_assign_register, DW_AT_name("FP")
    2944                      .dwattr $C$DW$316, DW_AT_location[DW_OP_regx 0x20]
    2945              $C$DW$317       .dwtag  DW_TAG_TI_assign_register, DW_AT_name("XFP")
    2946                      .dwattr $C$DW$317, DW_AT_location[DW_OP_regx 0x21]
    2947              $C$DW$318       .dwtag  DW_TAG_TI_assign_register, DW_AT_name("PC")
    2948                      .dwattr $C$DW$318, DW_AT_location[DW_OP_regx 0x22]
    2949              $C$DW$319       .dwtag  DW_TAG_TI_assign_register, DW_AT_name("SP")
    2950                      .dwattr $C$DW$319, DW_AT_location[DW_OP_regx 0x23]
    2951              $C$DW$320       .dwtag  DW_TAG_TI_assign_register, DW_AT_name("XSP")
    2952                      .dwattr $C$DW$320, DW_AT_location[DW_OP_regx 0x24]
    2953              $C$DW$321       .dwtag  DW_TAG_TI_assign_register, DW_AT_name("BKC")
    2954                      .dwattr $C$DW$321, DW_AT_location[DW_OP_regx 0x25]
    2955              $C$DW$322       .dwtag  DW_TAG_TI_assign_register, DW_AT_name("BK03")
    2956                      .dwattr $C$DW$322, DW_AT_location[DW_OP_regx 0x26]
    2957              $C$DW$323       .dwtag  DW_TAG_TI_assign_register, DW_AT_name("BK47")
    2958                      .dwattr $C$DW$323, DW_AT_location[DW_OP_regx 0x27]
    2959              $C$DW$324       .dwtag  DW_TAG_TI_assign_register, DW_AT_name("ST0")
    2960                      .dwattr $C$DW$324, DW_AT_location[DW_OP_regx 0x28]
    2961              $C$DW$325       .dwtag  DW_TAG_TI_assign_register, DW_AT_name("ST1")
    2962                      .dwattr $C$DW$325, DW_AT_location[DW_OP_regx 0x29]
    2963              $C$DW$326       .dwtag  DW_TAG_TI_assign_register, DW_AT_name("ST2")
    2964                      .dwattr $C$DW$326, DW_AT_location[DW_OP_regx 0x2a]
    2965              $C$DW$327       .dwtag  DW_TAG_TI_assign_register, DW_AT_name("ST3")
    2966                      .dwattr $C$DW$327, DW_AT_location[DW_OP_regx 0x2b]
    2967              $C$DW$328       .dwtag  DW_TAG_TI_assign_register, DW_AT_name("MDP")
    2968                      .dwattr $C$DW$328, DW_AT_location[DW_OP_regx 0x2c]
    2969              $C$DW$329       .dwtag  DW_TAG_TI_assign_register, DW_AT_name("MDP05")
    2970                      .dwattr $C$DW$329, DW_AT_location[DW_OP_regx 0x2d]
    2971              $C$DW$330       .dwtag  DW_TAG_TI_assign_register, DW_AT_name("MDP67")
TMS320C55x Assembler PC v4.4.1 Sat Sep 08 05:55:01 2018

Tools Copyright (c) 1996-2012 Texas Instruments Incorporated
MessageBufferDemo.asm                                                PAGE   65

    2972                      .dwattr $C$DW$330, DW_AT_location[DW_OP_regx 0x2e]
    2973              $C$DW$331       .dwtag  DW_TAG_TI_assign_register, DW_AT_name("BRC0")
    2974                      .dwattr $C$DW$331, DW_AT_location[DW_OP_regx 0x2f]
    2975              $C$DW$332       .dwtag  DW_TAG_TI_assign_register, DW_AT_name("RSA0")
    2976                      .dwattr $C$DW$332, DW_AT_location[DW_OP_regx 0x30]
    2977              $C$DW$333       .dwtag  DW_TAG_TI_assign_register, DW_AT_name("RSA0_H")
    2978                      .dwattr $C$DW$333, DW_AT_location[DW_OP_regx 0x31]
    2979              $C$DW$334       .dwtag  DW_TAG_TI_assign_register, DW_AT_name("REA0")
    2980                      .dwattr $C$DW$334, DW_AT_location[DW_OP_regx 0x32]
    2981              $C$DW$335       .dwtag  DW_TAG_TI_assign_register, DW_AT_name("REA0_H")
    2982                      .dwattr $C$DW$335, DW_AT_location[DW_OP_regx 0x33]
    2983              $C$DW$336       .dwtag  DW_TAG_TI_assign_register, DW_AT_name("BRS1")
    2984                      .dwattr $C$DW$336, DW_AT_location[DW_OP_regx 0x34]
    2985              $C$DW$337       .dwtag  DW_TAG_TI_assign_register, DW_AT_name("BRC1")
    2986                      .dwattr $C$DW$337, DW_AT_location[DW_OP_regx 0x35]
    2987              $C$DW$338       .dwtag  DW_TAG_TI_assign_register, DW_AT_name("RSA1")
    2988                      .dwattr $C$DW$338, DW_AT_location[DW_OP_regx 0x36]
    2989              $C$DW$339       .dwtag  DW_TAG_TI_assign_register, DW_AT_name("RSA1_H")
    2990                      .dwattr $C$DW$339, DW_AT_location[DW_OP_regx 0x37]
    2991              $C$DW$340       .dwtag  DW_TAG_TI_assign_register, DW_AT_name("REA1")
    2992                      .dwattr $C$DW$340, DW_AT_location[DW_OP_regx 0x38]
    2993              $C$DW$341       .dwtag  DW_TAG_TI_assign_register, DW_AT_name("REA1_H")
    2994                      .dwattr $C$DW$341, DW_AT_location[DW_OP_regx 0x39]
    2995              $C$DW$342       .dwtag  DW_TAG_TI_assign_register, DW_AT_name("CSR")
    2996                      .dwattr $C$DW$342, DW_AT_location[DW_OP_regx 0x3a]
    2997              $C$DW$343       .dwtag  DW_TAG_TI_assign_register, DW_AT_name("RPTC")
    2998                      .dwattr $C$DW$343, DW_AT_location[DW_OP_regx 0x3b]
    2999              $C$DW$344       .dwtag  DW_TAG_TI_assign_register, DW_AT_name("CDP")
    3000                      .dwattr $C$DW$344, DW_AT_location[DW_OP_regx 0x3c]
    3001              $C$DW$345       .dwtag  DW_TAG_TI_assign_register, DW_AT_name("XCDP")
    3002                      .dwattr $C$DW$345, DW_AT_location[DW_OP_regx 0x3d]
    3003              $C$DW$346       .dwtag  DW_TAG_TI_assign_register, DW_AT_name("TRN0")
    3004                      .dwattr $C$DW$346, DW_AT_location[DW_OP_regx 0x3e]
    3005              $C$DW$347       .dwtag  DW_TAG_TI_assign_register, DW_AT_name("TRN1")
    3006                      .dwattr $C$DW$347, DW_AT_location[DW_OP_regx 0x3f]
    3007              $C$DW$348       .dwtag  DW_TAG_TI_assign_register, DW_AT_name("BSA01")
    3008                      .dwattr $C$DW$348, DW_AT_location[DW_OP_regx 0x40]
    3009              $C$DW$349       .dwtag  DW_TAG_TI_assign_register, DW_AT_name("BSA23")
    3010                      .dwattr $C$DW$349, DW_AT_location[DW_OP_regx 0x41]
    3011              $C$DW$350       .dwtag  DW_TAG_TI_assign_register, DW_AT_name("BSA45")
    3012                      .dwattr $C$DW$350, DW_AT_location[DW_OP_regx 0x42]
    3013              $C$DW$351       .dwtag  DW_TAG_TI_assign_register, DW_AT_name("BSA67")
    3014                      .dwattr $C$DW$351, DW_AT_location[DW_OP_regx 0x43]
    3015              $C$DW$352       .dwtag  DW_TAG_TI_assign_register, DW_AT_name("BSAC")
    3016                      .dwattr $C$DW$352, DW_AT_location[DW_OP_regx 0x44]
    3017              $C$DW$353       .dwtag  DW_TAG_TI_assign_register, DW_AT_name("CARRY")
    3018                      .dwattr $C$DW$353, DW_AT_location[DW_OP_regx 0x45]
    3019              $C$DW$354       .dwtag  DW_TAG_TI_assign_register, DW_AT_name("TC1")
    3020                      .dwattr $C$DW$354, DW_AT_location[DW_OP_regx 0x46]
    3021              $C$DW$355       .dwtag  DW_TAG_TI_assign_register, DW_AT_name("TC2")
    3022                      .dwattr $C$DW$355, DW_AT_location[DW_OP_regx 0x47]
    3023              $C$DW$356       .dwtag  DW_TAG_TI_assign_register, DW_AT_name("M40")
    3024                      .dwattr $C$DW$356, DW_AT_location[DW_OP_regx 0x48]
    3025              $C$DW$357       .dwtag  DW_TAG_TI_assign_register, DW_AT_name("SXMD")
    3026                      .dwattr $C$DW$357, DW_AT_location[DW_OP_regx 0x49]
TMS320C55x Assembler PC v4.4.1 Sat Sep 08 05:55:01 2018

Tools Copyright (c) 1996-2012 Texas Instruments Incorporated
MessageBufferDemo.asm                                                PAGE   66

    3027              $C$DW$358       .dwtag  DW_TAG_TI_assign_register, DW_AT_name("ARMS")
    3028                      .dwattr $C$DW$358, DW_AT_location[DW_OP_regx 0x4a]
    3029              $C$DW$359       .dwtag  DW_TAG_TI_assign_register, DW_AT_name("C54CM")
    3030                      .dwattr $C$DW$359, DW_AT_location[DW_OP_regx 0x4b]
    3031              $C$DW$360       .dwtag  DW_TAG_TI_assign_register, DW_AT_name("SATA")
    3032                      .dwattr $C$DW$360, DW_AT_location[DW_OP_regx 0x4c]
    3033              $C$DW$361       .dwtag  DW_TAG_TI_assign_register, DW_AT_name("SATD")
    3034                      .dwattr $C$DW$361, DW_AT_location[DW_OP_regx 0x4d]
    3035              $C$DW$362       .dwtag  DW_TAG_TI_assign_register, DW_AT_name("RDM")
    3036                      .dwattr $C$DW$362, DW_AT_location[DW_OP_regx 0x4e]
    3037              $C$DW$363       .dwtag  DW_TAG_TI_assign_register, DW_AT_name("FRCT")
    3038                      .dwattr $C$DW$363, DW_AT_location[DW_OP_regx 0x4f]
    3039              $C$DW$364       .dwtag  DW_TAG_TI_assign_register, DW_AT_name("SMUL")
    3040                      .dwattr $C$DW$364, DW_AT_location[DW_OP_regx 0x50]
    3041              $C$DW$365       .dwtag  DW_TAG_TI_assign_register, DW_AT_name("INTM")
    3042                      .dwattr $C$DW$365, DW_AT_location[DW_OP_regx 0x51]
    3043              $C$DW$366       .dwtag  DW_TAG_TI_assign_register, DW_AT_name("AR0LC")
    3044                      .dwattr $C$DW$366, DW_AT_location[DW_OP_regx 0x52]
    3045              $C$DW$367       .dwtag  DW_TAG_TI_assign_register, DW_AT_name("AR1LC")
    3046                      .dwattr $C$DW$367, DW_AT_location[DW_OP_regx 0x53]
    3047              $C$DW$368       .dwtag  DW_TAG_TI_assign_register, DW_AT_name("AR2LC")
    3048                      .dwattr $C$DW$368, DW_AT_location[DW_OP_regx 0x54]
    3049              $C$DW$369       .dwtag  DW_TAG_TI_assign_register, DW_AT_name("AR3LC")
    3050                      .dwattr $C$DW$369, DW_AT_location[DW_OP_regx 0x55]
    3051              $C$DW$370       .dwtag  DW_TAG_TI_assign_register, DW_AT_name("AR4LC")
    3052                      .dwattr $C$DW$370, DW_AT_location[DW_OP_regx 0x56]
    3053              $C$DW$371       .dwtag  DW_TAG_TI_assign_register, DW_AT_name("AR5LC")
    3054                      .dwattr $C$DW$371, DW_AT_location[DW_OP_regx 0x57]
    3055              $C$DW$372       .dwtag  DW_TAG_TI_assign_register, DW_AT_name("AR6LC")
    3056                      .dwattr $C$DW$372, DW_AT_location[DW_OP_regx 0x58]
    3057              $C$DW$373       .dwtag  DW_TAG_TI_assign_register, DW_AT_name("AR7LC")
    3058                      .dwattr $C$DW$373, DW_AT_location[DW_OP_regx 0x59]
    3059              $C$DW$374       .dwtag  DW_TAG_TI_assign_register, DW_AT_name("CDPLC")
    3060                      .dwattr $C$DW$374, DW_AT_location[DW_OP_regx 0x5a]
    3061              $C$DW$375       .dwtag  DW_TAG_TI_assign_register, DW_AT_name("CIE_RETA")
    3062                      .dwattr $C$DW$375, DW_AT_location[DW_OP_regx 0x5b]
    3063                      .dwendtag $C$DW$CU
    3064              
    3064              
    3064              

No Assembly Errors, No Assembly Warnings
