TMS320C55x Assembler PC v4.4.1 Fri Sep 07 01:41:44 2018

Tools Copyright (c) 1996-2012 Texas Instruments Incorporated
QPeek.asm                                                            PAGE    1

    2036              ; Temporary Registers Used: None
       1              ;*******************************************************************************
       2              ;* TMS320C55x C/C++ Codegen                                          PC v4.4.1 *
       3              ;* Date/Time created: Fri Sep 07 01:41:43 2018                                 *
       4              ;*******************************************************************************
       5                      .compiler_opts --hll_source=on --mem_model:code=flat --mem_model:data=large --object_format=coff --si
       6                      .mmregs
       7                      .cpl_on
       8                      .arms_on
       9                      .c54cm_off
      10                      .asg AR6, FP
      11                      .asg XAR6, XFP
      12                      .asg DPH, MDP
      13                      .model call=c55_std
      14                      .model mem=large
      15                      .noremark 5002  ; code respects overwrite rules
      16              ;*******************************************************************************
      17              ;* GLOBAL FILE PARAMETERS                                                      *
      18              ;*                                                                             *
      19              ;*   Architecture       : TMS320C55x                                           *
      20              ;*   Optimizing for     : Speed                                                *
      21              ;*   Memory             : Large Model (23-Bit Data Pointers)                   *
      22              ;*   Calls              : Normal Library ASM calls                             *
      23              ;*   Debug Info         : Standard TI Debug Information                        *
      24              ;*******************************************************************************
      25              
      26              $C$DW$CU        .dwtag  DW_TAG_compile_unit
      27                      .dwattr $C$DW$CU, DW_AT_name("../FreeRTOS/Demo/Common/Minimal/QPeek.c")
      28                      .dwattr $C$DW$CU, DW_AT_producer("TMS320C55x C/C++ Codegen PC v4.4.1 Copyright (c) 1996-2012 Texas In
      29                      .dwattr $C$DW$CU, DW_AT_TI_version(0x01)
      30                      .dwattr $C$DW$CU, DW_AT_comp_dir("F:\site\eZDSP\eZDSP_5535_Files\ccsws2\test\Debug")
      31              ;******************************************************************************
      32              ;* CINIT RECORDS                                                              *
      33              ;******************************************************************************
      34 000000               .sect   ".cinit"
      35                      .align  1
      36 000000 0001          .field          1,16
      37 000001 0000-         .field          _xErrorDetected+0,24
         000002 0000 
      38 000002 0000          .field          0,8
      39 000003 0000          .field  0,16                    ; _xErrorDetected @ 0
      40              
      41 000004               .sect   ".cinit"
      42                      .align  1
      43 000004 0002          .field          2,16
      44 000005 0000-         .field          _ulLoopCounter+0,24
         000006 0200 
      45 000006 0200          .field          0,8
      46 000007 0000          .field  0,32                    ; _ulLoopCounter @ 0
         000008 0000 
      47              
      48 000009               .sect   ".cinit"
      49                      .align  1
      50 000009 0002          .field          2,16
      51 00000a 0000-         .field          _ulLastLoopCounter$1+0,24
TMS320C55x Assembler PC v4.4.1 Fri Sep 07 01:41:44 2018

Tools Copyright (c) 1996-2012 Texas Instruments Incorporated
QPeek.asm                                                            PAGE    2

         00000b 0A00 
      52 00000b 0A00          .field          0,8
      53 00000c 0000          .field  0,32                    ; _ulLastLoopCounter$1 @ 0
         00000d 0000 
      54              
      55              
      56              $C$DW$1 .dwtag  DW_TAG_subprogram, DW_AT_name("vTaskDelay")
      57                      .dwattr $C$DW$1, DW_AT_TI_symbol_name("_vTaskDelay")
      58                      .dwattr $C$DW$1, DW_AT_declaration
      59                      .dwattr $C$DW$1, DW_AT_external
      60              $C$DW$2 .dwtag  DW_TAG_formal_parameter
      61                      .dwattr $C$DW$2, DW_AT_type(*$C$DW$T$27)
      62                      .dwendtag $C$DW$1
      63              
      64              
      65              $C$DW$3 .dwtag  DW_TAG_subprogram, DW_AT_name("vTaskSuspend")
      66                      .dwattr $C$DW$3, DW_AT_TI_symbol_name("_vTaskSuspend")
      67                      .dwattr $C$DW$3, DW_AT_declaration
      68                      .dwattr $C$DW$3, DW_AT_external
      69              $C$DW$4 .dwtag  DW_TAG_formal_parameter
      70                      .dwattr $C$DW$4, DW_AT_type(*$C$DW$T$25)
      71                      .dwendtag $C$DW$3
      72              
      73              
      74              $C$DW$5 .dwtag  DW_TAG_subprogram, DW_AT_name("vTaskResume")
      75                      .dwattr $C$DW$5, DW_AT_TI_symbol_name("_vTaskResume")
      76                      .dwattr $C$DW$5, DW_AT_declaration
      77                      .dwattr $C$DW$5, DW_AT_external
      78              $C$DW$6 .dwtag  DW_TAG_formal_parameter
      79                      .dwattr $C$DW$6, DW_AT_type(*$C$DW$T$25)
      80                      .dwendtag $C$DW$5
      81              
      82              
      83              $C$DW$7 .dwtag  DW_TAG_subprogram, DW_AT_name("xTaskGenericCreate")
      84                      .dwattr $C$DW$7, DW_AT_TI_symbol_name("_xTaskGenericCreate")
      85                      .dwattr $C$DW$7, DW_AT_type(*$C$DW$T$10)
      86                      .dwattr $C$DW$7, DW_AT_declaration
      87                      .dwattr $C$DW$7, DW_AT_external
      88              $C$DW$8 .dwtag  DW_TAG_formal_parameter
      89                      .dwattr $C$DW$8, DW_AT_type(*$C$DW$T$34)
      90              $C$DW$9 .dwtag  DW_TAG_formal_parameter
      91                      .dwattr $C$DW$9, DW_AT_type(*$C$DW$T$41)
      92              $C$DW$10        .dwtag  DW_TAG_formal_parameter
      93                      .dwattr $C$DW$10, DW_AT_type(*$C$DW$T$9)
      94              $C$DW$11        .dwtag  DW_TAG_formal_parameter
      95                      .dwattr $C$DW$11, DW_AT_type(*$C$DW$T$3)
      96              $C$DW$12        .dwtag  DW_TAG_formal_parameter
      97                      .dwattr $C$DW$12, DW_AT_type(*$C$DW$T$11)
      98              $C$DW$13        .dwtag  DW_TAG_formal_parameter
      99                      .dwattr $C$DW$13, DW_AT_type(*$C$DW$T$26)
     100              $C$DW$14        .dwtag  DW_TAG_formal_parameter
     101                      .dwattr $C$DW$14, DW_AT_type(*$C$DW$T$43)
     102              $C$DW$15        .dwtag  DW_TAG_formal_parameter
     103                      .dwattr $C$DW$15, DW_AT_type(*$C$DW$T$47)
     104                      .dwendtag $C$DW$7
TMS320C55x Assembler PC v4.4.1 Fri Sep 07 01:41:44 2018

Tools Copyright (c) 1996-2012 Texas Instruments Incorporated
QPeek.asm                                                            PAGE    3

     105              
     106              
     107              $C$DW$16        .dwtag  DW_TAG_subprogram, DW_AT_name("xQueueCreate")
     108                      .dwattr $C$DW$16, DW_AT_TI_symbol_name("_xQueueCreate")
     109                      .dwattr $C$DW$16, DW_AT_type(*$C$DW$T$21)
     110                      .dwattr $C$DW$16, DW_AT_declaration
     111                      .dwattr $C$DW$16, DW_AT_external
     112              $C$DW$17        .dwtag  DW_TAG_formal_parameter
     113                      .dwattr $C$DW$17, DW_AT_type(*$C$DW$T$11)
     114              $C$DW$18        .dwtag  DW_TAG_formal_parameter
     115                      .dwattr $C$DW$18, DW_AT_type(*$C$DW$T$11)
     116                      .dwendtag $C$DW$16
     117              
     118              
     119              $C$DW$19        .dwtag  DW_TAG_subprogram, DW_AT_name("xQueueGenericSend")
     120                      .dwattr $C$DW$19, DW_AT_TI_symbol_name("_xQueueGenericSend")
     121                      .dwattr $C$DW$19, DW_AT_type(*$C$DW$T$10)
     122                      .dwattr $C$DW$19, DW_AT_declaration
     123                      .dwattr $C$DW$19, DW_AT_external
     124              $C$DW$20        .dwtag  DW_TAG_formal_parameter
     125                      .dwattr $C$DW$20, DW_AT_type(*$C$DW$T$21)
     126              $C$DW$21        .dwtag  DW_TAG_formal_parameter
     127                      .dwattr $C$DW$21, DW_AT_type(*$C$DW$T$37)
     128              $C$DW$22        .dwtag  DW_TAG_formal_parameter
     129                      .dwattr $C$DW$22, DW_AT_type(*$C$DW$T$27)
     130              $C$DW$23        .dwtag  DW_TAG_formal_parameter
     131                      .dwattr $C$DW$23, DW_AT_type(*$C$DW$T$10)
     132                      .dwendtag $C$DW$19
     133              
     134              
     135              $C$DW$24        .dwtag  DW_TAG_subprogram, DW_AT_name("xQueueGenericReceive")
     136                      .dwattr $C$DW$24, DW_AT_TI_symbol_name("_xQueueGenericReceive")
     137                      .dwattr $C$DW$24, DW_AT_type(*$C$DW$T$10)
     138                      .dwattr $C$DW$24, DW_AT_declaration
     139                      .dwattr $C$DW$24, DW_AT_external
     140              $C$DW$25        .dwtag  DW_TAG_formal_parameter
     141                      .dwattr $C$DW$25, DW_AT_type(*$C$DW$T$21)
     142              $C$DW$26        .dwtag  DW_TAG_formal_parameter
     143                      .dwattr $C$DW$26, DW_AT_type(*$C$DW$T$20)
     144              $C$DW$27        .dwtag  DW_TAG_formal_parameter
     145                      .dwattr $C$DW$27, DW_AT_type(*$C$DW$T$27)
     146              $C$DW$28        .dwtag  DW_TAG_formal_parameter
     147                      .dwattr $C$DW$28, DW_AT_type(*$C$DW$T$10)
     148                      .dwendtag $C$DW$24
     149              
     150              
     151              $C$DW$29        .dwtag  DW_TAG_subprogram, DW_AT_name("uxQueueMessagesWaiting")
     152                      .dwattr $C$DW$29, DW_AT_TI_symbol_name("_uxQueueMessagesWaiting")
     153                      .dwattr $C$DW$29, DW_AT_type(*$C$DW$T$11)
     154                      .dwattr $C$DW$29, DW_AT_declaration
     155                      .dwattr $C$DW$29, DW_AT_external
     156              $C$DW$30        .dwtag  DW_TAG_formal_parameter
     157                      .dwattr $C$DW$30, DW_AT_type(*$C$DW$T$24)
     158                      .dwendtag $C$DW$29
     159              
TMS320C55x Assembler PC v4.4.1 Fri Sep 07 01:41:44 2018

Tools Copyright (c) 1996-2012 Texas Instruments Incorporated
QPeek.asm                                                            PAGE    4

     160 000000               .bss    _xErrorDetected,1,0,0
     161              $C$DW$31        .dwtag  DW_TAG_variable, DW_AT_name("xErrorDetected")
     162                      .dwattr $C$DW$31, DW_AT_TI_symbol_name("_xErrorDetected")
     163                      .dwattr $C$DW$31, DW_AT_type(*$C$DW$T$55)
     164                      .dwattr $C$DW$31, DW_AT_location[DW_OP_addr _xErrorDetected]
     165 000002               .bss    _ulLoopCounter,2,0,2
     166              $C$DW$32        .dwtag  DW_TAG_variable, DW_AT_name("ulLoopCounter")
     167                      .dwattr $C$DW$32, DW_AT_TI_symbol_name("_ulLoopCounter")
     168                      .dwattr $C$DW$32, DW_AT_type(*$C$DW$T$58)
     169                      .dwattr $C$DW$32, DW_AT_location[DW_OP_addr _ulLoopCounter]
     170                      .global _xMediumPriorityTask
     171 000004               .bss    _xMediumPriorityTask,2,0,2
     172              $C$DW$33        .dwtag  DW_TAG_variable, DW_AT_name("xMediumPriorityTask")
     173                      .dwattr $C$DW$33, DW_AT_TI_symbol_name("_xMediumPriorityTask")
     174                      .dwattr $C$DW$33, DW_AT_location[DW_OP_addr _xMediumPriorityTask]
     175                      .dwattr $C$DW$33, DW_AT_type(*$C$DW$T$25)
     176                      .dwattr $C$DW$33, DW_AT_external
     177                      .global _xHighPriorityTask
     178 000006               .bss    _xHighPriorityTask,2,0,2
     179              $C$DW$34        .dwtag  DW_TAG_variable, DW_AT_name("xHighPriorityTask")
     180                      .dwattr $C$DW$34, DW_AT_TI_symbol_name("_xHighPriorityTask")
     181                      .dwattr $C$DW$34, DW_AT_location[DW_OP_addr _xHighPriorityTask]
     182                      .dwattr $C$DW$34, DW_AT_type(*$C$DW$T$25)
     183                      .dwattr $C$DW$34, DW_AT_external
     184                      .global _xHighestPriorityTask
     185 000008               .bss    _xHighestPriorityTask,2,0,2
     186              $C$DW$35        .dwtag  DW_TAG_variable, DW_AT_name("xHighestPriorityTask")
     187                      .dwattr $C$DW$35, DW_AT_TI_symbol_name("_xHighestPriorityTask")
     188                      .dwattr $C$DW$35, DW_AT_location[DW_OP_addr _xHighestPriorityTask]
     189                      .dwattr $C$DW$35, DW_AT_type(*$C$DW$T$25)
     190                      .dwattr $C$DW$35, DW_AT_external
     191 00000a               .bss    _ulLastLoopCounter$1,2,0,2
     192              ;       F:\TI_CCS_7P4\ccsv7\tools\compiler\c5500_4.4.1\bin\acp55.exe -@f:\\AppData\\Local\\Temp\\0238012 
     193 000000               .sect   ".text"
     194                      .align 4
     195                      .global _vStartQueuePeekTasks
     196              
     197              $C$DW$36        .dwtag  DW_TAG_subprogram, DW_AT_name("vStartQueuePeekTasks")
     198                      .dwattr $C$DW$36, DW_AT_low_pc(_vStartQueuePeekTasks)
     199                      .dwattr $C$DW$36, DW_AT_high_pc(0x00)
     200                      .dwattr $C$DW$36, DW_AT_TI_symbol_name("_vStartQueuePeekTasks")
     201                      .dwattr $C$DW$36, DW_AT_external
     202                      .dwattr $C$DW$36, DW_AT_TI_begin_file("../FreeRTOS/Demo/Common/Minimal/QPeek.c")
     203                      .dwattr $C$DW$36, DW_AT_TI_begin_line(0x6b)
     204                      .dwattr $C$DW$36, DW_AT_TI_begin_column(0x06)
     205                      .dwattr $C$DW$36, DW_AT_TI_max_frame_size(0x04)
     206                      .dwpsn  file "../FreeRTOS/Demo/Common/Minimal/QPeek.c",line 108,column 1,is_stmt,address _vStartQueue
     207              
     208                      .dwfde $C$DW$CIE, _vStartQueuePeekTasks
     209              ;*******************************************************************************
     210              ;* FUNCTION NAME: vStartQueuePeekTasks                                         *
     211              ;*                                                                             *
     212              ;*   Function Uses Regs : AC0,AC0,T0,T1,AR0,XAR0,AR1,XAR1,AR2,XAR2,AR3,XAR3,   *
     213              ;*                        AR4,XAR4,SP,M40,SATA,SATD,RDM,FRCT,SMUL              *
     214              ;*   Stack Frame        : Compact (No Frame Pointer, w/ debug)                 *
TMS320C55x Assembler PC v4.4.1 Fri Sep 07 01:41:44 2018

Tools Copyright (c) 1996-2012 Texas Instruments Incorporated
QPeek.asm                                                            PAGE    5

     215              ;*   Total Frame Size   : 4 words                                              *
     216              ;*                        (2 return address/alignment)                         *
     217              ;*                        (2 local values)                                     *
     218              ;*   Min System Stack   : 1 word                                               *
     219              ;*******************************************************************************
     220 000000       _vStartQueuePeekTasks:
     221                      .dwcfi  cfa_offset, 1
     222                      .dwcfi  save_reg_to_mem, 91, -1
     223 000000 4EFD          AADD #-3, SP
     224                      .dwcfi  cfa_offset, 4
     225              $C$DW$37        .dwtag  DW_TAG_variable, DW_AT_name("xQueue")
     226                      .dwattr $C$DW$37, DW_AT_TI_symbol_name("_xQueue")
     227                      .dwattr $C$DW$37, DW_AT_type(*$C$DW$T$21)
     228                      .dwattr $C$DW$37, DW_AT_location[DW_OP_bregx 0x24 0]
     229                      .dwpsn  file "../FreeRTOS/Demo/Common/Minimal/QPeek.c",line 112,column 2,is_stmt
     230 000002 3C54          MOV #5, T0
     231              $C$DW$38        .dwtag  DW_TAG_TI_branch
     232                      .dwattr $C$DW$38, DW_AT_low_pc(0x00)
     233                      .dwattr $C$DW$38, DW_AT_name("_xQueueCreate")
     234                      .dwattr $C$DW$38, DW_AT_TI_call
     235              
     236 000004 6C00          CALL #_xQueueCreate ; |112| 
         000006 0000!
     237 000008 3D25  ||      MOV #2, T1
     238              
     239                                                      ; call occurs [#_xQueueCreate] ; |112| 
     240 00000a EB00          MOV XAR0, dbl(*SP(#0))
         00000c 85   
     241                      .dwpsn  file "../FreeRTOS/Demo/Common/Minimal/QPeek.c",line 125,column 2,is_stmt
     242 00000d 7A00          MOV #(_prvLowPriorityPeekTask >> 16) << #16, AC0 ; |125| 
         00000f 000A%
     243 000011 EC31          AMOV #0, XAR4 ; |125| 
         000013 CE00 
         000015 0000 
     244 000017 EC31          AMOV #0, XAR3 ; |125| 
         000019 BE00 
         00001b 0000 
     245 00001d EC31          AMOV #0, XAR2 ; |125| 
         00001f AE00 
         000021 0000 
     246 000023 7600          MOV #128, T0 ; |125| 
         000025 8048 
     247 000027 ED00          MOV dbl(*SP(#0)), XAR1
         000029 9F   
     248 00002a 7E00          OR #(_prvLowPriorityPeekTask & 0xffff), AC0, AC0 ; |125| 
         00002c 0000%
     249 00002e EC31          AMOV #$C$FSL1, XAR0 ; |125| 
         000030 8E00 
         000032 0000+
     250              $C$DW$39        .dwtag  DW_TAG_TI_branch
     251                      .dwattr $C$DW$39, DW_AT_low_pc(0x00)
     252                      .dwattr $C$DW$39, DW_AT_name("_xTaskGenericCreate")
     253                      .dwattr $C$DW$39, DW_AT_TI_call
     254              
     255 000034 6C00          CALL #_xTaskGenericCreate ; |125| 
TMS320C55x Assembler PC v4.4.1 Fri Sep 07 01:41:44 2018

Tools Copyright (c) 1996-2012 Texas Instruments Incorporated
QPeek.asm                                                            PAGE    6

         000036 0000!
     256 000038 3D05  ||      MOV #0, T1
     257              
     258                                                      ; call occurs [#_xTaskGenericCreate] ; |125| 
     259                      .dwpsn  file "../FreeRTOS/Demo/Common/Minimal/QPeek.c",line 126,column 2,is_stmt
     260 00003a 7600          MOV #128, T0 ; |126| 
         00003c 8048 
     261 00003e EC31          AMOV #0, XAR4 ; |126| 
         000040 CE00 
         000042 0000 
     262 000044 EC31          AMOV #0, XAR3 ; |126| 
         000046 BE00 
         000048 0000 
     263 00004a EC31          AMOV #_xMediumPriorityTask, XAR2 ; |126| 
         00004c AE00 
         00004e 0004-
     264 000050 ED00          MOV dbl(*SP(#0)), XAR1
         000052 9F   
     265 000053 EC31          AMOV #$C$FSL2, XAR0 ; |126| 
         000055 8E00 
         000057 0006+
     266 000059 7A00          MOV #(_prvMediumPriorityPeekTask >> 16) << #16, AC0 ; |126| 
         00005b 000A%
     267 00005d 7E00          OR #(_prvMediumPriorityPeekTask & 0xffff), AC0, AC0 ; |126| 
         00005f 0000%
     268              $C$DW$40        .dwtag  DW_TAG_TI_branch
     269                      .dwattr $C$DW$40, DW_AT_low_pc(0x00)
     270                      .dwattr $C$DW$40, DW_AT_name("_xTaskGenericCreate")
     271                      .dwattr $C$DW$40, DW_AT_TI_call
     272              
     273 000061 6C00          CALL #_xTaskGenericCreate ; |126| 
         000063 0000!
     274 000065 3D15  ||      MOV #1, T1
     275              
     276                                                      ; call occurs [#_xTaskGenericCreate] ; |126| 
     277                      .dwpsn  file "../FreeRTOS/Demo/Common/Minimal/QPeek.c",line 127,column 2,is_stmt
     278 000067 7600          MOV #128, T0 ; |127| 
         000069 8048 
     279 00006b EC31          AMOV #0, XAR4 ; |127| 
         00006d CE00 
         00006f 0000 
     280 000071 EC31          AMOV #0, XAR3 ; |127| 
         000073 BE00 
         000075 0000 
     281 000077 EC31          AMOV #_xHighPriorityTask, XAR2 ; |127| 
         000079 AE00 
         00007b 0006-
     282 00007d ED00          MOV dbl(*SP(#0)), XAR1
         00007f 9F   
     283 000080 EC31          AMOV #$C$FSL3, XAR0 ; |127| 
         000082 8E00 
         000084 000C+
     284 000086 7A00          MOV #(_prvHighPriorityPeekTask >> 16) << #16, AC0 ; |127| 
         000088 000A%
     285 00008a 7E00          OR #(_prvHighPriorityPeekTask & 0xffff), AC0, AC0 ; |127| 
TMS320C55x Assembler PC v4.4.1 Fri Sep 07 01:41:44 2018

Tools Copyright (c) 1996-2012 Texas Instruments Incorporated
QPeek.asm                                                            PAGE    7

         00008c 0000%
     286              $C$DW$41        .dwtag  DW_TAG_TI_branch
     287                      .dwattr $C$DW$41, DW_AT_low_pc(0x00)
     288                      .dwattr $C$DW$41, DW_AT_name("_xTaskGenericCreate")
     289                      .dwattr $C$DW$41, DW_AT_TI_call
     290              
     291 00008e 6C00          CALL #_xTaskGenericCreate ; |127| 
         000090 0000!
     292 000092 3D25  ||      MOV #2, T1
     293              
     294                                                      ; call occurs [#_xTaskGenericCreate] ; |127| 
     295                      .dwpsn  file "../FreeRTOS/Demo/Common/Minimal/QPeek.c",line 128,column 2,is_stmt
     296 000094 7600          MOV #128, T0 ; |128| 
         000096 8048 
     297 000098 EC31          AMOV #0, XAR4 ; |128| 
         00009a CE00 
         00009c 0000 
     298 00009e EC31          AMOV #0, XAR3 ; |128| 
         0000a0 BE00 
         0000a2 0000 
     299 0000a4 EC31          AMOV #_xHighestPriorityTask, XAR2 ; |128| 
         0000a6 AE00 
         0000a8 0008-
     300 0000aa ED00          MOV dbl(*SP(#0)), XAR1
         0000ac 9F   
     301 0000ad EC31          AMOV #$C$FSL4, XAR0 ; |128| 
         0000af 8E00 
         0000b1 0014+
     302 0000b3 7A00          MOV #(_prvHighestPriorityPeekTask >> 16) << #16, AC0 ; |128| 
         0000b5 000A%
     303              
     304 0000b7 7E00          OR #(_prvHighestPriorityPeekTask & 0xffff), AC0, AC0 ; |128| 
         0000b9 0000%
     305 0000bb 3D35  ||      MOV #3, T1
     306              
     307              $C$DW$42        .dwtag  DW_TAG_TI_branch
     308                      .dwattr $C$DW$42, DW_AT_low_pc(0x00)
     309                      .dwattr $C$DW$42, DW_AT_name("_xTaskGenericCreate")
     310                      .dwattr $C$DW$42, DW_AT_TI_call
     311 0000bd 6C00          CALL #_xTaskGenericCreate ; |128| 
         0000bf 0000!
     312                                                      ; call occurs [#_xTaskGenericCreate] ; |128| 
     313                      .dwpsn  file "../FreeRTOS/Demo/Common/Minimal/QPeek.c",line 129,column 1,is_stmt
     314 0000c1 4E03          AADD #3, SP
     315                      .dwcfi  cfa_offset, 1
     316              $C$DW$43        .dwtag  DW_TAG_TI_branch
     317                      .dwattr $C$DW$43, DW_AT_low_pc(0x00)
     318                      .dwattr $C$DW$43, DW_AT_TI_return
     319 0000c3 4804          RET
     320                                                      ; return occurs
     321                      .dwattr $C$DW$36, DW_AT_TI_end_file("../FreeRTOS/Demo/Common/Minimal/QPeek.c")
     322                      .dwattr $C$DW$36, DW_AT_TI_end_line(0x81)
     323                      .dwattr $C$DW$36, DW_AT_TI_end_column(0x01)
     324                      .dwendentry
     325                      .dwendtag $C$DW$36
TMS320C55x Assembler PC v4.4.1 Fri Sep 07 01:41:44 2018

Tools Copyright (c) 1996-2012 Texas Instruments Incorporated
QPeek.asm                                                            PAGE    8

     326              
     327 0000c5               .sect   ".text"
     328                      .align 4
     329              
     330              $C$DW$44        .dwtag  DW_TAG_subprogram, DW_AT_name("prvHighestPriorityPeekTask")
     331                      .dwattr $C$DW$44, DW_AT_low_pc(_prvHighestPriorityPeekTask)
     332                      .dwattr $C$DW$44, DW_AT_high_pc(0x00)
     333                      .dwattr $C$DW$44, DW_AT_TI_symbol_name("_prvHighestPriorityPeekTask")
     334                      .dwattr $C$DW$44, DW_AT_TI_begin_file("../FreeRTOS/Demo/Common/Minimal/QPeek.c")
     335                      .dwattr $C$DW$44, DW_AT_TI_begin_line(0x84)
     336                      .dwattr $C$DW$44, DW_AT_TI_begin_column(0x0d)
     337                      .dwattr $C$DW$44, DW_AT_TI_max_frame_size(0x0c)
     338                      .dwpsn  file "../FreeRTOS/Demo/Common/Minimal/QPeek.c",line 133,column 1,is_stmt,address _prvHighestP
     339              
     340                      .dwfde $C$DW$CIE, _prvHighestPriorityPeekTask
     341              $C$DW$45        .dwtag  DW_TAG_formal_parameter, DW_AT_name("pvParameters")
     342                      .dwattr $C$DW$45, DW_AT_TI_symbol_name("_pvParameters")
     343                      .dwattr $C$DW$45, DW_AT_type(*$C$DW$T$3)
     344                      .dwattr $C$DW$45, DW_AT_location[DW_OP_reg17]
     345              ;*******************************************************************************
     346              ;* FUNCTION NAME: prvHighestPriorityPeekTask                                   *
     347              ;*                                                                             *
     348              ;*   Function Uses Regs : AC0,AC0,AC1,AC1,T0,T1,T2,T3,AR0,XAR0,AR1,XAR1,AR3,   *
     349              ;*                        XAR3,AR5,AR6,AR7,SP,TC1,M40,SATA,SATD,RDM,FRCT,SMUL  *
     350              ;*   Save On Entry Regs : T2,T3,AR5,AR6,AR7                                    *
     351              ;*   Stack Frame        : Compact (No Frame Pointer, w/ debug)                 *
     352              ;*   Total Frame Size   : 12 words                                             *
     353              ;*                        (1 return address/alignment)                         *
     354              ;*                        (6 local values)                                     *
     355              ;*                        (5 register save area)                               *
     356              ;*   Min System Stack   : 4 words                                              *
     357              ;*******************************************************************************
     358 0000c8       _prvHighestPriorityPeekTask:
     359                      .dwcfi  cfa_offset, 1
     360                      .dwcfi  save_reg_to_mem, 91, -1
     361 0000c8 5066          PSH T2
     362                      .dwcfi  cfa_offset, 2
     363                      .dwcfi  save_reg_to_mem, 14, -2
     364 0000ca 5076          PSH T3
     365                      .dwcfi  cfa_offset, 3
     366                      .dwcfi  save_reg_to_mem, 15, -3
     367 0000cc 50D5          PSHBOTH XAR5
     368                      .dwcfi  cfa_offset, 4
     369                      .dwcfi  save_reg_to_mem, 26, -4
     370 0000ce 50E5          PSHBOTH XAR6
     371                      .dwcfi  cfa_offset, 5
     372                      .dwcfi  save_reg_to_mem, 28, -5
     373 0000d0 50F5          PSHBOTH XAR7
     374                      .dwcfi  cfa_offset, 6
     375                      .dwcfi  save_reg_to_mem, 30, -6
     376 0000d2 4EFA          AADD #-6, SP
     377                      .dwcfi  cfa_offset, 12
     378              $C$DW$46        .dwtag  DW_TAG_variable, DW_AT_name("pvParameters")
     379                      .dwattr $C$DW$46, DW_AT_TI_symbol_name("_pvParameters")
     380                      .dwattr $C$DW$46, DW_AT_type(*$C$DW$T$3)
TMS320C55x Assembler PC v4.4.1 Fri Sep 07 01:41:44 2018

Tools Copyright (c) 1996-2012 Texas Instruments Incorporated
QPeek.asm                                                            PAGE    9

     381                      .dwattr $C$DW$46, DW_AT_location[DW_OP_bregx 0x24 0]
     382              $C$DW$47        .dwtag  DW_TAG_variable, DW_AT_name("xQueue")
     383                      .dwattr $C$DW$47, DW_AT_TI_symbol_name("_xQueue")
     384                      .dwattr $C$DW$47, DW_AT_type(*$C$DW$T$21)
     385                      .dwattr $C$DW$47, DW_AT_location[DW_OP_bregx 0x24 2]
     386              $C$DW$48        .dwtag  DW_TAG_variable, DW_AT_name("ulValue")
     387                      .dwattr $C$DW$48, DW_AT_TI_symbol_name("_ulValue")
     388                      .dwattr $C$DW$48, DW_AT_type(*$C$DW$T$13)
     389                      .dwattr $C$DW$48, DW_AT_location[DW_OP_bregx 0x24 4]
     390 0000d4 EB00          MOV XAR0, dbl(*SP(#0))
         0000d6 85   
     391                      .dwpsn  file "../FreeRTOS/Demo/Common/Minimal/QPeek.c",line 134,column 14,is_stmt
     392              
     393 0000d7 3C1E          MOV #1, AR6
     394 0000d9 3D1D  ||      MOV #1, AR5
     395              
     396 0000db 3C1F          MOV #1, AR7
     397 0000dd 3D17  ||      MOV #1, T3
     398              
     399 0000df ED00          MOV dbl(*SP(#0)), XAR3
         0000e1 BF   
     400              
     401 0000e2 EB04          MOV XAR3, dbl(*SP(#2))
         0000e4 B5   
     402 0000e5 3D16  ||      MOV #1, T2
     403              
     404 0000e7       $C$L1:    
     405 0000e7       $C$DW$L$_prvHighestPriorityPeekTask$2$B:
     406                      .dwpsn  file "../FreeRTOS/Demo/Common/Minimal/QPeek.c",line 152,column 3,is_stmt
     407 0000e7 ED04          MOV dbl(*SP(#2)), XAR0
         0000e9 8F   
     408 0000ea EC08          AMAR *SP(#4), XAR1
         0000ec 9E   
     409 0000ed 76FF          MOV #65535, T0 ; |152| 
         0000ef FF48 
     410              $C$DW$49        .dwtag  DW_TAG_TI_branch
     411                      .dwattr $C$DW$49, DW_AT_low_pc(0x00)
     412                      .dwattr $C$DW$49, DW_AT_name("_xQueueGenericReceive")
     413                      .dwattr $C$DW$49, DW_AT_TI_call
     414              
     415 0000f1 6C00          CALL #_xQueueGenericReceive ; |152| 
         0000f3 0000!
     416 0000f5 3D15  ||      MOV #1, T1
     417              
     418                                                      ; call occurs [#_xQueueGenericReceive] ; |152| 
     419 0000f7 3C19          MOV #1, AR1
     420 0000f9 1240          CMP T0 == AR1, TC1 ; |152| 
         0000fb 90   
     421 0000fc 6364          BCC $C$L2,TC1 ; |152| 
     422                                                      ; branchcc occurs ; |152| 
     423 0000fe       $C$DW$L$_prvHighestPriorityPeekTask$2$E:
     424 0000fe       $C$DW$L$_prvHighestPriorityPeekTask$3$B:
     425                      .dwpsn  file "../FreeRTOS/Demo/Common/Minimal/QPeek.c",line 155,column 4,is_stmt
     426 0000fe E631          MOV #1, *(#_xErrorDetected) ; |155| 
         000100 0100 
TMS320C55x Assembler PC v4.4.1 Fri Sep 07 01:41:44 2018

Tools Copyright (c) 1996-2012 Texas Instruments Incorporated
QPeek.asm                                                            PAGE   10

         000102 0000-
     427 000104       $C$DW$L$_prvHighestPriorityPeekTask$3$E:
     428 000104       $C$L2:    
     429 000104       $C$DW$L$_prvHighestPriorityPeekTask$4$B:
     430                      .dwpsn  file "../FreeRTOS/Demo/Common/Minimal/QPeek.c",line 164,column 3,is_stmt
     431 000104 7A11          MOV #4386 << #16, AC0 ; |164| 
         000106 220A 
     432 000108 ED08          MOV dbl(*SP(#4)), AC1 ; |164| 
         00010a 18   
     433 00010b 7E33          OR #0x3344, AC0, AC0 ; |164| 
         00010d 4400 
     434 00010f 1210          CMPU AC1 == AC0, TC1 ; |164| 
         000111 04   
     435 000112 6364          BCC $C$L3,TC1 ; |164| 
     436                                                      ; branchcc occurs ; |164| 
     437 000114       $C$DW$L$_prvHighestPriorityPeekTask$4$E:
     438 000114       $C$DW$L$_prvHighestPriorityPeekTask$5$B:
     439                      .dwpsn  file "../FreeRTOS/Demo/Common/Minimal/QPeek.c",line 167,column 4,is_stmt
     440 000114 E631          MOV #1, *(#_xErrorDetected) ; |167| 
         000116 0100 
         000118 0000-
     441 00011a       $C$DW$L$_prvHighestPriorityPeekTask$5$E:
     442 00011a       $C$L3:    
     443 00011a       $C$DW$L$_prvHighestPriorityPeekTask$6$B:
     444                      .dwpsn  file "../FreeRTOS/Demo/Common/Minimal/QPeek.c",line 170,column 3,is_stmt
     445 00011a ED04          MOV dbl(*SP(#2)), XAR0
         00011c 8F   
     446              $C$DW$50        .dwtag  DW_TAG_TI_branch
     447                      .dwattr $C$DW$50, DW_AT_low_pc(0x00)
     448                      .dwattr $C$DW$50, DW_AT_name("_uxQueueMessagesWaiting")
     449                      .dwattr $C$DW$50, DW_AT_TI_call
     450 00011d 6C00          CALL #_uxQueueMessagesWaiting ; |170| 
         00011f 0000!
     451                                                      ; call occurs [#_uxQueueMessagesWaiting] ; |170| 
     452 000121 1240          CMPU T0 == AR7, TC1 ; |170| 
         000123 F4   
     453 000124 6364          BCC $C$L4,TC1 ; |170| 
     454                                                      ; branchcc occurs ; |170| 
     455 000126       $C$DW$L$_prvHighestPriorityPeekTask$6$E:
     456 000126       $C$DW$L$_prvHighestPriorityPeekTask$7$B:
     457                      .dwpsn  file "../FreeRTOS/Demo/Common/Minimal/QPeek.c",line 173,column 4,is_stmt
     458 000126 E631          MOV #1, *(#_xErrorDetected) ; |173| 
         000128 0100 
         00012a 0000-
     459 00012c       $C$DW$L$_prvHighestPriorityPeekTask$7$E:
     460 00012c       $C$L4:    
     461 00012c       $C$DW$L$_prvHighestPriorityPeekTask$8$B:
     462                      .dwpsn  file "../FreeRTOS/Demo/Common/Minimal/QPeek.c",line 179,column 3,is_stmt
     463 00012c 3C00          MOV #0, AC0 ; |179| 
     464 00012e EB08          MOV AC0, dbl(*SP(#4)) ; |179| 
         000130 08   
     465                      .dwpsn  file "../FreeRTOS/Demo/Common/Minimal/QPeek.c",line 180,column 3,is_stmt
     466              
     467 000134 3D04          MOV #0, T0
     468 000131 EC08  ||      AMAR *SP(#4), XAR1
TMS320C55x Assembler PC v4.4.1 Fri Sep 07 01:41:44 2018

Tools Copyright (c) 1996-2012 Texas Instruments Incorporated
QPeek.asm                                                            PAGE   11

         000133 9E   
     469              
     470 000136 ED04          MOV dbl(*SP(#2)), XAR0
         000138 8F   
     471              $C$DW$51        .dwtag  DW_TAG_TI_branch
     472                      .dwattr $C$DW$51, DW_AT_low_pc(0x00)
     473                      .dwattr $C$DW$51, DW_AT_name("_xQueueGenericReceive")
     474                      .dwattr $C$DW$51, DW_AT_TI_call
     475              
     476 000139 6C00          CALL #_xQueueGenericReceive ; |180| 
         00013b 0000!
     477 00013d 3D05  ||      MOV #0, T1
     478              
     479                                                      ; call occurs [#_xQueueGenericReceive] ; |180| 
     480 00013f 1240          CMP T0 == AR6, TC1 ; |180| 
         000141 E0   
     481 000142 6364          BCC $C$L5,TC1 ; |180| 
     482                                                      ; branchcc occurs ; |180| 
     483 000144       $C$DW$L$_prvHighestPriorityPeekTask$8$E:
     484 000144       $C$DW$L$_prvHighestPriorityPeekTask$9$B:
     485                      .dwpsn  file "../FreeRTOS/Demo/Common/Minimal/QPeek.c",line 183,column 4,is_stmt
     486 000144 E631          MOV #1, *(#_xErrorDetected) ; |183| 
         000146 0100 
         000148 0000-
     487 00014a       $C$DW$L$_prvHighestPriorityPeekTask$9$E:
     488 00014a       $C$L5:    
     489 00014a       $C$DW$L$_prvHighestPriorityPeekTask$10$B:
     490                      .dwpsn  file "../FreeRTOS/Demo/Common/Minimal/QPeek.c",line 186,column 3,is_stmt
     491 00014a 7A11          MOV #4386 << #16, AC0 ; |186| 
         00014c 220A 
     492 00014e ED08          MOV dbl(*SP(#4)), AC1 ; |186| 
         000150 18   
     493 000151 7E33          OR #0x3344, AC0, AC0 ; |186| 
         000153 4400 
     494 000155 1210          CMPU AC1 == AC0, TC1 ; |186| 
         000157 04   
     495 000158 6364          BCC $C$L6,TC1 ; |186| 
     496                                                      ; branchcc occurs ; |186| 
     497 00015a       $C$DW$L$_prvHighestPriorityPeekTask$10$E:
     498 00015a       $C$DW$L$_prvHighestPriorityPeekTask$11$B:
     499                      .dwpsn  file "../FreeRTOS/Demo/Common/Minimal/QPeek.c",line 190,column 4,is_stmt
     500 00015a E631          MOV #1, *(#_xErrorDetected) ; |190| 
         00015c 0100 
         00015e 0000-
     501 000160       $C$DW$L$_prvHighestPriorityPeekTask$11$E:
     502 000160       $C$L6:    
     503 000160       $C$DW$L$_prvHighestPriorityPeekTask$12$B:
     504                      .dwpsn  file "../FreeRTOS/Demo/Common/Minimal/QPeek.c",line 195,column 3,is_stmt
     505 000160 ED04          MOV dbl(*SP(#2)), XAR0
         000162 8F   
     506 000163 EC08          AMAR *SP(#4), XAR1
         000165 9E   
     507 000166 76FF          MOV #65535, T0 ; |195| 
         000168 FF48 
     508              $C$DW$52        .dwtag  DW_TAG_TI_branch
TMS320C55x Assembler PC v4.4.1 Fri Sep 07 01:41:44 2018

Tools Copyright (c) 1996-2012 Texas Instruments Incorporated
QPeek.asm                                                            PAGE   12

     509                      .dwattr $C$DW$52, DW_AT_low_pc(0x00)
     510                      .dwattr $C$DW$52, DW_AT_name("_xQueueGenericReceive")
     511                      .dwattr $C$DW$52, DW_AT_TI_call
     512              
     513 00016a 6C00          CALL #_xQueueGenericReceive ; |195| 
         00016c 0000!
     514 00016e 3D15  ||      MOV #1, T1
     515              
     516                                                      ; call occurs [#_xQueueGenericReceive] ; |195| 
     517 000170 1240          CMP T0 == AR5, TC1 ; |195| 
         000172 D0   
     518 000173 6364          BCC $C$L7,TC1 ; |195| 
     519                                                      ; branchcc occurs ; |195| 
     520 000175       $C$DW$L$_prvHighestPriorityPeekTask$12$E:
     521 000175       $C$DW$L$_prvHighestPriorityPeekTask$13$B:
     522                      .dwpsn  file "../FreeRTOS/Demo/Common/Minimal/QPeek.c",line 198,column 4,is_stmt
     523 000175 E631          MOV #1, *(#_xErrorDetected) ; |198| 
         000177 0100 
         000179 0000-
     524 00017b       $C$DW$L$_prvHighestPriorityPeekTask$13$E:
     525 00017b       $C$L7:    
     526 00017b       $C$DW$L$_prvHighestPriorityPeekTask$14$B:
     527                      .dwpsn  file "../FreeRTOS/Demo/Common/Minimal/QPeek.c",line 203,column 3,is_stmt
     528 00017b 7A01          MOV #291 << #16, AC0 ; |203| 
         00017d 230A 
     529 00017f ED08          MOV dbl(*SP(#4)), AC1 ; |203| 
         000181 18   
     530 000182 7E45          OR #0x4567, AC0, AC0 ; |203| 
         000184 6700 
     531 000186 1210          CMPU AC1 == AC0, TC1 ; |203| 
         000188 04   
     532 000189 6364          BCC $C$L8,TC1 ; |203| 
     533                                                      ; branchcc occurs ; |203| 
     534 00018b       $C$DW$L$_prvHighestPriorityPeekTask$14$E:
     535 00018b       $C$DW$L$_prvHighestPriorityPeekTask$15$B:
     536                      .dwpsn  file "../FreeRTOS/Demo/Common/Minimal/QPeek.c",line 206,column 4,is_stmt
     537 00018b E631          MOV #1, *(#_xErrorDetected) ; |206| 
         00018d 0100 
         00018f 0000-
     538 000191       $C$DW$L$_prvHighestPriorityPeekTask$15$E:
     539 000191       $C$L8:    
     540 000191       $C$DW$L$_prvHighestPriorityPeekTask$16$B:
     541                      .dwpsn  file "../FreeRTOS/Demo/Common/Minimal/QPeek.c",line 209,column 3,is_stmt
     542 000191 ED04          MOV dbl(*SP(#2)), XAR0
         000193 8F   
     543              $C$DW$53        .dwtag  DW_TAG_TI_branch
     544                      .dwattr $C$DW$53, DW_AT_low_pc(0x00)
     545                      .dwattr $C$DW$53, DW_AT_name("_uxQueueMessagesWaiting")
     546                      .dwattr $C$DW$53, DW_AT_TI_call
     547 000194 6C00          CALL #_uxQueueMessagesWaiting ; |209| 
         000196 0000!
     548                                                      ; call occurs [#_uxQueueMessagesWaiting] ; |209| 
     549 000198 1240          CMPU T0 == T3, TC1 ; |209| 
         00019a 74   
     550 00019b 6364          BCC $C$L9,TC1 ; |209| 
TMS320C55x Assembler PC v4.4.1 Fri Sep 07 01:41:44 2018

Tools Copyright (c) 1996-2012 Texas Instruments Incorporated
QPeek.asm                                                            PAGE   13

     551                                                      ; branchcc occurs ; |209| 
     552 00019d       $C$DW$L$_prvHighestPriorityPeekTask$16$E:
     553 00019d       $C$DW$L$_prvHighestPriorityPeekTask$17$B:
     554                      .dwpsn  file "../FreeRTOS/Demo/Common/Minimal/QPeek.c",line 212,column 4,is_stmt
     555 00019d E631          MOV #1, *(#_xErrorDetected) ; |212| 
         00019f 0100 
         0001a1 0000-
     556 0001a3       $C$DW$L$_prvHighestPriorityPeekTask$17$E:
     557 0001a3       $C$L9:    
     558 0001a3       $C$DW$L$_prvHighestPriorityPeekTask$18$B:
     559                      .dwpsn  file "../FreeRTOS/Demo/Common/Minimal/QPeek.c",line 219,column 3,is_stmt
     560 0001a3 EC31          AMOV #0, XAR0 ; |219| 
         0001a5 8E00 
         0001a7 0000 
     561              $C$DW$54        .dwtag  DW_TAG_TI_branch
     562                      .dwattr $C$DW$54, DW_AT_low_pc(0x00)
     563                      .dwattr $C$DW$54, DW_AT_name("_vTaskSuspend")
     564                      .dwattr $C$DW$54, DW_AT_TI_call
     565 0001a9 6C00          CALL #_vTaskSuspend ; |219| 
         0001ab 0000!
     566                                                      ; call occurs [#_vTaskSuspend] ; |219| 
     567                      .dwpsn  file "../FreeRTOS/Demo/Common/Minimal/QPeek.c",line 226,column 3,is_stmt
     568 0001ad 76FF          MOV #65535, T0 ; |226| 
         0001af FF48 
     569 0001b1 EC08          AMAR *SP(#4), XAR1
         0001b3 9E   
     570 0001b4 ED04          MOV dbl(*SP(#2)), XAR0
         0001b6 8F   
     571              $C$DW$55        .dwtag  DW_TAG_TI_branch
     572                      .dwattr $C$DW$55, DW_AT_low_pc(0x00)
     573                      .dwattr $C$DW$55, DW_AT_name("_xQueueGenericReceive")
     574                      .dwattr $C$DW$55, DW_AT_TI_call
     575              
     576 0001b7 6C00          CALL #_xQueueGenericReceive ; |226| 
         0001b9 0000!
     577 0001bb 3D15  ||      MOV #1, T1
     578              
     579                                                      ; call occurs [#_xQueueGenericReceive] ; |226| 
     580 0001bd 1240          CMP T0 == T2, TC1 ; |226| 
         0001bf 60   
     581 0001c0 6364          BCC $C$L10,TC1 ; |226| 
     582                                                      ; branchcc occurs ; |226| 
     583 0001c2       $C$DW$L$_prvHighestPriorityPeekTask$18$E:
     584 0001c2       $C$DW$L$_prvHighestPriorityPeekTask$19$B:
     585                      .dwpsn  file "../FreeRTOS/Demo/Common/Minimal/QPeek.c",line 228,column 4,is_stmt
     586 0001c2 E631          MOV #1, *(#_xErrorDetected) ; |228| 
         0001c4 0100 
         0001c6 0000-
     587 0001c8       $C$DW$L$_prvHighestPriorityPeekTask$19$E:
     588 0001c8       $C$L10:    
     589 0001c8       $C$DW$L$_prvHighestPriorityPeekTask$20$B:
     590                      .dwpsn  file "../FreeRTOS/Demo/Common/Minimal/QPeek.c",line 231,column 3,is_stmt
     591 0001c8 7AAA          MOV #-21829 << #16, AC0 ; |231| 
         0001ca BB0A 
     592 0001cc ED08          MOV dbl(*SP(#4)), AC1 ; |231| 
TMS320C55x Assembler PC v4.4.1 Fri Sep 07 01:41:44 2018

Tools Copyright (c) 1996-2012 Texas Instruments Incorporated
QPeek.asm                                                            PAGE   14

         0001ce 18   
     593 0001cf 7EAA          OR #0xaabb, AC0, AC0 ; |231| 
         0001d1 BB00 
     594 0001d3 1210          CMPU AC1 == AC0, TC1 ; |231| 
         0001d5 04   
     595 0001d6 6364          BCC $C$L11,TC1 ; |231| 
     596                                                      ; branchcc occurs ; |231| 
     597 0001d8       $C$DW$L$_prvHighestPriorityPeekTask$20$E:
     598 0001d8       $C$DW$L$_prvHighestPriorityPeekTask$21$B:
     599                      .dwpsn  file "../FreeRTOS/Demo/Common/Minimal/QPeek.c",line 233,column 4,is_stmt
     600 0001d8 E631          MOV #1, *(#_xErrorDetected) ; |233| 
         0001da 0100 
         0001dc 0000-
     601 0001de       $C$DW$L$_prvHighestPriorityPeekTask$21$E:
     602 0001de       $C$L11:    
     603 0001de       $C$DW$L$_prvHighestPriorityPeekTask$22$B:
     604                      .dwpsn  file "../FreeRTOS/Demo/Common/Minimal/QPeek.c",line 236,column 3,is_stmt
     605 0001de EC31          AMOV #0, XAR0 ; |236| 
         0001e0 8E00 
         0001e2 0000 
     606              $C$DW$56        .dwtag  DW_TAG_TI_branch
     607                      .dwattr $C$DW$56, DW_AT_low_pc(0x00)
     608                      .dwattr $C$DW$56, DW_AT_name("_vTaskSuspend")
     609                      .dwattr $C$DW$56, DW_AT_TI_call
     610 0001e4 6C00          CALL #_vTaskSuspend ; |236| 
         0001e6 0000!
     611                                                      ; call occurs [#_vTaskSuspend] ; |236| 
     612                      .dwpsn  file "../FreeRTOS/Demo/Common/Minimal/QPeek.c",line 237,column 2,is_stmt
     613 0001e8 06FE          B $C$L1   ; |237| 
         0001ea FC   
     614                                                      ; branch occurs ; |237| 
     615 0001eb       $C$DW$L$_prvHighestPriorityPeekTask$22$E:
     616                      .dwcfi  cfa_offset, 6
     617                      .dwcfi  restore_reg, 30
     618                      .dwcfi  cfa_offset, 5
     619                      .dwcfi  restore_reg, 28
     620                      .dwcfi  cfa_offset, 4
     621                      .dwcfi  restore_reg, 26
     622                      .dwcfi  cfa_offset, 3
     623                      .dwcfi  restore_reg, 15
     624                      .dwcfi  cfa_offset, 2
     625                      .dwcfi  restore_reg, 14
     626                      .dwcfi  cfa_offset, 1
     627              
     628              $C$DW$57        .dwtag  DW_TAG_TI_loop
     629                      .dwattr $C$DW$57, DW_AT_name("F:\site\eZDSP\eZDSP_5535_Files\ccsws2\test\Debug\QPeek.asm:$C$L1:1:1536
     630                      .dwattr $C$DW$57, DW_AT_TI_begin_file("../FreeRTOS/Demo/Common/Minimal/QPeek.c")
     631                      .dwattr $C$DW$57, DW_AT_TI_begin_line(0x94)
     632                      .dwattr $C$DW$57, DW_AT_TI_end_line(0xed)
     633              $C$DW$58        .dwtag  DW_TAG_TI_loop_range
     634                      .dwattr $C$DW$58, DW_AT_low_pc($C$DW$L$_prvHighestPriorityPeekTask$2$B)
     635                      .dwattr $C$DW$58, DW_AT_high_pc($C$DW$L$_prvHighestPriorityPeekTask$2$E)
     636              $C$DW$59        .dwtag  DW_TAG_TI_loop_range
     637                      .dwattr $C$DW$59, DW_AT_low_pc($C$DW$L$_prvHighestPriorityPeekTask$3$B)
     638                      .dwattr $C$DW$59, DW_AT_high_pc($C$DW$L$_prvHighestPriorityPeekTask$3$E)
TMS320C55x Assembler PC v4.4.1 Fri Sep 07 01:41:44 2018

Tools Copyright (c) 1996-2012 Texas Instruments Incorporated
QPeek.asm                                                            PAGE   15

     639              $C$DW$60        .dwtag  DW_TAG_TI_loop_range
     640                      .dwattr $C$DW$60, DW_AT_low_pc($C$DW$L$_prvHighestPriorityPeekTask$4$B)
     641                      .dwattr $C$DW$60, DW_AT_high_pc($C$DW$L$_prvHighestPriorityPeekTask$4$E)
     642              $C$DW$61        .dwtag  DW_TAG_TI_loop_range
     643                      .dwattr $C$DW$61, DW_AT_low_pc($C$DW$L$_prvHighestPriorityPeekTask$5$B)
     644                      .dwattr $C$DW$61, DW_AT_high_pc($C$DW$L$_prvHighestPriorityPeekTask$5$E)
     645              $C$DW$62        .dwtag  DW_TAG_TI_loop_range
     646                      .dwattr $C$DW$62, DW_AT_low_pc($C$DW$L$_prvHighestPriorityPeekTask$6$B)
     647                      .dwattr $C$DW$62, DW_AT_high_pc($C$DW$L$_prvHighestPriorityPeekTask$6$E)
     648              $C$DW$63        .dwtag  DW_TAG_TI_loop_range
     649                      .dwattr $C$DW$63, DW_AT_low_pc($C$DW$L$_prvHighestPriorityPeekTask$7$B)
     650                      .dwattr $C$DW$63, DW_AT_high_pc($C$DW$L$_prvHighestPriorityPeekTask$7$E)
     651              $C$DW$64        .dwtag  DW_TAG_TI_loop_range
     652                      .dwattr $C$DW$64, DW_AT_low_pc($C$DW$L$_prvHighestPriorityPeekTask$8$B)
     653                      .dwattr $C$DW$64, DW_AT_high_pc($C$DW$L$_prvHighestPriorityPeekTask$8$E)
     654              $C$DW$65        .dwtag  DW_TAG_TI_loop_range
     655                      .dwattr $C$DW$65, DW_AT_low_pc($C$DW$L$_prvHighestPriorityPeekTask$9$B)
     656                      .dwattr $C$DW$65, DW_AT_high_pc($C$DW$L$_prvHighestPriorityPeekTask$9$E)
     657              $C$DW$66        .dwtag  DW_TAG_TI_loop_range
     658                      .dwattr $C$DW$66, DW_AT_low_pc($C$DW$L$_prvHighestPriorityPeekTask$10$B)
     659                      .dwattr $C$DW$66, DW_AT_high_pc($C$DW$L$_prvHighestPriorityPeekTask$10$E)
     660              $C$DW$67        .dwtag  DW_TAG_TI_loop_range
     661                      .dwattr $C$DW$67, DW_AT_low_pc($C$DW$L$_prvHighestPriorityPeekTask$11$B)
     662                      .dwattr $C$DW$67, DW_AT_high_pc($C$DW$L$_prvHighestPriorityPeekTask$11$E)
     663              $C$DW$68        .dwtag  DW_TAG_TI_loop_range
     664                      .dwattr $C$DW$68, DW_AT_low_pc($C$DW$L$_prvHighestPriorityPeekTask$12$B)
     665                      .dwattr $C$DW$68, DW_AT_high_pc($C$DW$L$_prvHighestPriorityPeekTask$12$E)
     666              $C$DW$69        .dwtag  DW_TAG_TI_loop_range
     667                      .dwattr $C$DW$69, DW_AT_low_pc($C$DW$L$_prvHighestPriorityPeekTask$13$B)
     668                      .dwattr $C$DW$69, DW_AT_high_pc($C$DW$L$_prvHighestPriorityPeekTask$13$E)
     669              $C$DW$70        .dwtag  DW_TAG_TI_loop_range
     670                      .dwattr $C$DW$70, DW_AT_low_pc($C$DW$L$_prvHighestPriorityPeekTask$14$B)
     671                      .dwattr $C$DW$70, DW_AT_high_pc($C$DW$L$_prvHighestPriorityPeekTask$14$E)
     672              $C$DW$71        .dwtag  DW_TAG_TI_loop_range
     673                      .dwattr $C$DW$71, DW_AT_low_pc($C$DW$L$_prvHighestPriorityPeekTask$15$B)
     674                      .dwattr $C$DW$71, DW_AT_high_pc($C$DW$L$_prvHighestPriorityPeekTask$15$E)
     675              $C$DW$72        .dwtag  DW_TAG_TI_loop_range
     676                      .dwattr $C$DW$72, DW_AT_low_pc($C$DW$L$_prvHighestPriorityPeekTask$16$B)
     677                      .dwattr $C$DW$72, DW_AT_high_pc($C$DW$L$_prvHighestPriorityPeekTask$16$E)
     678              $C$DW$73        .dwtag  DW_TAG_TI_loop_range
     679                      .dwattr $C$DW$73, DW_AT_low_pc($C$DW$L$_prvHighestPriorityPeekTask$17$B)
     680                      .dwattr $C$DW$73, DW_AT_high_pc($C$DW$L$_prvHighestPriorityPeekTask$17$E)
     681              $C$DW$74        .dwtag  DW_TAG_TI_loop_range
     682                      .dwattr $C$DW$74, DW_AT_low_pc($C$DW$L$_prvHighestPriorityPeekTask$18$B)
     683                      .dwattr $C$DW$74, DW_AT_high_pc($C$DW$L$_prvHighestPriorityPeekTask$18$E)
     684              $C$DW$75        .dwtag  DW_TAG_TI_loop_range
     685                      .dwattr $C$DW$75, DW_AT_low_pc($C$DW$L$_prvHighestPriorityPeekTask$19$B)
     686                      .dwattr $C$DW$75, DW_AT_high_pc($C$DW$L$_prvHighestPriorityPeekTask$19$E)
     687              $C$DW$76        .dwtag  DW_TAG_TI_loop_range
     688                      .dwattr $C$DW$76, DW_AT_low_pc($C$DW$L$_prvHighestPriorityPeekTask$20$B)
     689                      .dwattr $C$DW$76, DW_AT_high_pc($C$DW$L$_prvHighestPriorityPeekTask$20$E)
     690              $C$DW$77        .dwtag  DW_TAG_TI_loop_range
     691                      .dwattr $C$DW$77, DW_AT_low_pc($C$DW$L$_prvHighestPriorityPeekTask$21$B)
     692                      .dwattr $C$DW$77, DW_AT_high_pc($C$DW$L$_prvHighestPriorityPeekTask$21$E)
     693              $C$DW$78        .dwtag  DW_TAG_TI_loop_range
TMS320C55x Assembler PC v4.4.1 Fri Sep 07 01:41:44 2018

Tools Copyright (c) 1996-2012 Texas Instruments Incorporated
QPeek.asm                                                            PAGE   16

     694                      .dwattr $C$DW$78, DW_AT_low_pc($C$DW$L$_prvHighestPriorityPeekTask$22$B)
     695                      .dwattr $C$DW$78, DW_AT_high_pc($C$DW$L$_prvHighestPriorityPeekTask$22$E)
     696                      .dwendtag $C$DW$57
     697              
     698                      .dwattr $C$DW$44, DW_AT_TI_end_file("../FreeRTOS/Demo/Common/Minimal/QPeek.c")
     699                      .dwattr $C$DW$44, DW_AT_TI_end_line(0xee)
     700                      .dwattr $C$DW$44, DW_AT_TI_end_column(0x01)
     701                      .dwendentry
     702                      .dwendtag $C$DW$44
     703              
     704 0001eb               .sect   ".text"
     705                      .align 4
     706              
     707              $C$DW$79        .dwtag  DW_TAG_subprogram, DW_AT_name("prvHighPriorityPeekTask")
     708                      .dwattr $C$DW$79, DW_AT_low_pc(_prvHighPriorityPeekTask)
     709                      .dwattr $C$DW$79, DW_AT_high_pc(0x00)
     710                      .dwattr $C$DW$79, DW_AT_TI_symbol_name("_prvHighPriorityPeekTask")
     711                      .dwattr $C$DW$79, DW_AT_TI_begin_file("../FreeRTOS/Demo/Common/Minimal/QPeek.c")
     712                      .dwattr $C$DW$79, DW_AT_TI_begin_line(0xf1)
     713                      .dwattr $C$DW$79, DW_AT_TI_begin_column(0x0d)
     714                      .dwattr $C$DW$79, DW_AT_TI_max_frame_size(0x0a)
     715                      .dwpsn  file "../FreeRTOS/Demo/Common/Minimal/QPeek.c",line 242,column 1,is_stmt,address _prvHighPrio
     716              
     717                      .dwfde $C$DW$CIE, _prvHighPriorityPeekTask
     718              $C$DW$80        .dwtag  DW_TAG_formal_parameter, DW_AT_name("pvParameters")
     719                      .dwattr $C$DW$80, DW_AT_TI_symbol_name("_pvParameters")
     720                      .dwattr $C$DW$80, DW_AT_type(*$C$DW$T$3)
     721                      .dwattr $C$DW$80, DW_AT_location[DW_OP_reg17]
     722              ;*******************************************************************************
     723              ;* FUNCTION NAME: prvHighPriorityPeekTask                                      *
     724              ;*                                                                             *
     725              ;*   Function Uses Regs : AC0,AC0,AC1,AC1,T0,T1,T2,T3,AR0,XAR0,AR1,XAR1,AR3,   *
     726              ;*                        XAR3,AR5,SP,TC1,M40,SATA,SATD,RDM,FRCT,SMUL          *
     727              ;*   Save On Entry Regs : T2,T3,AR5                                            *
     728              ;*   Stack Frame        : Compact (No Frame Pointer, w/ debug)                 *
     729              ;*   Total Frame Size   : 10 words                                             *
     730              ;*                        (1 return address/alignment)                         *
     731              ;*                        (6 local values)                                     *
     732              ;*                        (3 register save area)                               *
     733              ;*   Min System Stack   : 2 words                                              *
     734              ;*******************************************************************************
     735 0001ec       _prvHighPriorityPeekTask:
     736                      .dwcfi  cfa_offset, 1
     737                      .dwcfi  save_reg_to_mem, 91, -1
     738 0001ec 5066          PSH T2
     739                      .dwcfi  cfa_offset, 2
     740                      .dwcfi  save_reg_to_mem, 14, -2
     741 0001ee 5076          PSH T3
     742                      .dwcfi  cfa_offset, 3
     743                      .dwcfi  save_reg_to_mem, 15, -3
     744 0001f0 50D5          PSHBOTH XAR5
     745                      .dwcfi  cfa_offset, 4
     746                      .dwcfi  save_reg_to_mem, 26, -4
     747 0001f2 4EFA          AADD #-6, SP
     748                      .dwcfi  cfa_offset, 10
TMS320C55x Assembler PC v4.4.1 Fri Sep 07 01:41:44 2018

Tools Copyright (c) 1996-2012 Texas Instruments Incorporated
QPeek.asm                                                            PAGE   17

     749              $C$DW$81        .dwtag  DW_TAG_variable, DW_AT_name("pvParameters")
     750                      .dwattr $C$DW$81, DW_AT_TI_symbol_name("_pvParameters")
     751                      .dwattr $C$DW$81, DW_AT_type(*$C$DW$T$3)
     752                      .dwattr $C$DW$81, DW_AT_location[DW_OP_bregx 0x24 0]
     753              $C$DW$82        .dwtag  DW_TAG_variable, DW_AT_name("xQueue")
     754                      .dwattr $C$DW$82, DW_AT_TI_symbol_name("_xQueue")
     755                      .dwattr $C$DW$82, DW_AT_type(*$C$DW$T$21)
     756                      .dwattr $C$DW$82, DW_AT_location[DW_OP_bregx 0x24 2]
     757              $C$DW$83        .dwtag  DW_TAG_variable, DW_AT_name("ulValue")
     758                      .dwattr $C$DW$83, DW_AT_TI_symbol_name("_ulValue")
     759                      .dwattr $C$DW$83, DW_AT_type(*$C$DW$T$13)
     760                      .dwattr $C$DW$83, DW_AT_location[DW_OP_bregx 0x24 4]
     761 0001f4 EB00          MOV XAR0, dbl(*SP(#0))
         0001f6 85   
     762                      .dwpsn  file "../FreeRTOS/Demo/Common/Minimal/QPeek.c",line 243,column 14,is_stmt
     763              
     764 0001f7 3C1D          MOV #1, AR5
     765 0001f9 3D17  ||      MOV #1, T3
     766              
     767 0001fb ED00          MOV dbl(*SP(#0)), XAR3
         0001fd BF   
     768              
     769 0001fe EB04          MOV XAR3, dbl(*SP(#2))
         000200 B5   
     770 000201 3D16  ||      MOV #1, T2
     771              
     772 000203       $C$L12:    
     773 000203       $C$DW$L$_prvHighPriorityPeekTask$2$B:
     774                      .dwpsn  file "../FreeRTOS/Demo/Common/Minimal/QPeek.c",line 251,column 3,is_stmt
     775 000203 ED04          MOV dbl(*SP(#2)), XAR0
         000205 8F   
     776 000206 EC08          AMAR *SP(#4), XAR1
         000208 9E   
     777 000209 76FF          MOV #65535, T0 ; |251| 
         00020b FF48 
     778              $C$DW$84        .dwtag  DW_TAG_TI_branch
     779                      .dwattr $C$DW$84, DW_AT_low_pc(0x00)
     780                      .dwattr $C$DW$84, DW_AT_name("_xQueueGenericReceive")
     781                      .dwattr $C$DW$84, DW_AT_TI_call
     782              
     783 00020d 6C00          CALL #_xQueueGenericReceive ; |251| 
         00020f 0000!
     784 000211 3D15  ||      MOV #1, T1
     785              
     786                                                      ; call occurs [#_xQueueGenericReceive] ; |251| 
     787 000213 1240          CMP T0 == AR5, TC1 ; |251| 
         000215 D0   
     788 000216 6364          BCC $C$L13,TC1 ; |251| 
     789                                                      ; branchcc occurs ; |251| 
     790 000218       $C$DW$L$_prvHighPriorityPeekTask$2$E:
     791 000218       $C$DW$L$_prvHighPriorityPeekTask$3$B:
     792                      .dwpsn  file "../FreeRTOS/Demo/Common/Minimal/QPeek.c",line 254,column 4,is_stmt
     793 000218 E631          MOV #1, *(#_xErrorDetected) ; |254| 
         00021a 0100 
         00021c 0000-
TMS320C55x Assembler PC v4.4.1 Fri Sep 07 01:41:44 2018

Tools Copyright (c) 1996-2012 Texas Instruments Incorporated
QPeek.asm                                                            PAGE   18

     794 00021e       $C$DW$L$_prvHighPriorityPeekTask$3$E:
     795 00021e       $C$L13:    
     796 00021e       $C$DW$L$_prvHighPriorityPeekTask$4$B:
     797                      .dwpsn  file "../FreeRTOS/Demo/Common/Minimal/QPeek.c",line 260,column 3,is_stmt
     798 00021e 7A01          MOV #291 << #16, AC0 ; |260| 
         000220 230A 
     799 000222 ED08          MOV dbl(*SP(#4)), AC1 ; |260| 
         000224 18   
     800 000225 7E45          OR #0x4567, AC0, AC0 ; |260| 
         000227 6700 
     801 000229 1210          CMPU AC1 == AC0, TC1 ; |260| 
         00022b 04   
     802 00022c 6364          BCC $C$L14,TC1 ; |260| 
     803                                                      ; branchcc occurs ; |260| 
     804 00022e       $C$DW$L$_prvHighPriorityPeekTask$4$E:
     805 00022e       $C$DW$L$_prvHighPriorityPeekTask$5$B:
     806                      .dwpsn  file "../FreeRTOS/Demo/Common/Minimal/QPeek.c",line 263,column 4,is_stmt
     807 00022e E631          MOV #1, *(#_xErrorDetected) ; |263| 
         000230 0100 
         000232 0000-
     808 000234       $C$DW$L$_prvHighPriorityPeekTask$5$E:
     809 000234       $C$L14:    
     810 000234       $C$DW$L$_prvHighPriorityPeekTask$6$B:
     811                      .dwpsn  file "../FreeRTOS/Demo/Common/Minimal/QPeek.c",line 266,column 3,is_stmt
     812 000234 ED04          MOV dbl(*SP(#2)), XAR0
         000236 8F   
     813              $C$DW$85        .dwtag  DW_TAG_TI_branch
     814                      .dwattr $C$DW$85, DW_AT_low_pc(0x00)
     815                      .dwattr $C$DW$85, DW_AT_name("_uxQueueMessagesWaiting")
     816                      .dwattr $C$DW$85, DW_AT_TI_call
     817 000237 6C00          CALL #_uxQueueMessagesWaiting ; |266| 
         000239 0000!
     818                                                      ; call occurs [#_uxQueueMessagesWaiting] ; |266| 
     819 00023b 1240          CMPU T0 == T3, TC1 ; |266| 
         00023d 74   
     820 00023e 6364          BCC $C$L15,TC1 ; |266| 
     821                                                      ; branchcc occurs ; |266| 
     822 000240       $C$DW$L$_prvHighPriorityPeekTask$6$E:
     823 000240       $C$DW$L$_prvHighPriorityPeekTask$7$B:
     824                      .dwpsn  file "../FreeRTOS/Demo/Common/Minimal/QPeek.c",line 269,column 4,is_stmt
     825 000240 E631          MOV #1, *(#_xErrorDetected) ; |269| 
         000242 0100 
         000244 0000-
     826 000246       $C$DW$L$_prvHighPriorityPeekTask$7$E:
     827 000246       $C$L15:    
     828 000246       $C$DW$L$_prvHighPriorityPeekTask$8$B:
     829                      .dwpsn  file "../FreeRTOS/Demo/Common/Minimal/QPeek.c",line 276,column 3,is_stmt
     830 000246 EC31          AMOV #0, XAR0 ; |276| 
         000248 8E00 
         00024a 0000 
     831              $C$DW$86        .dwtag  DW_TAG_TI_branch
     832                      .dwattr $C$DW$86, DW_AT_low_pc(0x00)
     833                      .dwattr $C$DW$86, DW_AT_name("_vTaskSuspend")
     834                      .dwattr $C$DW$86, DW_AT_TI_call
     835 00024c 6C00          CALL #_vTaskSuspend ; |276| 
TMS320C55x Assembler PC v4.4.1 Fri Sep 07 01:41:44 2018

Tools Copyright (c) 1996-2012 Texas Instruments Incorporated
QPeek.asm                                                            PAGE   19

         00024e 0000!
     836                                                      ; call occurs [#_vTaskSuspend] ; |276| 
     837                      .dwpsn  file "../FreeRTOS/Demo/Common/Minimal/QPeek.c",line 281,column 3,is_stmt
     838 000250 76FF          MOV #65535, T0 ; |281| 
         000252 FF48 
     839 000254 EC08          AMAR *SP(#4), XAR1
         000256 9E   
     840 000257 ED04          MOV dbl(*SP(#2)), XAR0
         000259 8F   
     841              $C$DW$87        .dwtag  DW_TAG_TI_branch
     842                      .dwattr $C$DW$87, DW_AT_low_pc(0x00)
     843                      .dwattr $C$DW$87, DW_AT_name("_xQueueGenericReceive")
     844                      .dwattr $C$DW$87, DW_AT_TI_call
     845              
     846 00025a 6C00          CALL #_xQueueGenericReceive ; |281| 
         00025c 0000!
     847 00025e 3D05  ||      MOV #0, T1
     848              
     849                                                      ; call occurs [#_xQueueGenericReceive] ; |281| 
     850 000260 1240          CMP T0 == T2, TC1 ; |281| 
         000262 60   
     851 000263 6364          BCC $C$L16,TC1 ; |281| 
     852                                                      ; branchcc occurs ; |281| 
     853 000265       $C$DW$L$_prvHighPriorityPeekTask$8$E:
     854 000265       $C$DW$L$_prvHighPriorityPeekTask$9$B:
     855                      .dwpsn  file "../FreeRTOS/Demo/Common/Minimal/QPeek.c",line 283,column 4,is_stmt
     856 000265 E631          MOV #1, *(#_xErrorDetected) ; |283| 
         000267 0100 
         000269 0000-
     857 00026b       $C$DW$L$_prvHighPriorityPeekTask$9$E:
     858 00026b       $C$L16:    
     859 00026b       $C$DW$L$_prvHighPriorityPeekTask$10$B:
     860                      .dwpsn  file "../FreeRTOS/Demo/Common/Minimal/QPeek.c",line 286,column 3,is_stmt
     861 00026b 7AAA          MOV #-21829 << #16, AC0 ; |286| 
         00026d BB0A 
     862 00026f ED08          MOV dbl(*SP(#4)), AC1 ; |286| 
         000271 18   
     863 000272 7EAA          OR #0xaabb, AC0, AC0 ; |286| 
         000274 BB00 
     864 000276 1210          CMPU AC1 == AC0, TC1 ; |286| 
         000278 04   
     865 000279 6364          BCC $C$L17,TC1 ; |286| 
     866                                                      ; branchcc occurs ; |286| 
     867 00027b       $C$DW$L$_prvHighPriorityPeekTask$10$E:
     868 00027b       $C$DW$L$_prvHighPriorityPeekTask$11$B:
     869                      .dwpsn  file "../FreeRTOS/Demo/Common/Minimal/QPeek.c",line 288,column 4,is_stmt
     870 00027b E631          MOV #1, *(#_xErrorDetected) ; |288| 
         00027d 0100 
         00027f 0000-
     871 000281       $C$DW$L$_prvHighPriorityPeekTask$11$E:
     872 000281       $C$L17:    
     873 000281       $C$DW$L$_prvHighPriorityPeekTask$12$B:
     874                      .dwpsn  file "../FreeRTOS/Demo/Common/Minimal/QPeek.c",line 291,column 3,is_stmt
     875 000281 EC31          AMOV #0, XAR0 ; |291| 
         000283 8E00 
TMS320C55x Assembler PC v4.4.1 Fri Sep 07 01:41:44 2018

Tools Copyright (c) 1996-2012 Texas Instruments Incorporated
QPeek.asm                                                            PAGE   20

         000285 0000 
     876              $C$DW$88        .dwtag  DW_TAG_TI_branch
     877                      .dwattr $C$DW$88, DW_AT_low_pc(0x00)
     878                      .dwattr $C$DW$88, DW_AT_name("_vTaskSuspend")
     879                      .dwattr $C$DW$88, DW_AT_TI_call
     880 000287 6C00          CALL #_vTaskSuspend ; |291| 
         000289 0000!
     881                                                      ; call occurs [#_vTaskSuspend] ; |291| 
     882                      .dwpsn  file "../FreeRTOS/Demo/Common/Minimal/QPeek.c",line 292,column 2,is_stmt
     883 00028b 06FF          B $C$L12  ; |292| 
         00028d 75   
     884                                                      ; branch occurs ; |292| 
     885 00028e       $C$DW$L$_prvHighPriorityPeekTask$12$E:
     886                      .dwcfi  cfa_offset, 4
     887                      .dwcfi  restore_reg, 26
     888                      .dwcfi  cfa_offset, 3
     889                      .dwcfi  restore_reg, 15
     890                      .dwcfi  cfa_offset, 2
     891                      .dwcfi  restore_reg, 14
     892                      .dwcfi  cfa_offset, 1
     893              
     894              $C$DW$89        .dwtag  DW_TAG_TI_loop
     895                      .dwattr $C$DW$89, DW_AT_name("F:\site\eZDSP\eZDSP_5535_Files\ccsws2\test\Debug\QPeek.asm:$C$L12:1:153
     896                      .dwattr $C$DW$89, DW_AT_TI_begin_file("../FreeRTOS/Demo/Common/Minimal/QPeek.c")
     897                      .dwattr $C$DW$89, DW_AT_TI_begin_line(0xf6)
     898                      .dwattr $C$DW$89, DW_AT_TI_end_line(0x124)
     899              $C$DW$90        .dwtag  DW_TAG_TI_loop_range
     900                      .dwattr $C$DW$90, DW_AT_low_pc($C$DW$L$_prvHighPriorityPeekTask$2$B)
     901                      .dwattr $C$DW$90, DW_AT_high_pc($C$DW$L$_prvHighPriorityPeekTask$2$E)
     902              $C$DW$91        .dwtag  DW_TAG_TI_loop_range
     903                      .dwattr $C$DW$91, DW_AT_low_pc($C$DW$L$_prvHighPriorityPeekTask$3$B)
     904                      .dwattr $C$DW$91, DW_AT_high_pc($C$DW$L$_prvHighPriorityPeekTask$3$E)
     905              $C$DW$92        .dwtag  DW_TAG_TI_loop_range
     906                      .dwattr $C$DW$92, DW_AT_low_pc($C$DW$L$_prvHighPriorityPeekTask$4$B)
     907                      .dwattr $C$DW$92, DW_AT_high_pc($C$DW$L$_prvHighPriorityPeekTask$4$E)
     908              $C$DW$93        .dwtag  DW_TAG_TI_loop_range
     909                      .dwattr $C$DW$93, DW_AT_low_pc($C$DW$L$_prvHighPriorityPeekTask$5$B)
     910                      .dwattr $C$DW$93, DW_AT_high_pc($C$DW$L$_prvHighPriorityPeekTask$5$E)
     911              $C$DW$94        .dwtag  DW_TAG_TI_loop_range
     912                      .dwattr $C$DW$94, DW_AT_low_pc($C$DW$L$_prvHighPriorityPeekTask$6$B)
     913                      .dwattr $C$DW$94, DW_AT_high_pc($C$DW$L$_prvHighPriorityPeekTask$6$E)
     914              $C$DW$95        .dwtag  DW_TAG_TI_loop_range
     915                      .dwattr $C$DW$95, DW_AT_low_pc($C$DW$L$_prvHighPriorityPeekTask$7$B)
     916                      .dwattr $C$DW$95, DW_AT_high_pc($C$DW$L$_prvHighPriorityPeekTask$7$E)
     917              $C$DW$96        .dwtag  DW_TAG_TI_loop_range
     918                      .dwattr $C$DW$96, DW_AT_low_pc($C$DW$L$_prvHighPriorityPeekTask$8$B)
     919                      .dwattr $C$DW$96, DW_AT_high_pc($C$DW$L$_prvHighPriorityPeekTask$8$E)
     920              $C$DW$97        .dwtag  DW_TAG_TI_loop_range
     921                      .dwattr $C$DW$97, DW_AT_low_pc($C$DW$L$_prvHighPriorityPeekTask$9$B)
     922                      .dwattr $C$DW$97, DW_AT_high_pc($C$DW$L$_prvHighPriorityPeekTask$9$E)
     923              $C$DW$98        .dwtag  DW_TAG_TI_loop_range
     924                      .dwattr $C$DW$98, DW_AT_low_pc($C$DW$L$_prvHighPriorityPeekTask$10$B)
     925                      .dwattr $C$DW$98, DW_AT_high_pc($C$DW$L$_prvHighPriorityPeekTask$10$E)
     926              $C$DW$99        .dwtag  DW_TAG_TI_loop_range
     927                      .dwattr $C$DW$99, DW_AT_low_pc($C$DW$L$_prvHighPriorityPeekTask$11$B)
TMS320C55x Assembler PC v4.4.1 Fri Sep 07 01:41:44 2018

Tools Copyright (c) 1996-2012 Texas Instruments Incorporated
QPeek.asm                                                            PAGE   21

     928                      .dwattr $C$DW$99, DW_AT_high_pc($C$DW$L$_prvHighPriorityPeekTask$11$E)
     929              $C$DW$100       .dwtag  DW_TAG_TI_loop_range
     930                      .dwattr $C$DW$100, DW_AT_low_pc($C$DW$L$_prvHighPriorityPeekTask$12$B)
     931                      .dwattr $C$DW$100, DW_AT_high_pc($C$DW$L$_prvHighPriorityPeekTask$12$E)
     932                      .dwendtag $C$DW$89
     933              
     934                      .dwattr $C$DW$79, DW_AT_TI_end_file("../FreeRTOS/Demo/Common/Minimal/QPeek.c")
     935                      .dwattr $C$DW$79, DW_AT_TI_end_line(0x125)
     936                      .dwattr $C$DW$79, DW_AT_TI_end_column(0x01)
     937                      .dwendentry
     938                      .dwendtag $C$DW$79
     939              
     940 00028e               .sect   ".text"
     941                      .align 4
     942              
     943              $C$DW$101       .dwtag  DW_TAG_subprogram, DW_AT_name("prvMediumPriorityPeekTask")
     944                      .dwattr $C$DW$101, DW_AT_low_pc(_prvMediumPriorityPeekTask)
     945                      .dwattr $C$DW$101, DW_AT_high_pc(0x00)
     946                      .dwattr $C$DW$101, DW_AT_TI_symbol_name("_prvMediumPriorityPeekTask")
     947                      .dwattr $C$DW$101, DW_AT_TI_begin_file("../FreeRTOS/Demo/Common/Minimal/QPeek.c")
     948                      .dwattr $C$DW$101, DW_AT_TI_begin_line(0x128)
     949                      .dwattr $C$DW$101, DW_AT_TI_begin_column(0x0d)
     950                      .dwattr $C$DW$101, DW_AT_TI_max_frame_size(0x0a)
     951                      .dwpsn  file "../FreeRTOS/Demo/Common/Minimal/QPeek.c",line 297,column 1,is_stmt,address _prvMediumPr
     952              
     953                      .dwfde $C$DW$CIE, _prvMediumPriorityPeekTask
     954              $C$DW$102       .dwtag  DW_TAG_formal_parameter, DW_AT_name("pvParameters")
     955                      .dwattr $C$DW$102, DW_AT_TI_symbol_name("_pvParameters")
     956                      .dwattr $C$DW$102, DW_AT_type(*$C$DW$T$3)
     957                      .dwattr $C$DW$102, DW_AT_location[DW_OP_reg17]
     958              ;*******************************************************************************
     959              ;* FUNCTION NAME: prvMediumPriorityPeekTask                                    *
     960              ;*                                                                             *
     961              ;*   Function Uses Regs : AC0,AC0,AC1,AC1,T0,T1,T2,T3,AR0,XAR0,AR1,XAR1,AR3,   *
     962              ;*                        XAR3,SP,CARRY,TC1,M40,SATA,SATD,RDM,FRCT,SMUL        *
     963              ;*   Save On Entry Regs : T2,T3                                                *
     964              ;*   Stack Frame        : Compact (No Frame Pointer, w/ debug)                 *
     965              ;*   Total Frame Size   : 10 words                                             *
     966              ;*                        (2 return address/alignment)                         *
     967              ;*                        (6 local values)                                     *
     968              ;*                        (2 register save area)                               *
     969              ;*   Min System Stack   : 1 word                                               *
     970              ;*******************************************************************************
     971 000290       _prvMediumPriorityPeekTask:
     972                      .dwcfi  cfa_offset, 1
     973                      .dwcfi  save_reg_to_mem, 91, -1
     974 000290 5066          PSH T2
     975                      .dwcfi  cfa_offset, 2
     976                      .dwcfi  save_reg_to_mem, 14, -2
     977 000292 5076          PSH T3
     978                      .dwcfi  cfa_offset, 3
     979                      .dwcfi  save_reg_to_mem, 15, -3
     980 000294 4EF9          AADD #-7, SP
     981                      .dwcfi  cfa_offset, 10
     982              $C$DW$103       .dwtag  DW_TAG_variable, DW_AT_name("pvParameters")
TMS320C55x Assembler PC v4.4.1 Fri Sep 07 01:41:44 2018

Tools Copyright (c) 1996-2012 Texas Instruments Incorporated
QPeek.asm                                                            PAGE   22

     983                      .dwattr $C$DW$103, DW_AT_TI_symbol_name("_pvParameters")
     984                      .dwattr $C$DW$103, DW_AT_type(*$C$DW$T$3)
     985                      .dwattr $C$DW$103, DW_AT_location[DW_OP_bregx 0x24 0]
     986              $C$DW$104       .dwtag  DW_TAG_variable, DW_AT_name("xQueue")
     987                      .dwattr $C$DW$104, DW_AT_TI_symbol_name("_xQueue")
     988                      .dwattr $C$DW$104, DW_AT_type(*$C$DW$T$21)
     989                      .dwattr $C$DW$104, DW_AT_location[DW_OP_bregx 0x24 2]
     990              $C$DW$105       .dwtag  DW_TAG_variable, DW_AT_name("ulValue")
     991                      .dwattr $C$DW$105, DW_AT_TI_symbol_name("_ulValue")
     992                      .dwattr $C$DW$105, DW_AT_type(*$C$DW$T$13)
     993                      .dwattr $C$DW$105, DW_AT_location[DW_OP_bregx 0x24 4]
     994 000296 EB00          MOV XAR0, dbl(*SP(#0))
         000298 85   
     995                      .dwpsn  file "../FreeRTOS/Demo/Common/Minimal/QPeek.c",line 298,column 14,is_stmt
     996 000299 3C17          MOV #1, T3
     997 00029b ED00          MOV dbl(*SP(#0)), XAR3
         00029d BF   
     998              
     999 00029e EB04          MOV XAR3, dbl(*SP(#2))
         0002a0 B5   
    1000 0002a1 3D16  ||      MOV #1, T2
    1001              
    1002 0002a3       $C$L18:    
    1003 0002a3       $C$DW$L$_prvMediumPriorityPeekTask$2$B:
    1004                      .dwpsn  file "../FreeRTOS/Demo/Common/Minimal/QPeek.c",line 306,column 3,is_stmt
    1005 0002a3 ED04          MOV dbl(*SP(#2)), XAR0
         0002a5 8F   
    1006 0002a6 EC08          AMAR *SP(#4), XAR1
         0002a8 9E   
    1007 0002a9 76FF          MOV #65535, T0 ; |306| 
         0002ab FF48 
    1008              $C$DW$106       .dwtag  DW_TAG_TI_branch
    1009                      .dwattr $C$DW$106, DW_AT_low_pc(0x00)
    1010                      .dwattr $C$DW$106, DW_AT_name("_xQueueGenericReceive")
    1011                      .dwattr $C$DW$106, DW_AT_TI_call
    1012              
    1013 0002ad 6C00          CALL #_xQueueGenericReceive ; |306| 
         0002af 0000!
    1014 0002b1 3D15  ||      MOV #1, T1
    1015              
    1016                                                      ; call occurs [#_xQueueGenericReceive] ; |306| 
    1017 0002b3 1240          CMP T0 == T3, TC1 ; |306| 
         0002b5 70   
    1018 0002b6 6364          BCC $C$L19,TC1 ; |306| 
    1019                                                      ; branchcc occurs ; |306| 
    1020 0002b8       $C$DW$L$_prvMediumPriorityPeekTask$2$E:
    1021 0002b8       $C$DW$L$_prvMediumPriorityPeekTask$3$B:
    1022                      .dwpsn  file "../FreeRTOS/Demo/Common/Minimal/QPeek.c",line 309,column 4,is_stmt
    1023 0002b8 E631          MOV #1, *(#_xErrorDetected) ; |309| 
         0002ba 0100 
         0002bc 0000-
    1024 0002be       $C$DW$L$_prvMediumPriorityPeekTask$3$E:
    1025 0002be       $C$L19:    
    1026 0002be       $C$DW$L$_prvMediumPriorityPeekTask$4$B:
    1027                      .dwpsn  file "../FreeRTOS/Demo/Common/Minimal/QPeek.c",line 315,column 3,is_stmt
TMS320C55x Assembler PC v4.4.1 Fri Sep 07 01:41:44 2018

Tools Copyright (c) 1996-2012 Texas Instruments Incorporated
QPeek.asm                                                            PAGE   23

    1028 0002be 7A01          MOV #291 << #16, AC0 ; |315| 
         0002c0 230A 
    1029 0002c2 ED08          MOV dbl(*SP(#4)), AC1 ; |315| 
         0002c4 18   
    1030 0002c5 7E45          OR #0x4567, AC0, AC0 ; |315| 
         0002c7 6700 
    1031 0002c9 1210          CMPU AC1 == AC0, TC1 ; |315| 
         0002cb 04   
    1032 0002cc 6364          BCC $C$L20,TC1 ; |315| 
    1033                                                      ; branchcc occurs ; |315| 
    1034 0002ce       $C$DW$L$_prvMediumPriorityPeekTask$4$E:
    1035 0002ce       $C$DW$L$_prvMediumPriorityPeekTask$5$B:
    1036                      .dwpsn  file "../FreeRTOS/Demo/Common/Minimal/QPeek.c",line 318,column 4,is_stmt
    1037 0002ce E631          MOV #1, *(#_xErrorDetected) ; |318| 
         0002d0 0100 
         0002d2 0000-
    1038 0002d4       $C$DW$L$_prvMediumPriorityPeekTask$5$E:
    1039 0002d4       $C$L20:    
    1040 0002d4       $C$DW$L$_prvMediumPriorityPeekTask$6$B:
    1041                      .dwpsn  file "../FreeRTOS/Demo/Common/Minimal/QPeek.c",line 321,column 3,is_stmt
    1042 0002d4 ED04          MOV dbl(*SP(#2)), XAR0
         0002d6 8F   
    1043              $C$DW$107       .dwtag  DW_TAG_TI_branch
    1044                      .dwattr $C$DW$107, DW_AT_low_pc(0x00)
    1045                      .dwattr $C$DW$107, DW_AT_name("_uxQueueMessagesWaiting")
    1046                      .dwattr $C$DW$107, DW_AT_TI_call
    1047 0002d7 6C00          CALL #_uxQueueMessagesWaiting ; |321| 
         0002d9 0000!
    1048                                                      ; call occurs [#_uxQueueMessagesWaiting] ; |321| 
    1049 0002db 1240          CMPU T0 == T2, TC1 ; |321| 
         0002dd 64   
    1050 0002de 6364          BCC $C$L21,TC1 ; |321| 
    1051                                                      ; branchcc occurs ; |321| 
    1052 0002e0       $C$DW$L$_prvMediumPriorityPeekTask$6$E:
    1053 0002e0       $C$DW$L$_prvMediumPriorityPeekTask$7$B:
    1054                      .dwpsn  file "../FreeRTOS/Demo/Common/Minimal/QPeek.c",line 324,column 4,is_stmt
    1055 0002e0 E631          MOV #1, *(#_xErrorDetected) ; |324| 
         0002e2 0100 
         0002e4 0000-
    1056 0002e6       $C$DW$L$_prvMediumPriorityPeekTask$7$E:
    1057 0002e6       $C$L21:    
    1058 0002e6       $C$DW$L$_prvMediumPriorityPeekTask$8$B:
    1059                      .dwpsn  file "../FreeRTOS/Demo/Common/Minimal/QPeek.c",line 328,column 3,is_stmt
    1060 0002e6 ED31          MOV dbl(*(#_ulLoopCounter)), AC0 ; |328| 
         0002e8 0800 
         0002ea 0002-
    1061 0002ec 4010          ADD #1, AC0 ; |328| 
    1062 0002ee EB31          MOV AC0, dbl(*(#_ulLoopCounter)) ; |328| 
         0002f0 0800 
         0002f2 0002-
    1063                      .dwpsn  file "../FreeRTOS/Demo/Common/Minimal/QPeek.c",line 332,column 3,is_stmt
    1064 0002f4 EC31          AMOV #0, XAR0 ; |332| 
         0002f6 8E00 
         0002f8 0000 
    1065              $C$DW$108       .dwtag  DW_TAG_TI_branch
TMS320C55x Assembler PC v4.4.1 Fri Sep 07 01:41:44 2018

Tools Copyright (c) 1996-2012 Texas Instruments Incorporated
QPeek.asm                                                            PAGE   24

    1066                      .dwattr $C$DW$108, DW_AT_low_pc(0x00)
    1067                      .dwattr $C$DW$108, DW_AT_name("_vTaskSuspend")
    1068                      .dwattr $C$DW$108, DW_AT_TI_call
    1069 0002fa 6C00          CALL #_vTaskSuspend ; |332| 
         0002fc 0000!
    1070                                                      ; call occurs [#_vTaskSuspend] ; |332| 
    1071                      .dwpsn  file "../FreeRTOS/Demo/Common/Minimal/QPeek.c",line 333,column 2,is_stmt
    1072 0002fe 06FF          B $C$L18  ; |333| 
         000300 A2   
    1073                                                      ; branch occurs ; |333| 
    1074 000301       $C$DW$L$_prvMediumPriorityPeekTask$8$E:
    1075                      .dwcfi  cfa_offset, 3
    1076                      .dwcfi  restore_reg, 15
    1077                      .dwcfi  cfa_offset, 2
    1078                      .dwcfi  restore_reg, 14
    1079                      .dwcfi  cfa_offset, 1
    1080              
    1081              $C$DW$109       .dwtag  DW_TAG_TI_loop
    1082                      .dwattr $C$DW$109, DW_AT_name("F:\site\eZDSP\eZDSP_5535_Files\ccsws2\test\Debug\QPeek.asm:$C$L18:1:15
    1083                      .dwattr $C$DW$109, DW_AT_TI_begin_file("../FreeRTOS/Demo/Common/Minimal/QPeek.c")
    1084                      .dwattr $C$DW$109, DW_AT_TI_begin_line(0x12d)
    1085                      .dwattr $C$DW$109, DW_AT_TI_end_line(0x14d)
    1086              $C$DW$110       .dwtag  DW_TAG_TI_loop_range
    1087                      .dwattr $C$DW$110, DW_AT_low_pc($C$DW$L$_prvMediumPriorityPeekTask$2$B)
    1088                      .dwattr $C$DW$110, DW_AT_high_pc($C$DW$L$_prvMediumPriorityPeekTask$2$E)
    1089              $C$DW$111       .dwtag  DW_TAG_TI_loop_range
    1090                      .dwattr $C$DW$111, DW_AT_low_pc($C$DW$L$_prvMediumPriorityPeekTask$3$B)
    1091                      .dwattr $C$DW$111, DW_AT_high_pc($C$DW$L$_prvMediumPriorityPeekTask$3$E)
    1092              $C$DW$112       .dwtag  DW_TAG_TI_loop_range
    1093                      .dwattr $C$DW$112, DW_AT_low_pc($C$DW$L$_prvMediumPriorityPeekTask$4$B)
    1094                      .dwattr $C$DW$112, DW_AT_high_pc($C$DW$L$_prvMediumPriorityPeekTask$4$E)
    1095              $C$DW$113       .dwtag  DW_TAG_TI_loop_range
    1096                      .dwattr $C$DW$113, DW_AT_low_pc($C$DW$L$_prvMediumPriorityPeekTask$5$B)
    1097                      .dwattr $C$DW$113, DW_AT_high_pc($C$DW$L$_prvMediumPriorityPeekTask$5$E)
    1098              $C$DW$114       .dwtag  DW_TAG_TI_loop_range
    1099                      .dwattr $C$DW$114, DW_AT_low_pc($C$DW$L$_prvMediumPriorityPeekTask$6$B)
    1100                      .dwattr $C$DW$114, DW_AT_high_pc($C$DW$L$_prvMediumPriorityPeekTask$6$E)
    1101              $C$DW$115       .dwtag  DW_TAG_TI_loop_range
    1102                      .dwattr $C$DW$115, DW_AT_low_pc($C$DW$L$_prvMediumPriorityPeekTask$7$B)
    1103                      .dwattr $C$DW$115, DW_AT_high_pc($C$DW$L$_prvMediumPriorityPeekTask$7$E)
    1104              $C$DW$116       .dwtag  DW_TAG_TI_loop_range
    1105                      .dwattr $C$DW$116, DW_AT_low_pc($C$DW$L$_prvMediumPriorityPeekTask$8$B)
    1106                      .dwattr $C$DW$116, DW_AT_high_pc($C$DW$L$_prvMediumPriorityPeekTask$8$E)
    1107                      .dwendtag $C$DW$109
    1108              
    1109                      .dwattr $C$DW$101, DW_AT_TI_end_file("../FreeRTOS/Demo/Common/Minimal/QPeek.c")
    1110                      .dwattr $C$DW$101, DW_AT_TI_end_line(0x14e)
    1111                      .dwattr $C$DW$101, DW_AT_TI_end_column(0x01)
    1112                      .dwendentry
    1113                      .dwendtag $C$DW$101
    1114              
    1115 000301               .sect   ".text"
    1116                      .align 4
    1117              
    1118              $C$DW$117       .dwtag  DW_TAG_subprogram, DW_AT_name("prvLowPriorityPeekTask")
TMS320C55x Assembler PC v4.4.1 Fri Sep 07 01:41:44 2018

Tools Copyright (c) 1996-2012 Texas Instruments Incorporated
QPeek.asm                                                            PAGE   25

    1119                      .dwattr $C$DW$117, DW_AT_low_pc(_prvLowPriorityPeekTask)
    1120                      .dwattr $C$DW$117, DW_AT_high_pc(0x00)
    1121                      .dwattr $C$DW$117, DW_AT_TI_symbol_name("_prvLowPriorityPeekTask")
    1122                      .dwattr $C$DW$117, DW_AT_TI_begin_file("../FreeRTOS/Demo/Common/Minimal/QPeek.c")
    1123                      .dwattr $C$DW$117, DW_AT_TI_begin_line(0x151)
    1124                      .dwattr $C$DW$117, DW_AT_TI_begin_column(0x0d)
    1125                      .dwattr $C$DW$117, DW_AT_TI_max_frame_size(0x0c)
    1126                      .dwpsn  file "../FreeRTOS/Demo/Common/Minimal/QPeek.c",line 338,column 1,is_stmt,address _prvLowPrior
    1127              
    1128                      .dwfde $C$DW$CIE, _prvLowPriorityPeekTask
    1129              $C$DW$118       .dwtag  DW_TAG_formal_parameter, DW_AT_name("pvParameters")
    1130                      .dwattr $C$DW$118, DW_AT_TI_symbol_name("_pvParameters")
    1131                      .dwattr $C$DW$118, DW_AT_type(*$C$DW$T$3)
    1132                      .dwattr $C$DW$118, DW_AT_location[DW_OP_reg17]
    1133              ;*******************************************************************************
    1134              ;* FUNCTION NAME: prvLowPriorityPeekTask                                       *
    1135              ;*                                                                             *
    1136              ;*   Function Uses Regs : AC0,AC0,T0,T1,T2,T3,AR0,XAR0,AR1,XAR1,AR3,XAR3,AR5,  *
    1137              ;*                        AR6,SP,TC1,M40,SATA,SATD,RDM,FRCT,SMUL               *
    1138              ;*   Save On Entry Regs : T2,T3,AR5,AR6                                        *
    1139              ;*   Stack Frame        : Compact (No Frame Pointer, w/ debug)                 *
    1140              ;*   Total Frame Size   : 12 words                                             *
    1141              ;*                        (2 return address/alignment)                         *
    1142              ;*                        (6 local values)                                     *
    1143              ;*                        (4 register save area)                               *
    1144              ;*   Min System Stack   : 3 words                                              *
    1145              ;*******************************************************************************
    1146 000304       _prvLowPriorityPeekTask:
    1147                      .dwcfi  cfa_offset, 1
    1148                      .dwcfi  save_reg_to_mem, 91, -1
    1149 000304 5066          PSH T2
    1150                      .dwcfi  cfa_offset, 2
    1151                      .dwcfi  save_reg_to_mem, 14, -2
    1152 000306 5076          PSH T3
    1153                      .dwcfi  cfa_offset, 3
    1154                      .dwcfi  save_reg_to_mem, 15, -3
    1155 000308 50D5          PSHBOTH XAR5
    1156                      .dwcfi  cfa_offset, 4
    1157                      .dwcfi  save_reg_to_mem, 26, -4
    1158 00030a 50E5          PSHBOTH XAR6
    1159                      .dwcfi  cfa_offset, 5
    1160                      .dwcfi  save_reg_to_mem, 28, -5
    1161 00030c 4EF9          AADD #-7, SP
    1162                      .dwcfi  cfa_offset, 12
    1163              $C$DW$119       .dwtag  DW_TAG_variable, DW_AT_name("pvParameters")
    1164                      .dwattr $C$DW$119, DW_AT_TI_symbol_name("_pvParameters")
    1165                      .dwattr $C$DW$119, DW_AT_type(*$C$DW$T$3)
    1166                      .dwattr $C$DW$119, DW_AT_location[DW_OP_bregx 0x24 0]
    1167              $C$DW$120       .dwtag  DW_TAG_variable, DW_AT_name("xQueue")
    1168                      .dwattr $C$DW$120, DW_AT_TI_symbol_name("_xQueue")
    1169                      .dwattr $C$DW$120, DW_AT_type(*$C$DW$T$21)
    1170                      .dwattr $C$DW$120, DW_AT_location[DW_OP_bregx 0x24 2]
    1171              $C$DW$121       .dwtag  DW_TAG_variable, DW_AT_name("ulValue")
    1172                      .dwattr $C$DW$121, DW_AT_TI_symbol_name("_ulValue")
    1173                      .dwattr $C$DW$121, DW_AT_type(*$C$DW$T$13)
TMS320C55x Assembler PC v4.4.1 Fri Sep 07 01:41:44 2018

Tools Copyright (c) 1996-2012 Texas Instruments Incorporated
QPeek.asm                                                            PAGE   26

    1174                      .dwattr $C$DW$121, DW_AT_location[DW_OP_bregx 0x24 4]
    1175 00030e EB00          MOV XAR0, dbl(*SP(#0))
         000310 85   
    1176                      .dwpsn  file "../FreeRTOS/Demo/Common/Minimal/QPeek.c",line 339,column 14,is_stmt
    1177 000311 3C1D          MOV #1, AR5
    1178              
    1179 000313 3C1E          MOV #1, AR6
    1180 000315 3D17  ||      MOV #1, T3
    1181              
    1182 000317 ED00          MOV dbl(*SP(#0)), XAR3
         000319 BF   
    1183              
    1184 00031a EB04          MOV XAR3, dbl(*SP(#2))
         00031c B5   
    1185 00031d 3D16  ||      MOV #1, T2
    1186              
    1187 00031f       $C$L22:    
    1188 00031f       $C$DW$L$_prvLowPriorityPeekTask$2$B:
    1189                      .dwpsn  file "../FreeRTOS/Demo/Common/Minimal/QPeek.c",line 346,column 3,is_stmt
    1190 00031f 7A11          MOV #4386 << #16, AC0 ; |346| 
         000321 220A 
    1191 000323 7E33          OR #0x3344, AC0, AC0 ; |346| 
         000325 4400 
    1192 000327 EB08          MOV AC0, dbl(*SP(#4)) ; |346| 
         000329 08   
    1193                      .dwpsn  file "../FreeRTOS/Demo/Common/Minimal/QPeek.c",line 347,column 3,is_stmt
    1194              
    1195 00032d 3D04          MOV #0, T0
    1196 00032a EC08  ||      AMAR *SP(#4), XAR1
         00032c 9E   
    1197              
    1198 00032f ED04          MOV dbl(*SP(#2)), XAR0
         000331 8F   
    1199              $C$DW$122       .dwtag  DW_TAG_TI_branch
    1200                      .dwattr $C$DW$122, DW_AT_low_pc(0x00)
    1201                      .dwattr $C$DW$122, DW_AT_name("_xQueueGenericSend")
    1202                      .dwattr $C$DW$122, DW_AT_TI_call
    1203              
    1204 000332 6C00          CALL #_xQueueGenericSend ; |347| 
         000334 0000!
    1205 000336 3D05  ||      MOV #0, T1
    1206              
    1207                                                      ; call occurs [#_xQueueGenericSend] ; |347| 
    1208 000338 1240          CMP T0 == AR6, TC1 ; |347| 
         00033a E0   
    1209 00033b 6364          BCC $C$L23,TC1 ; |347| 
    1210                                                      ; branchcc occurs ; |347| 
    1211 00033d       $C$DW$L$_prvLowPriorityPeekTask$2$E:
    1212 00033d       $C$DW$L$_prvLowPriorityPeekTask$3$B:
    1213                      .dwpsn  file "../FreeRTOS/Demo/Common/Minimal/QPeek.c",line 351,column 4,is_stmt
    1214 00033d E631          MOV #1, *(#_xErrorDetected) ; |351| 
         00033f 0100 
         000341 0000-
    1215 000343       $C$DW$L$_prvLowPriorityPeekTask$3$E:
    1216 000343       $C$L23:    
TMS320C55x Assembler PC v4.4.1 Fri Sep 07 01:41:44 2018

Tools Copyright (c) 1996-2012 Texas Instruments Incorporated
QPeek.asm                                                            PAGE   27

    1217 000343       $C$DW$L$_prvLowPriorityPeekTask$4$B:
    1218                      .dwpsn  file "../FreeRTOS/Demo/Common/Minimal/QPeek.c",line 356,column 3,is_stmt
    1219 000343 ED04          MOV dbl(*SP(#2)), XAR0
         000345 8F   
    1220              $C$DW$123       .dwtag  DW_TAG_TI_branch
    1221                      .dwattr $C$DW$123, DW_AT_low_pc(0x00)
    1222                      .dwattr $C$DW$123, DW_AT_name("_uxQueueMessagesWaiting")
    1223                      .dwattr $C$DW$123, DW_AT_TI_call
    1224 000346 6C00          CALL #_uxQueueMessagesWaiting ; |356| 
         000348 0000!
    1225                                                      ; call occurs [#_uxQueueMessagesWaiting] ; |356| 
    1226 00034a 6304          BCC $C$L24,T0 == #0 ; |356| 
    1227                                                      ; branchcc occurs ; |356| 
    1228 00034c       $C$DW$L$_prvLowPriorityPeekTask$4$E:
    1229 00034c       $C$DW$L$_prvLowPriorityPeekTask$5$B:
    1230                      .dwpsn  file "../FreeRTOS/Demo/Common/Minimal/QPeek.c",line 358,column 4,is_stmt
    1231 00034c E631          MOV #1, *(#_xErrorDetected) ; |358| 
         00034e 0100 
         000350 0000-
    1232 000352       $C$DW$L$_prvLowPriorityPeekTask$5$E:
    1233 000352       $C$L24:    
    1234 000352       $C$DW$L$_prvLowPriorityPeekTask$6$B:
    1235                      .dwpsn  file "../FreeRTOS/Demo/Common/Minimal/QPeek.c",line 363,column 3,is_stmt
    1236 000352 7A01          MOV #291 << #16, AC0 ; |363| 
         000354 230A 
    1237 000356 7E45          OR #0x4567, AC0, AC0 ; |363| 
         000358 6700 
    1238 00035a EB08          MOV AC0, dbl(*SP(#4)) ; |363| 
         00035c 08   
    1239                      .dwpsn  file "../FreeRTOS/Demo/Common/Minimal/QPeek.c",line 364,column 3,is_stmt
    1240              
    1241 000360 3D04          MOV #0, T0
    1242 00035d EC08  ||      AMAR *SP(#4), XAR1
         00035f 9E   
    1243              
    1244 000362 ED04          MOV dbl(*SP(#2)), XAR0
         000364 8F   
    1245              $C$DW$124       .dwtag  DW_TAG_TI_branch
    1246                      .dwattr $C$DW$124, DW_AT_low_pc(0x00)
    1247                      .dwattr $C$DW$124, DW_AT_name("_xQueueGenericSend")
    1248                      .dwattr $C$DW$124, DW_AT_TI_call
    1249              
    1250 000365 6C00          CALL #_xQueueGenericSend ; |364| 
         000367 0000!
    1251 000369 3D05  ||      MOV #0, T1
    1252              
    1253                                                      ; call occurs [#_xQueueGenericSend] ; |364| 
    1254 00036b 1240          CMP T0 == AR5, TC1 ; |364| 
         00036d D0   
    1255 00036e 6364          BCC $C$L25,TC1 ; |364| 
    1256                                                      ; branchcc occurs ; |364| 
    1257 000370       $C$DW$L$_prvLowPriorityPeekTask$6$E:
    1258 000370       $C$DW$L$_prvLowPriorityPeekTask$7$B:
    1259                      .dwpsn  file "../FreeRTOS/Demo/Common/Minimal/QPeek.c",line 368,column 4,is_stmt
    1260 000370 E631          MOV #1, *(#_xErrorDetected) ; |368| 
TMS320C55x Assembler PC v4.4.1 Fri Sep 07 01:41:44 2018

Tools Copyright (c) 1996-2012 Texas Instruments Incorporated
QPeek.asm                                                            PAGE   28

         000372 0100 
         000374 0000-
    1261 000376       $C$DW$L$_prvLowPriorityPeekTask$7$E:
    1262 000376       $C$L25:    
    1263 000376       $C$DW$L$_prvLowPriorityPeekTask$8$B:
    1264                      .dwpsn  file "../FreeRTOS/Demo/Common/Minimal/QPeek.c",line 373,column 3,is_stmt
    1265 000376 3C00          MOV #0, AC0 ; |373| 
    1266 000378 EB08          MOV AC0, dbl(*SP(#4)) ; |373| 
         00037a 08   
    1267                      .dwpsn  file "../FreeRTOS/Demo/Common/Minimal/QPeek.c",line 374,column 3,is_stmt
    1268              
    1269 00037e 3D04          MOV #0, T0
    1270 00037b EC08  ||      AMAR *SP(#4), XAR1
         00037d 9E   
    1271              
    1272 000380 ED04          MOV dbl(*SP(#2)), XAR0
         000382 8F   
    1273              $C$DW$125       .dwtag  DW_TAG_TI_branch
    1274                      .dwattr $C$DW$125, DW_AT_low_pc(0x00)
    1275                      .dwattr $C$DW$125, DW_AT_name("_xQueueGenericReceive")
    1276                      .dwattr $C$DW$125, DW_AT_TI_call
    1277              
    1278 000383 6C00          CALL #_xQueueGenericReceive ; |374| 
         000385 0000!
    1279 000387 3D05  ||      MOV #0, T1
    1280              
    1281                                                      ; call occurs [#_xQueueGenericReceive] ; |374| 
    1282 000389 1240          CMP T0 == T3, TC1 ; |374| 
         00038b 70   
    1283 00038c 6364          BCC $C$L26,TC1 ; |374| 
    1284                                                      ; branchcc occurs ; |374| 
    1285 00038e       $C$DW$L$_prvLowPriorityPeekTask$8$E:
    1286 00038e       $C$DW$L$_prvLowPriorityPeekTask$9$B:
    1287                      .dwpsn  file "../FreeRTOS/Demo/Common/Minimal/QPeek.c",line 377,column 4,is_stmt
    1288 00038e E631          MOV #1, *(#_xErrorDetected) ; |377| 
         000390 0100 
         000392 0000-
    1289 000394       $C$DW$L$_prvLowPriorityPeekTask$9$E:
    1290 000394       $C$L26:    
    1291 000394       $C$DW$L$_prvLowPriorityPeekTask$10$B:
    1292                      .dwpsn  file "../FreeRTOS/Demo/Common/Minimal/QPeek.c",line 380,column 3,is_stmt
    1293                      .dwpsn  file "../FreeRTOS/Demo/Common/Minimal/QPeek.c",line 387,column 3,is_stmt
    1294              $C$DW$126       .dwtag  DW_TAG_TI_branch
    1295                      .dwattr $C$DW$126, DW_AT_low_pc(0x00)
    1296                      .dwattr $C$DW$126, DW_AT_name("_vTaskDelay")
    1297                      .dwattr $C$DW$126, DW_AT_TI_call
    1298              
    1299 000394 6C00          CALL #_vTaskDelay ; |387| 
         000396 0000!
    1300 000398 3DA4  ||      MOV #10, T0
    1301              
    1302                                                      ; call occurs [#_vTaskDelay] ; |387| 
    1303                      .dwpsn  file "../FreeRTOS/Demo/Common/Minimal/QPeek.c",line 394,column 3,is_stmt
    1304 00039a ED31          MOV dbl(*(#_xMediumPriorityTask)), XAR0
         00039c 8F00 
TMS320C55x Assembler PC v4.4.1 Fri Sep 07 01:41:44 2018

Tools Copyright (c) 1996-2012 Texas Instruments Incorporated
QPeek.asm                                                            PAGE   29

         00039e 0004-
    1305              $C$DW$127       .dwtag  DW_TAG_TI_branch
    1306                      .dwattr $C$DW$127, DW_AT_low_pc(0x00)
    1307                      .dwattr $C$DW$127, DW_AT_name("_vTaskResume")
    1308                      .dwattr $C$DW$127, DW_AT_TI_call
    1309 0003a0 6C00          CALL #_vTaskResume ; |394| 
         0003a2 0000!
    1310                                                      ; call occurs [#_vTaskResume] ; |394| 
    1311                      .dwpsn  file "../FreeRTOS/Demo/Common/Minimal/QPeek.c",line 395,column 3,is_stmt
    1312 0003a4 ED31          MOV dbl(*(#_xHighPriorityTask)), XAR0
         0003a6 8F00 
         0003a8 0006-
    1313              $C$DW$128       .dwtag  DW_TAG_TI_branch
    1314                      .dwattr $C$DW$128, DW_AT_low_pc(0x00)
    1315                      .dwattr $C$DW$128, DW_AT_name("_vTaskResume")
    1316                      .dwattr $C$DW$128, DW_AT_TI_call
    1317 0003aa 6C00          CALL #_vTaskResume ; |395| 
         0003ac 0000!
    1318                                                      ; call occurs [#_vTaskResume] ; |395| 
    1319                      .dwpsn  file "../FreeRTOS/Demo/Common/Minimal/QPeek.c",line 396,column 3,is_stmt
    1320 0003ae ED31          MOV dbl(*(#_xHighestPriorityTask)), XAR0
         0003b0 8F00 
         0003b2 0008-
    1321              $C$DW$129       .dwtag  DW_TAG_TI_branch
    1322                      .dwattr $C$DW$129, DW_AT_low_pc(0x00)
    1323                      .dwattr $C$DW$129, DW_AT_name("_vTaskResume")
    1324                      .dwattr $C$DW$129, DW_AT_TI_call
    1325 0003b4 6C00          CALL #_vTaskResume ; |396| 
         0003b6 0000!
    1326                                                      ; call occurs [#_vTaskResume] ; |396| 
    1327                      .dwpsn  file "../FreeRTOS/Demo/Common/Minimal/QPeek.c",line 398,column 3,is_stmt
    1328 0003b8 7AAA          MOV #-21829 << #16, AC0 ; |398| 
         0003ba BB0A 
    1329 0003bc 7EAA          OR #0xaabb, AC0, AC0 ; |398| 
         0003be BB00 
    1330 0003c0 EB08          MOV AC0, dbl(*SP(#4)) ; |398| 
         0003c2 08   
    1331                      .dwpsn  file "../FreeRTOS/Demo/Common/Minimal/QPeek.c",line 399,column 3,is_stmt
    1332 0003c3 ED04          MOV dbl(*SP(#2)), XAR0
         0003c5 8F   
    1333              
    1334 0003c6 EC08          AMAR *SP(#4), XAR1
         0003c8 9E   
    1335 0003c9 3D15  ||      MOV #1, T1
    1336              
    1337              $C$DW$130       .dwtag  DW_TAG_TI_branch
    1338                      .dwattr $C$DW$130, DW_AT_low_pc(0x00)
    1339                      .dwattr $C$DW$130, DW_AT_name("_xQueueGenericSend")
    1340                      .dwattr $C$DW$130, DW_AT_TI_call
    1341              
    1342 0003cb 6C00          CALL #_xQueueGenericSend ; |399| 
         0003cd 0000!
    1343 0003cf 3D04  ||      MOV #0, T0
    1344              
    1345                                                      ; call occurs [#_xQueueGenericSend] ; |399| 
TMS320C55x Assembler PC v4.4.1 Fri Sep 07 01:41:44 2018

Tools Copyright (c) 1996-2012 Texas Instruments Incorporated
QPeek.asm                                                            PAGE   30

    1346 0003d1 1240          CMP T0 == T2, TC1 ; |399| 
         0003d3 60   
    1347 0003d4 6364          BCC $C$L27,TC1 ; |399| 
    1348                                                      ; branchcc occurs ; |399| 
    1349 0003d6       $C$DW$L$_prvLowPriorityPeekTask$10$E:
    1350 0003d6       $C$DW$L$_prvLowPriorityPeekTask$11$B:
    1351                      .dwpsn  file "../FreeRTOS/Demo/Common/Minimal/QPeek.c",line 403,column 4,is_stmt
    1352 0003d6 E631          MOV #1, *(#_xErrorDetected) ; |403| 
         0003d8 0100 
         0003da 0000-
    1353 0003dc       $C$DW$L$_prvLowPriorityPeekTask$11$E:
    1354 0003dc       $C$L27:    
    1355 0003dc       $C$DW$L$_prvLowPriorityPeekTask$12$B:
    1356                      .dwpsn  file "../FreeRTOS/Demo/Common/Minimal/QPeek.c",line 408,column 3,is_stmt
    1357 0003dc ED04          MOV dbl(*SP(#2)), XAR0
         0003de 8F   
    1358              
    1359 0003e2 3D04          MOV #0, T0
    1360 0003df EC08  ||      AMAR *SP(#4), XAR1
         0003e1 9E   
    1361              
    1362              $C$DW$131       .dwtag  DW_TAG_TI_branch
    1363                      .dwattr $C$DW$131, DW_AT_low_pc(0x00)
    1364                      .dwattr $C$DW$131, DW_AT_name("_xQueueGenericReceive")
    1365                      .dwattr $C$DW$131, DW_AT_TI_call
    1366              
    1367 0003e4 6C00          CALL #_xQueueGenericReceive ; |408| 
         0003e6 0000!
    1368 0003e8 3D15  ||      MOV #1, T1
    1369              
    1370                                                      ; call occurs [#_xQueueGenericReceive] ; |408| 
    1371 0003ea 6304          BCC $C$L28,T0 == #0 ; |408| 
    1372                                                      ; branchcc occurs ; |408| 
    1373 0003ec       $C$DW$L$_prvLowPriorityPeekTask$12$E:
    1374 0003ec       $C$DW$L$_prvLowPriorityPeekTask$13$B:
    1375                      .dwpsn  file "../FreeRTOS/Demo/Common/Minimal/QPeek.c",line 411,column 4,is_stmt
    1376 0003ec E631          MOV #1, *(#_xErrorDetected) ; |411| 
         0003ee 0100 
         0003f0 0000-
    1377 0003f2       $C$DW$L$_prvLowPriorityPeekTask$13$E:
    1378 0003f2       $C$L28:    
    1379 0003f2       $C$DW$L$_prvLowPriorityPeekTask$14$B:
    1380                      .dwpsn  file "../FreeRTOS/Demo/Common/Minimal/QPeek.c",line 417,column 3,is_stmt
    1381 0003f2 ED31          MOV dbl(*(#_xHighPriorityTask)), XAR0
         0003f4 8F00 
         0003f6 0006-
    1382              $C$DW$132       .dwtag  DW_TAG_TI_branch
    1383                      .dwattr $C$DW$132, DW_AT_low_pc(0x00)
    1384                      .dwattr $C$DW$132, DW_AT_name("_vTaskResume")
    1385                      .dwattr $C$DW$132, DW_AT_TI_call
    1386 0003f8 6C00          CALL #_vTaskResume ; |417| 
         0003fa 0000!
    1387                                                      ; call occurs [#_vTaskResume] ; |417| 
    1388                      .dwpsn  file "../FreeRTOS/Demo/Common/Minimal/QPeek.c",line 418,column 3,is_stmt
    1389 0003fc ED31          MOV dbl(*(#_xHighestPriorityTask)), XAR0
TMS320C55x Assembler PC v4.4.1 Fri Sep 07 01:41:44 2018

Tools Copyright (c) 1996-2012 Texas Instruments Incorporated
QPeek.asm                                                            PAGE   31

         0003fe 8F00 
         000400 0008-
    1390              $C$DW$133       .dwtag  DW_TAG_TI_branch
    1391                      .dwattr $C$DW$133, DW_AT_low_pc(0x00)
    1392                      .dwattr $C$DW$133, DW_AT_name("_vTaskResume")
    1393                      .dwattr $C$DW$133, DW_AT_TI_call
    1394 000402 6C00          CALL #_vTaskResume ; |418| 
         000404 0000!
    1395                                                      ; call occurs [#_vTaskResume] ; |418| 
    1396                      .dwpsn  file "../FreeRTOS/Demo/Common/Minimal/QPeek.c",line 422,column 3,is_stmt
    1397              $C$DW$134       .dwtag  DW_TAG_TI_branch
    1398                      .dwattr $C$DW$134, DW_AT_low_pc(0x00)
    1399                      .dwattr $C$DW$134, DW_AT_name("_vTaskDelay")
    1400                      .dwattr $C$DW$134, DW_AT_TI_call
    1401              
    1402 000406 6C00          CALL #_vTaskDelay ; |422| 
         000408 0000!
    1403 00040a 3DA4  ||      MOV #10, T0
    1404              
    1405                                                      ; call occurs [#_vTaskDelay] ; |422| 
    1406                      .dwpsn  file "../FreeRTOS/Demo/Common/Minimal/QPeek.c",line 423,column 2,is_stmt
    1407 00040c 06FF          B $C$L22  ; |423| 
         00040e 10   
    1408                                                      ; branch occurs ; |423| 
    1409 00040f       $C$DW$L$_prvLowPriorityPeekTask$14$E:
    1410                      .dwcfi  cfa_offset, 5
    1411                      .dwcfi  restore_reg, 28
    1412                      .dwcfi  cfa_offset, 4
    1413                      .dwcfi  restore_reg, 26
    1414                      .dwcfi  cfa_offset, 3
    1415                      .dwcfi  restore_reg, 15
    1416                      .dwcfi  cfa_offset, 2
    1417                      .dwcfi  restore_reg, 14
    1418                      .dwcfi  cfa_offset, 1
    1419              
    1420              $C$DW$135       .dwtag  DW_TAG_TI_loop
    1421                      .dwattr $C$DW$135, DW_AT_name("F:\site\eZDSP\eZDSP_5535_Files\ccsws2\test\Debug\QPeek.asm:$C$L22:1:15
    1422                      .dwattr $C$DW$135, DW_AT_TI_begin_file("../FreeRTOS/Demo/Common/Minimal/QPeek.c")
    1423                      .dwattr $C$DW$135, DW_AT_TI_begin_line(0x156)
    1424                      .dwattr $C$DW$135, DW_AT_TI_end_line(0x1a7)
    1425              $C$DW$136       .dwtag  DW_TAG_TI_loop_range
    1426                      .dwattr $C$DW$136, DW_AT_low_pc($C$DW$L$_prvLowPriorityPeekTask$2$B)
    1427                      .dwattr $C$DW$136, DW_AT_high_pc($C$DW$L$_prvLowPriorityPeekTask$2$E)
    1428              $C$DW$137       .dwtag  DW_TAG_TI_loop_range
    1429                      .dwattr $C$DW$137, DW_AT_low_pc($C$DW$L$_prvLowPriorityPeekTask$3$B)
    1430                      .dwattr $C$DW$137, DW_AT_high_pc($C$DW$L$_prvLowPriorityPeekTask$3$E)
    1431              $C$DW$138       .dwtag  DW_TAG_TI_loop_range
    1432                      .dwattr $C$DW$138, DW_AT_low_pc($C$DW$L$_prvLowPriorityPeekTask$4$B)
    1433                      .dwattr $C$DW$138, DW_AT_high_pc($C$DW$L$_prvLowPriorityPeekTask$4$E)
    1434              $C$DW$139       .dwtag  DW_TAG_TI_loop_range
    1435                      .dwattr $C$DW$139, DW_AT_low_pc($C$DW$L$_prvLowPriorityPeekTask$5$B)
    1436                      .dwattr $C$DW$139, DW_AT_high_pc($C$DW$L$_prvLowPriorityPeekTask$5$E)
    1437              $C$DW$140       .dwtag  DW_TAG_TI_loop_range
    1438                      .dwattr $C$DW$140, DW_AT_low_pc($C$DW$L$_prvLowPriorityPeekTask$6$B)
    1439                      .dwattr $C$DW$140, DW_AT_high_pc($C$DW$L$_prvLowPriorityPeekTask$6$E)
TMS320C55x Assembler PC v4.4.1 Fri Sep 07 01:41:44 2018

Tools Copyright (c) 1996-2012 Texas Instruments Incorporated
QPeek.asm                                                            PAGE   32

    1440              $C$DW$141       .dwtag  DW_TAG_TI_loop_range
    1441                      .dwattr $C$DW$141, DW_AT_low_pc($C$DW$L$_prvLowPriorityPeekTask$7$B)
    1442                      .dwattr $C$DW$141, DW_AT_high_pc($C$DW$L$_prvLowPriorityPeekTask$7$E)
    1443              $C$DW$142       .dwtag  DW_TAG_TI_loop_range
    1444                      .dwattr $C$DW$142, DW_AT_low_pc($C$DW$L$_prvLowPriorityPeekTask$8$B)
    1445                      .dwattr $C$DW$142, DW_AT_high_pc($C$DW$L$_prvLowPriorityPeekTask$8$E)
    1446              $C$DW$143       .dwtag  DW_TAG_TI_loop_range
    1447                      .dwattr $C$DW$143, DW_AT_low_pc($C$DW$L$_prvLowPriorityPeekTask$9$B)
    1448                      .dwattr $C$DW$143, DW_AT_high_pc($C$DW$L$_prvLowPriorityPeekTask$9$E)
    1449              $C$DW$144       .dwtag  DW_TAG_TI_loop_range
    1450                      .dwattr $C$DW$144, DW_AT_low_pc($C$DW$L$_prvLowPriorityPeekTask$10$B)
    1451                      .dwattr $C$DW$144, DW_AT_high_pc($C$DW$L$_prvLowPriorityPeekTask$10$E)
    1452              $C$DW$145       .dwtag  DW_TAG_TI_loop_range
    1453                      .dwattr $C$DW$145, DW_AT_low_pc($C$DW$L$_prvLowPriorityPeekTask$11$B)
    1454                      .dwattr $C$DW$145, DW_AT_high_pc($C$DW$L$_prvLowPriorityPeekTask$11$E)
    1455              $C$DW$146       .dwtag  DW_TAG_TI_loop_range
    1456                      .dwattr $C$DW$146, DW_AT_low_pc($C$DW$L$_prvLowPriorityPeekTask$12$B)
    1457                      .dwattr $C$DW$146, DW_AT_high_pc($C$DW$L$_prvLowPriorityPeekTask$12$E)
    1458              $C$DW$147       .dwtag  DW_TAG_TI_loop_range
    1459                      .dwattr $C$DW$147, DW_AT_low_pc($C$DW$L$_prvLowPriorityPeekTask$13$B)
    1460                      .dwattr $C$DW$147, DW_AT_high_pc($C$DW$L$_prvLowPriorityPeekTask$13$E)
    1461              $C$DW$148       .dwtag  DW_TAG_TI_loop_range
    1462                      .dwattr $C$DW$148, DW_AT_low_pc($C$DW$L$_prvLowPriorityPeekTask$14$B)
    1463                      .dwattr $C$DW$148, DW_AT_high_pc($C$DW$L$_prvLowPriorityPeekTask$14$E)
    1464                      .dwendtag $C$DW$135
    1465              
    1466                      .dwattr $C$DW$117, DW_AT_TI_end_file("../FreeRTOS/Demo/Common/Minimal/QPeek.c")
    1467                      .dwattr $C$DW$117, DW_AT_TI_end_line(0x1a8)
    1468                      .dwattr $C$DW$117, DW_AT_TI_end_column(0x01)
    1469                      .dwendentry
    1470                      .dwendtag $C$DW$117
    1471              
    1472 00040f               .sect   ".text"
    1473                      .align 4
    1474                      .global _xAreQueuePeekTasksStillRunning
    1475              
    1476              $C$DW$149       .dwtag  DW_TAG_subprogram, DW_AT_name("xAreQueuePeekTasksStillRunning")
    1477                      .dwattr $C$DW$149, DW_AT_low_pc(_xAreQueuePeekTasksStillRunning)
    1478                      .dwattr $C$DW$149, DW_AT_high_pc(0x00)
    1479                      .dwattr $C$DW$149, DW_AT_TI_symbol_name("_xAreQueuePeekTasksStillRunning")
    1480                      .dwattr $C$DW$149, DW_AT_external
    1481                      .dwattr $C$DW$149, DW_AT_type(*$C$DW$T$10)
    1482                      .dwattr $C$DW$149, DW_AT_TI_begin_file("../FreeRTOS/Demo/Common/Minimal/QPeek.c")
    1483                      .dwattr $C$DW$149, DW_AT_TI_begin_line(0x1ac)
    1484                      .dwattr $C$DW$149, DW_AT_TI_begin_column(0x0f)
    1485                      .dwattr $C$DW$149, DW_AT_TI_max_frame_size(0x01)
    1486                      .dwpsn  file "../FreeRTOS/Demo/Common/Minimal/QPeek.c",line 429,column 1,is_stmt,address _xAreQueuePe
    1487              
    1488                      .dwfde $C$DW$CIE, _xAreQueuePeekTasksStillRunning
    1489              $C$DW$150       .dwtag  DW_TAG_variable, DW_AT_name("ulLastLoopCounter")
    1490                      .dwattr $C$DW$150, DW_AT_TI_symbol_name("_ulLastLoopCounter$1")
    1491                      .dwattr $C$DW$150, DW_AT_type(*$C$DW$T$13)
    1492                      .dwattr $C$DW$150, DW_AT_location[DW_OP_addr _ulLastLoopCounter$1]
    1493              ;*******************************************************************************
    1494              ;* FUNCTION NAME: xAreQueuePeekTasksStillRunning                               *
TMS320C55x Assembler PC v4.4.1 Fri Sep 07 01:41:44 2018

Tools Copyright (c) 1996-2012 Texas Instruments Incorporated
QPeek.asm                                                            PAGE   33

    1495              ;*                                                                             *
    1496              ;*   Function Uses Regs : AC0,AC0,AC1,AC1,T0,AR1,AR2,SP,TC1,M40,SATA,SATD,RDM, *
    1497              ;*                        FRCT,SMUL                                            *
    1498              ;*   Stack Frame        : Compact (No Frame Pointer, w/ debug)                 *
    1499              ;*   Total Frame Size   : 1 word                                               *
    1500              ;*                        (1 return address/alignment)                         *
    1501              ;*   Min System Stack   : 1 word                                               *
    1502              ;*******************************************************************************
    1503 000410       _xAreQueuePeekTasksStillRunning:
    1504                      .dwcfi  cfa_offset, 1
    1505                      .dwcfi  save_reg_to_mem, 91, -1
    1506                      .dwpsn  file "../FreeRTOS/Demo/Common/Minimal/QPeek.c",line 434,column 2,is_stmt
    1507 000410 ED31          MOV dbl(*(#_ulLoopCounter)), AC0 ; |434| 
         000412 0800 
         000414 0002-
    1508 000416 ED31          MOV dbl(*(#_ulLastLoopCounter$1)), AC1 ; |434| 
         000418 1800 
         00041a 000A-
    1509 00041c 121C          CMPU AC1 != AC0, TC1 ; |434| 
         00041e 04   
    1510 00041f 6364          BCC $C$L29,TC1 ; |434| 
    1511                                                      ; branchcc occurs ; |434| 
    1512                      .dwpsn  file "../FreeRTOS/Demo/Common/Minimal/QPeek.c",line 436,column 3,is_stmt
    1513 000421 E631          MOV #1, *(#_xErrorDetected) ; |436| 
         000423 0100 
         000425 0000-
    1514 000427       $C$L29:    
    1515                      .dwpsn  file "../FreeRTOS/Demo/Common/Minimal/QPeek.c",line 439,column 2,is_stmt
    1516 000427 ED31          MOV dbl(*(#_ulLoopCounter)), AC0 ; |439| 
         000429 0800 
         00042b 0002-
    1517 00042d EB31          MOV AC0, dbl(*(#_ulLastLoopCounter$1)) ; |439| 
         00042f 0800 
         000431 000A-
    1518                      .dwpsn  file "../FreeRTOS/Demo/Common/Minimal/QPeek.c",line 444,column 2,is_stmt
    1519              
    1520 000433 3C04          MOV #0, T0
    1521 000435 3D09  ||      MOV #0, AR1
    1522              
    1523 000437 AA31          MOV *(#_xErrorDetected), AR2 ; |444| 
         000439 0000 
         00043b 00-  
    1524 00043c 610A          BCC $C$L30,AR2 == #0 ; |444| 
    1525                                                      ; branchcc occurs ; |444| 
    1526 00043e 3C19          MOV #1, AR1
    1527 000440       $C$L30:    
    1528 000440 6119          BCC $C$L31,AR1 != #0 ; |444| 
    1529                                                      ; branchcc occurs ; |444| 
    1530 000442 3C14          MOV #1, T0
    1531 000444       $C$L31:    
    1532                      .dwpsn  file "../FreeRTOS/Demo/Common/Minimal/QPeek.c",line 445,column 1,is_stmt
    1533              $C$DW$151       .dwtag  DW_TAG_TI_branch
    1534                      .dwattr $C$DW$151, DW_AT_low_pc(0x00)
    1535                      .dwattr $C$DW$151, DW_AT_TI_return
    1536 000444 4804          RET
TMS320C55x Assembler PC v4.4.1 Fri Sep 07 01:41:44 2018

Tools Copyright (c) 1996-2012 Texas Instruments Incorporated
QPeek.asm                                                            PAGE   34

    1537                                                      ; return occurs
    1538                      .dwattr $C$DW$149, DW_AT_TI_end_file("../FreeRTOS/Demo/Common/Minimal/QPeek.c")
    1539                      .dwattr $C$DW$149, DW_AT_TI_end_line(0x1bd)
    1540                      .dwattr $C$DW$149, DW_AT_TI_end_column(0x01)
    1541                      .dwendentry
    1542                      .dwendtag $C$DW$149
    1543              
    1544              ;*******************************************************************************
    1545              ;* FAR STRINGS                                                                 *
    1546              ;*******************************************************************************
    1547 000000               .sect   ".const:.string"
    1548                      .align  2
    1549 000000 0050  $C$FSL1:        .string "PeekL",0
         000001 0065 
         000002 0065 
         000003 006B 
         000004 004C 
         000005 0000 
    1550                      .align  2
    1551 000006 0050  $C$FSL2:        .string "PeekM",0
         000007 0065 
         000008 0065 
         000009 006B 
         00000a 004D 
         00000b 0000 
    1552                      .align  2
    1553 00000c 0050  $C$FSL3:        .string "PeekH1",0
         00000d 0065 
         00000e 0065 
         00000f 006B 
         000010 0048 
         000011 0031 
         000012 0000 
    1554                      .align  2
    1555 000014 0050  $C$FSL4:        .string "PeekH2",0
         000015 0065 
         000016 0065 
         000017 006B 
         000018 0048 
         000019 0032 
         00001a 0000 
    1556              ;******************************************************************************
    1557              ;* UNDEFINED EXTERNAL REFERENCES                                              *
    1558              ;******************************************************************************
    1559                      .global _vTaskDelay
    1560                      .global _vTaskSuspend
    1561                      .global _vTaskResume
    1562                      .global _xTaskGenericCreate
    1563                      .global _xQueueCreate
    1564                      .global _xQueueGenericSend
    1565                      .global _xQueueGenericReceive
    1566                      .global _uxQueueMessagesWaiting
    1567              
    1568              ;*******************************************************************************
    1569              ;* TYPE INFORMATION                                                            *
TMS320C55x Assembler PC v4.4.1 Fri Sep 07 01:41:44 2018

Tools Copyright (c) 1996-2012 Texas Instruments Incorporated
QPeek.asm                                                            PAGE   35

    1570              ;*******************************************************************************
    1571              $C$DW$T$3       .dwtag  DW_TAG_pointer_type
    1572                      .dwattr $C$DW$T$3, DW_AT_address_class(0x17)
    1573              $C$DW$152       .dwtag  DW_TAG_TI_far_type
    1574                      .dwattr $C$DW$152, DW_AT_type(*$C$DW$T$3)
    1575              $C$DW$T$20      .dwtag  DW_TAG_const_type
    1576                      .dwattr $C$DW$T$20, DW_AT_type(*$C$DW$152)
    1577              $C$DW$T$21      .dwtag  DW_TAG_typedef, DW_AT_name("xQueueHandle")
    1578                      .dwattr $C$DW$T$21, DW_AT_type(*$C$DW$T$3)
    1579                      .dwattr $C$DW$T$21, DW_AT_language(DW_LANG_C)
    1580              $C$DW$153       .dwtag  DW_TAG_TI_far_type
    1581                      .dwattr $C$DW$153, DW_AT_type(*$C$DW$T$21)
    1582              $C$DW$T$24      .dwtag  DW_TAG_const_type
    1583                      .dwattr $C$DW$T$24, DW_AT_type(*$C$DW$153)
    1584              $C$DW$T$25      .dwtag  DW_TAG_typedef, DW_AT_name("xTaskHandle")
    1585                      .dwattr $C$DW$T$25, DW_AT_type(*$C$DW$T$3)
    1586                      .dwattr $C$DW$T$25, DW_AT_language(DW_LANG_C)
    1587              $C$DW$T$26      .dwtag  DW_TAG_pointer_type
    1588                      .dwattr $C$DW$T$26, DW_AT_type(*$C$DW$T$25)
    1589                      .dwattr $C$DW$T$26, DW_AT_address_class(0x17)
    1590              
    1591              $C$DW$T$32      .dwtag  DW_TAG_subroutine_type
    1592                      .dwattr $C$DW$T$32, DW_AT_language(DW_LANG_C)
    1593              $C$DW$154       .dwtag  DW_TAG_formal_parameter
    1594                      .dwattr $C$DW$154, DW_AT_type(*$C$DW$T$3)
    1595                      .dwendtag $C$DW$T$32
    1596              
    1597              $C$DW$T$33      .dwtag  DW_TAG_pointer_type
    1598                      .dwattr $C$DW$T$33, DW_AT_type(*$C$DW$T$32)
    1599                      .dwattr $C$DW$T$33, DW_AT_address_class(0x20)
    1600              $C$DW$T$34      .dwtag  DW_TAG_typedef, DW_AT_name("pdTASK_CODE")
    1601                      .dwattr $C$DW$T$34, DW_AT_type(*$C$DW$T$33)
    1602                      .dwattr $C$DW$T$34, DW_AT_language(DW_LANG_C)
    1603              $C$DW$155       .dwtag  DW_TAG_TI_far_type
    1604              $C$DW$T$35      .dwtag  DW_TAG_const_type
    1605                      .dwattr $C$DW$T$35, DW_AT_type(*$C$DW$155)
    1606              $C$DW$T$36      .dwtag  DW_TAG_pointer_type
    1607                      .dwattr $C$DW$T$36, DW_AT_type(*$C$DW$T$35)
    1608                      .dwattr $C$DW$T$36, DW_AT_address_class(0x17)
    1609              $C$DW$156       .dwtag  DW_TAG_TI_far_type
    1610                      .dwattr $C$DW$156, DW_AT_type(*$C$DW$T$36)
    1611              $C$DW$T$37      .dwtag  DW_TAG_const_type
    1612                      .dwattr $C$DW$T$37, DW_AT_type(*$C$DW$156)
    1613              $C$DW$T$4       .dwtag  DW_TAG_base_type
    1614                      .dwattr $C$DW$T$4, DW_AT_encoding(DW_ATE_boolean)
    1615                      .dwattr $C$DW$T$4, DW_AT_name("bool")
    1616                      .dwattr $C$DW$T$4, DW_AT_byte_size(0x01)
    1617              $C$DW$T$5       .dwtag  DW_TAG_base_type
    1618                      .dwattr $C$DW$T$5, DW_AT_encoding(DW_ATE_signed_char)
    1619                      .dwattr $C$DW$T$5, DW_AT_name("signed char")
    1620                      .dwattr $C$DW$T$5, DW_AT_byte_size(0x01)
    1621              $C$DW$157       .dwtag  DW_TAG_TI_far_type
    1622                      .dwattr $C$DW$157, DW_AT_type(*$C$DW$T$5)
    1623              $C$DW$T$39      .dwtag  DW_TAG_const_type
    1624                      .dwattr $C$DW$T$39, DW_AT_type(*$C$DW$157)
TMS320C55x Assembler PC v4.4.1 Fri Sep 07 01:41:44 2018

Tools Copyright (c) 1996-2012 Texas Instruments Incorporated
QPeek.asm                                                            PAGE   36

    1625              $C$DW$T$40      .dwtag  DW_TAG_pointer_type
    1626                      .dwattr $C$DW$T$40, DW_AT_type(*$C$DW$T$39)
    1627                      .dwattr $C$DW$T$40, DW_AT_address_class(0x17)
    1628              $C$DW$158       .dwtag  DW_TAG_TI_far_type
    1629                      .dwattr $C$DW$158, DW_AT_type(*$C$DW$T$40)
    1630              $C$DW$T$41      .dwtag  DW_TAG_const_type
    1631                      .dwattr $C$DW$T$41, DW_AT_type(*$C$DW$158)
    1632              $C$DW$T$6       .dwtag  DW_TAG_base_type
    1633                      .dwattr $C$DW$T$6, DW_AT_encoding(DW_ATE_unsigned_char)
    1634                      .dwattr $C$DW$T$6, DW_AT_name("unsigned char")
    1635                      .dwattr $C$DW$T$6, DW_AT_byte_size(0x01)
    1636              $C$DW$T$7       .dwtag  DW_TAG_base_type
    1637                      .dwattr $C$DW$T$7, DW_AT_encoding(DW_ATE_signed_char)
    1638                      .dwattr $C$DW$T$7, DW_AT_name("wchar_t")
    1639                      .dwattr $C$DW$T$7, DW_AT_byte_size(0x01)
    1640              $C$DW$T$8       .dwtag  DW_TAG_base_type
    1641                      .dwattr $C$DW$T$8, DW_AT_encoding(DW_ATE_signed)
    1642                      .dwattr $C$DW$T$8, DW_AT_name("short")
    1643                      .dwattr $C$DW$T$8, DW_AT_byte_size(0x01)
    1644              $C$DW$T$9       .dwtag  DW_TAG_base_type
    1645                      .dwattr $C$DW$T$9, DW_AT_encoding(DW_ATE_unsigned)
    1646                      .dwattr $C$DW$T$9, DW_AT_name("unsigned short")
    1647                      .dwattr $C$DW$T$9, DW_AT_byte_size(0x01)
    1648              $C$DW$T$10      .dwtag  DW_TAG_base_type
    1649                      .dwattr $C$DW$T$10, DW_AT_encoding(DW_ATE_signed)
    1650                      .dwattr $C$DW$T$10, DW_AT_name("int")
    1651                      .dwattr $C$DW$T$10, DW_AT_byte_size(0x01)
    1652              $C$DW$159       .dwtag  DW_TAG_TI_far_type
    1653                      .dwattr $C$DW$159, DW_AT_type(*$C$DW$T$10)
    1654              $C$DW$T$55      .dwtag  DW_TAG_volatile_type
    1655                      .dwattr $C$DW$T$55, DW_AT_type(*$C$DW$159)
    1656              $C$DW$T$11      .dwtag  DW_TAG_base_type
    1657                      .dwattr $C$DW$T$11, DW_AT_encoding(DW_ATE_unsigned)
    1658                      .dwattr $C$DW$T$11, DW_AT_name("unsigned int")
    1659                      .dwattr $C$DW$T$11, DW_AT_byte_size(0x01)
    1660              $C$DW$T$43      .dwtag  DW_TAG_pointer_type
    1661                      .dwattr $C$DW$T$43, DW_AT_type(*$C$DW$T$11)
    1662                      .dwattr $C$DW$T$43, DW_AT_address_class(0x17)
    1663              $C$DW$T$27      .dwtag  DW_TAG_typedef, DW_AT_name("portTickType")
    1664                      .dwattr $C$DW$T$27, DW_AT_type(*$C$DW$T$11)
    1665                      .dwattr $C$DW$T$27, DW_AT_language(DW_LANG_C)
    1666              $C$DW$T$12      .dwtag  DW_TAG_base_type
    1667                      .dwattr $C$DW$T$12, DW_AT_encoding(DW_ATE_signed)
    1668                      .dwattr $C$DW$T$12, DW_AT_name("long")
    1669                      .dwattr $C$DW$T$12, DW_AT_byte_size(0x02)
    1670              $C$DW$T$13      .dwtag  DW_TAG_base_type
    1671                      .dwattr $C$DW$T$13, DW_AT_encoding(DW_ATE_unsigned)
    1672                      .dwattr $C$DW$T$13, DW_AT_name("unsigned long")
    1673                      .dwattr $C$DW$T$13, DW_AT_byte_size(0x02)
    1674              $C$DW$160       .dwtag  DW_TAG_TI_far_type
    1675                      .dwattr $C$DW$160, DW_AT_type(*$C$DW$T$13)
    1676              $C$DW$T$58      .dwtag  DW_TAG_volatile_type
    1677                      .dwattr $C$DW$T$58, DW_AT_type(*$C$DW$160)
    1678              $C$DW$T$14      .dwtag  DW_TAG_base_type
    1679                      .dwattr $C$DW$T$14, DW_AT_encoding(DW_ATE_signed)
TMS320C55x Assembler PC v4.4.1 Fri Sep 07 01:41:44 2018

Tools Copyright (c) 1996-2012 Texas Instruments Incorporated
QPeek.asm                                                            PAGE   37

    1680                      .dwattr $C$DW$T$14, DW_AT_name("long long")
    1681                      .dwattr $C$DW$T$14, DW_AT_byte_size(0x04)
    1682                      .dwattr $C$DW$T$14, DW_AT_bit_size(0x28)
    1683                      .dwattr $C$DW$T$14, DW_AT_bit_offset(0x18)
    1684              $C$DW$T$15      .dwtag  DW_TAG_base_type
    1685                      .dwattr $C$DW$T$15, DW_AT_encoding(DW_ATE_unsigned)
    1686                      .dwattr $C$DW$T$15, DW_AT_name("unsigned long long")
    1687                      .dwattr $C$DW$T$15, DW_AT_byte_size(0x04)
    1688                      .dwattr $C$DW$T$15, DW_AT_bit_size(0x28)
    1689                      .dwattr $C$DW$T$15, DW_AT_bit_offset(0x18)
    1690              $C$DW$T$16      .dwtag  DW_TAG_base_type
    1691                      .dwattr $C$DW$T$16, DW_AT_encoding(DW_ATE_float)
    1692                      .dwattr $C$DW$T$16, DW_AT_name("float")
    1693                      .dwattr $C$DW$T$16, DW_AT_byte_size(0x02)
    1694              $C$DW$T$17      .dwtag  DW_TAG_base_type
    1695                      .dwattr $C$DW$T$17, DW_AT_encoding(DW_ATE_float)
    1696                      .dwattr $C$DW$T$17, DW_AT_name("double")
    1697                      .dwattr $C$DW$T$17, DW_AT_byte_size(0x02)
    1698              $C$DW$T$18      .dwtag  DW_TAG_base_type
    1699                      .dwattr $C$DW$T$18, DW_AT_encoding(DW_ATE_float)
    1700                      .dwattr $C$DW$T$18, DW_AT_name("long double")
    1701                      .dwattr $C$DW$T$18, DW_AT_byte_size(0x02)
    1702              $C$DW$T$60      .dwtag  DW_TAG_base_type
    1703                      .dwattr $C$DW$T$60, DW_AT_encoding(DW_ATE_signed_char)
    1704                      .dwattr $C$DW$T$60, DW_AT_name("signed char")
    1705                      .dwattr $C$DW$T$60, DW_AT_byte_size(0x01)
    1706              
    1707              $C$DW$T$19      .dwtag  DW_TAG_structure_type
    1708                      .dwattr $C$DW$T$19, DW_AT_name("xMEMORY_REGION")
    1709                      .dwattr $C$DW$T$19, DW_AT_byte_size(0x06)
    1710              $C$DW$161       .dwtag  DW_TAG_member
    1711                      .dwattr $C$DW$161, DW_AT_type(*$C$DW$T$3)
    1712                      .dwattr $C$DW$161, DW_AT_name("pvBaseAddress")
    1713                      .dwattr $C$DW$161, DW_AT_TI_symbol_name("_pvBaseAddress")
    1714                      .dwattr $C$DW$161, DW_AT_data_member_location[DW_OP_plus_uconst 0x0]
    1715                      .dwattr $C$DW$161, DW_AT_accessibility(DW_ACCESS_public)
    1716              $C$DW$162       .dwtag  DW_TAG_member
    1717                      .dwattr $C$DW$162, DW_AT_type(*$C$DW$T$13)
    1718                      .dwattr $C$DW$162, DW_AT_name("ulLengthInBytes")
    1719                      .dwattr $C$DW$162, DW_AT_TI_symbol_name("_ulLengthInBytes")
    1720                      .dwattr $C$DW$162, DW_AT_data_member_location[DW_OP_plus_uconst 0x2]
    1721                      .dwattr $C$DW$162, DW_AT_accessibility(DW_ACCESS_public)
    1722              $C$DW$163       .dwtag  DW_TAG_member
    1723                      .dwattr $C$DW$163, DW_AT_type(*$C$DW$T$13)
    1724                      .dwattr $C$DW$163, DW_AT_name("ulParameters")
    1725                      .dwattr $C$DW$163, DW_AT_TI_symbol_name("_ulParameters")
    1726                      .dwattr $C$DW$163, DW_AT_data_member_location[DW_OP_plus_uconst 0x4]
    1727                      .dwattr $C$DW$163, DW_AT_accessibility(DW_ACCESS_public)
    1728                      .dwendtag $C$DW$T$19
    1729              
    1730              $C$DW$T$44      .dwtag  DW_TAG_typedef, DW_AT_name("xMemoryRegion")
    1731                      .dwattr $C$DW$T$44, DW_AT_type(*$C$DW$T$19)
    1732                      .dwattr $C$DW$T$44, DW_AT_language(DW_LANG_C)
    1733              $C$DW$164       .dwtag  DW_TAG_TI_far_type
    1734                      .dwattr $C$DW$164, DW_AT_type(*$C$DW$T$44)
TMS320C55x Assembler PC v4.4.1 Fri Sep 07 01:41:44 2018

Tools Copyright (c) 1996-2012 Texas Instruments Incorporated
QPeek.asm                                                            PAGE   38

    1735              $C$DW$T$45      .dwtag  DW_TAG_const_type
    1736                      .dwattr $C$DW$T$45, DW_AT_type(*$C$DW$164)
    1737              $C$DW$T$46      .dwtag  DW_TAG_pointer_type
    1738                      .dwattr $C$DW$T$46, DW_AT_type(*$C$DW$T$45)
    1739                      .dwattr $C$DW$T$46, DW_AT_address_class(0x17)
    1740              $C$DW$165       .dwtag  DW_TAG_TI_far_type
    1741                      .dwattr $C$DW$165, DW_AT_type(*$C$DW$T$46)
    1742              $C$DW$T$47      .dwtag  DW_TAG_const_type
    1743                      .dwattr $C$DW$T$47, DW_AT_type(*$C$DW$165)
    1744                      .dwattr $C$DW$CU, DW_AT_language(DW_LANG_C)
    1745              
    1746              ;***************************************************************
    1747              ;* DWARF CIE ENTRIES                                           *
    1748              ;***************************************************************
    1749              
    1750              $C$DW$CIE       .dwcie 91
    1751                      .dwcfi  cfa_register, 36
    1752                      .dwcfi  cfa_offset, 0
    1753                      .dwcfi  undefined, 0
    1754                      .dwcfi  undefined, 1
    1755                      .dwcfi  undefined, 2
    1756                      .dwcfi  undefined, 3
    1757                      .dwcfi  undefined, 4
    1758                      .dwcfi  undefined, 5
    1759                      .dwcfi  undefined, 6
    1760                      .dwcfi  undefined, 7
    1761                      .dwcfi  undefined, 8
    1762                      .dwcfi  undefined, 9
    1763                      .dwcfi  undefined, 10
    1764                      .dwcfi  undefined, 11
    1765                      .dwcfi  undefined, 12
    1766                      .dwcfi  undefined, 13
    1767                      .dwcfi  same_value, 14
    1768                      .dwcfi  same_value, 15
    1769                      .dwcfi  undefined, 16
    1770                      .dwcfi  undefined, 17
    1771                      .dwcfi  undefined, 18
    1772                      .dwcfi  undefined, 19
    1773                      .dwcfi  undefined, 20
    1774                      .dwcfi  undefined, 21
    1775                      .dwcfi  undefined, 22
    1776                      .dwcfi  undefined, 23
    1777                      .dwcfi  undefined, 24
    1778                      .dwcfi  undefined, 25
    1779                      .dwcfi  same_value, 26
    1780                      .dwcfi  same_value, 27
    1781                      .dwcfi  same_value, 28
    1782                      .dwcfi  same_value, 29
    1783                      .dwcfi  same_value, 30
    1784                      .dwcfi  same_value, 31
    1785                      .dwcfi  undefined, 32
    1786                      .dwcfi  undefined, 33
    1787                      .dwcfi  undefined, 34
    1788                      .dwcfi  undefined, 35
    1789                      .dwcfi  undefined, 36
TMS320C55x Assembler PC v4.4.1 Fri Sep 07 01:41:44 2018

Tools Copyright (c) 1996-2012 Texas Instruments Incorporated
QPeek.asm                                                            PAGE   39

    1790                      .dwcfi  undefined, 37
    1791                      .dwcfi  undefined, 38
    1792                      .dwcfi  undefined, 39
    1793                      .dwcfi  undefined, 40
    1794                      .dwcfi  undefined, 41
    1795                      .dwcfi  undefined, 42
    1796                      .dwcfi  undefined, 43
    1797                      .dwcfi  undefined, 44
    1798                      .dwcfi  undefined, 45
    1799                      .dwcfi  undefined, 46
    1800                      .dwcfi  undefined, 47
    1801                      .dwcfi  undefined, 48
    1802                      .dwcfi  undefined, 49
    1803                      .dwcfi  undefined, 50
    1804                      .dwcfi  undefined, 51
    1805                      .dwcfi  undefined, 52
    1806                      .dwcfi  undefined, 53
    1807                      .dwcfi  undefined, 54
    1808                      .dwcfi  undefined, 55
    1809                      .dwcfi  undefined, 56
    1810                      .dwcfi  undefined, 57
    1811                      .dwcfi  undefined, 58
    1812                      .dwcfi  undefined, 59
    1813                      .dwcfi  undefined, 60
    1814                      .dwcfi  undefined, 61
    1815                      .dwcfi  undefined, 62
    1816                      .dwcfi  undefined, 63
    1817                      .dwcfi  undefined, 64
    1818                      .dwcfi  undefined, 65
    1819                      .dwcfi  undefined, 66
    1820                      .dwcfi  undefined, 67
    1821                      .dwcfi  undefined, 68
    1822                      .dwcfi  undefined, 69
    1823                      .dwcfi  undefined, 70
    1824                      .dwcfi  undefined, 71
    1825                      .dwcfi  undefined, 72
    1826                      .dwcfi  undefined, 73
    1827                      .dwcfi  undefined, 74
    1828                      .dwcfi  undefined, 75
    1829                      .dwcfi  undefined, 76
    1830                      .dwcfi  undefined, 77
    1831                      .dwcfi  undefined, 78
    1832                      .dwcfi  undefined, 79
    1833                      .dwcfi  undefined, 80
    1834                      .dwcfi  undefined, 81
    1835                      .dwcfi  undefined, 82
    1836                      .dwcfi  undefined, 83
    1837                      .dwcfi  undefined, 84
    1838                      .dwcfi  undefined, 85
    1839                      .dwcfi  undefined, 86
    1840                      .dwcfi  undefined, 87
    1841                      .dwcfi  undefined, 88
    1842                      .dwcfi  undefined, 89
    1843                      .dwcfi  undefined, 90
    1844                      .dwcfi  undefined, 91
TMS320C55x Assembler PC v4.4.1 Fri Sep 07 01:41:44 2018

Tools Copyright (c) 1996-2012 Texas Instruments Incorporated
QPeek.asm                                                            PAGE   40

    1845                      .dwendentry
    1846              
    1847              ;***************************************************************
    1848              ;* DWARF REGISTER MAP                                          *
    1849              ;***************************************************************
    1850              
    1851              $C$DW$166       .dwtag  DW_TAG_TI_assign_register, DW_AT_name("AC0")
    1852                      .dwattr $C$DW$166, DW_AT_location[DW_OP_reg0]
    1853              $C$DW$167       .dwtag  DW_TAG_TI_assign_register, DW_AT_name("AC0")
    1854                      .dwattr $C$DW$167, DW_AT_location[DW_OP_reg1]
    1855              $C$DW$168       .dwtag  DW_TAG_TI_assign_register, DW_AT_name("AC0_G")
    1856                      .dwattr $C$DW$168, DW_AT_location[DW_OP_reg2]
    1857              $C$DW$169       .dwtag  DW_TAG_TI_assign_register, DW_AT_name("AC1")
    1858                      .dwattr $C$DW$169, DW_AT_location[DW_OP_reg3]
    1859              $C$DW$170       .dwtag  DW_TAG_TI_assign_register, DW_AT_name("AC1")
    1860                      .dwattr $C$DW$170, DW_AT_location[DW_OP_reg4]
    1861              $C$DW$171       .dwtag  DW_TAG_TI_assign_register, DW_AT_name("AC1_G")
    1862                      .dwattr $C$DW$171, DW_AT_location[DW_OP_reg5]
    1863              $C$DW$172       .dwtag  DW_TAG_TI_assign_register, DW_AT_name("AC2")
    1864                      .dwattr $C$DW$172, DW_AT_location[DW_OP_reg6]
    1865              $C$DW$173       .dwtag  DW_TAG_TI_assign_register, DW_AT_name("AC2")
    1866                      .dwattr $C$DW$173, DW_AT_location[DW_OP_reg7]
    1867              $C$DW$174       .dwtag  DW_TAG_TI_assign_register, DW_AT_name("AC2_G")
    1868                      .dwattr $C$DW$174, DW_AT_location[DW_OP_reg8]
    1869              $C$DW$175       .dwtag  DW_TAG_TI_assign_register, DW_AT_name("AC3")
    1870                      .dwattr $C$DW$175, DW_AT_location[DW_OP_reg9]
    1871              $C$DW$176       .dwtag  DW_TAG_TI_assign_register, DW_AT_name("AC3")
    1872                      .dwattr $C$DW$176, DW_AT_location[DW_OP_reg10]
    1873              $C$DW$177       .dwtag  DW_TAG_TI_assign_register, DW_AT_name("AC3_G")
    1874                      .dwattr $C$DW$177, DW_AT_location[DW_OP_reg11]
    1875              $C$DW$178       .dwtag  DW_TAG_TI_assign_register, DW_AT_name("T0")
    1876                      .dwattr $C$DW$178, DW_AT_location[DW_OP_reg12]
    1877              $C$DW$179       .dwtag  DW_TAG_TI_assign_register, DW_AT_name("T1")
    1878                      .dwattr $C$DW$179, DW_AT_location[DW_OP_reg13]
    1879              $C$DW$180       .dwtag  DW_TAG_TI_assign_register, DW_AT_name("T2")
    1880                      .dwattr $C$DW$180, DW_AT_location[DW_OP_reg14]
    1881              $C$DW$181       .dwtag  DW_TAG_TI_assign_register, DW_AT_name("T3")
    1882                      .dwattr $C$DW$181, DW_AT_location[DW_OP_reg15]
    1883              $C$DW$182       .dwtag  DW_TAG_TI_assign_register, DW_AT_name("AR0")
    1884                      .dwattr $C$DW$182, DW_AT_location[DW_OP_reg16]
    1885              $C$DW$183       .dwtag  DW_TAG_TI_assign_register, DW_AT_name("XAR0")
    1886                      .dwattr $C$DW$183, DW_AT_location[DW_OP_reg17]
    1887              $C$DW$184       .dwtag  DW_TAG_TI_assign_register, DW_AT_name("AR1")
    1888                      .dwattr $C$DW$184, DW_AT_location[DW_OP_reg18]
    1889              $C$DW$185       .dwtag  DW_TAG_TI_assign_register, DW_AT_name("XAR1")
    1890                      .dwattr $C$DW$185, DW_AT_location[DW_OP_reg19]
    1891              $C$DW$186       .dwtag  DW_TAG_TI_assign_register, DW_AT_name("AR2")
    1892                      .dwattr $C$DW$186, DW_AT_location[DW_OP_reg20]
    1893              $C$DW$187       .dwtag  DW_TAG_TI_assign_register, DW_AT_name("XAR2")
    1894                      .dwattr $C$DW$187, DW_AT_location[DW_OP_reg21]
    1895              $C$DW$188       .dwtag  DW_TAG_TI_assign_register, DW_AT_name("AR3")
    1896                      .dwattr $C$DW$188, DW_AT_location[DW_OP_reg22]
    1897              $C$DW$189       .dwtag  DW_TAG_TI_assign_register, DW_AT_name("XAR3")
    1898                      .dwattr $C$DW$189, DW_AT_location[DW_OP_reg23]
    1899              $C$DW$190       .dwtag  DW_TAG_TI_assign_register, DW_AT_name("AR4")
TMS320C55x Assembler PC v4.4.1 Fri Sep 07 01:41:44 2018

Tools Copyright (c) 1996-2012 Texas Instruments Incorporated
QPeek.asm                                                            PAGE   41

    1900                      .dwattr $C$DW$190, DW_AT_location[DW_OP_reg24]
    1901              $C$DW$191       .dwtag  DW_TAG_TI_assign_register, DW_AT_name("XAR4")
    1902                      .dwattr $C$DW$191, DW_AT_location[DW_OP_reg25]
    1903              $C$DW$192       .dwtag  DW_TAG_TI_assign_register, DW_AT_name("AR5")
    1904                      .dwattr $C$DW$192, DW_AT_location[DW_OP_reg26]
    1905              $C$DW$193       .dwtag  DW_TAG_TI_assign_register, DW_AT_name("XAR5")
    1906                      .dwattr $C$DW$193, DW_AT_location[DW_OP_reg27]
    1907              $C$DW$194       .dwtag  DW_TAG_TI_assign_register, DW_AT_name("AR6")
    1908                      .dwattr $C$DW$194, DW_AT_location[DW_OP_reg28]
    1909              $C$DW$195       .dwtag  DW_TAG_TI_assign_register, DW_AT_name("XAR6")
    1910                      .dwattr $C$DW$195, DW_AT_location[DW_OP_reg29]
    1911              $C$DW$196       .dwtag  DW_TAG_TI_assign_register, DW_AT_name("AR7")
    1912                      .dwattr $C$DW$196, DW_AT_location[DW_OP_reg30]
    1913              $C$DW$197       .dwtag  DW_TAG_TI_assign_register, DW_AT_name("XAR7")
    1914                      .dwattr $C$DW$197, DW_AT_location[DW_OP_reg31]
    1915              $C$DW$198       .dwtag  DW_TAG_TI_assign_register, DW_AT_name("FP")
    1916                      .dwattr $C$DW$198, DW_AT_location[DW_OP_regx 0x20]
    1917              $C$DW$199       .dwtag  DW_TAG_TI_assign_register, DW_AT_name("XFP")
    1918                      .dwattr $C$DW$199, DW_AT_location[DW_OP_regx 0x21]
    1919              $C$DW$200       .dwtag  DW_TAG_TI_assign_register, DW_AT_name("PC")
    1920                      .dwattr $C$DW$200, DW_AT_location[DW_OP_regx 0x22]
    1921              $C$DW$201       .dwtag  DW_TAG_TI_assign_register, DW_AT_name("SP")
    1922                      .dwattr $C$DW$201, DW_AT_location[DW_OP_regx 0x23]
    1923              $C$DW$202       .dwtag  DW_TAG_TI_assign_register, DW_AT_name("XSP")
    1924                      .dwattr $C$DW$202, DW_AT_location[DW_OP_regx 0x24]
    1925              $C$DW$203       .dwtag  DW_TAG_TI_assign_register, DW_AT_name("BKC")
    1926                      .dwattr $C$DW$203, DW_AT_location[DW_OP_regx 0x25]
    1927              $C$DW$204       .dwtag  DW_TAG_TI_assign_register, DW_AT_name("BK03")
    1928                      .dwattr $C$DW$204, DW_AT_location[DW_OP_regx 0x26]
    1929              $C$DW$205       .dwtag  DW_TAG_TI_assign_register, DW_AT_name("BK47")
    1930                      .dwattr $C$DW$205, DW_AT_location[DW_OP_regx 0x27]
    1931              $C$DW$206       .dwtag  DW_TAG_TI_assign_register, DW_AT_name("ST0")
    1932                      .dwattr $C$DW$206, DW_AT_location[DW_OP_regx 0x28]
    1933              $C$DW$207       .dwtag  DW_TAG_TI_assign_register, DW_AT_name("ST1")
    1934                      .dwattr $C$DW$207, DW_AT_location[DW_OP_regx 0x29]
    1935              $C$DW$208       .dwtag  DW_TAG_TI_assign_register, DW_AT_name("ST2")
    1936                      .dwattr $C$DW$208, DW_AT_location[DW_OP_regx 0x2a]
    1937              $C$DW$209       .dwtag  DW_TAG_TI_assign_register, DW_AT_name("ST3")
    1938                      .dwattr $C$DW$209, DW_AT_location[DW_OP_regx 0x2b]
    1939              $C$DW$210       .dwtag  DW_TAG_TI_assign_register, DW_AT_name("MDP")
    1940                      .dwattr $C$DW$210, DW_AT_location[DW_OP_regx 0x2c]
    1941              $C$DW$211       .dwtag  DW_TAG_TI_assign_register, DW_AT_name("MDP05")
    1942                      .dwattr $C$DW$211, DW_AT_location[DW_OP_regx 0x2d]
    1943              $C$DW$212       .dwtag  DW_TAG_TI_assign_register, DW_AT_name("MDP67")
    1944                      .dwattr $C$DW$212, DW_AT_location[DW_OP_regx 0x2e]
    1945              $C$DW$213       .dwtag  DW_TAG_TI_assign_register, DW_AT_name("BRC0")
    1946                      .dwattr $C$DW$213, DW_AT_location[DW_OP_regx 0x2f]
    1947              $C$DW$214       .dwtag  DW_TAG_TI_assign_register, DW_AT_name("RSA0")
    1948                      .dwattr $C$DW$214, DW_AT_location[DW_OP_regx 0x30]
    1949              $C$DW$215       .dwtag  DW_TAG_TI_assign_register, DW_AT_name("RSA0_H")
    1950                      .dwattr $C$DW$215, DW_AT_location[DW_OP_regx 0x31]
    1951              $C$DW$216       .dwtag  DW_TAG_TI_assign_register, DW_AT_name("REA0")
    1952                      .dwattr $C$DW$216, DW_AT_location[DW_OP_regx 0x32]
    1953              $C$DW$217       .dwtag  DW_TAG_TI_assign_register, DW_AT_name("REA0_H")
    1954                      .dwattr $C$DW$217, DW_AT_location[DW_OP_regx 0x33]
TMS320C55x Assembler PC v4.4.1 Fri Sep 07 01:41:44 2018

Tools Copyright (c) 1996-2012 Texas Instruments Incorporated
QPeek.asm                                                            PAGE   42

    1955              $C$DW$218       .dwtag  DW_TAG_TI_assign_register, DW_AT_name("BRS1")
    1956                      .dwattr $C$DW$218, DW_AT_location[DW_OP_regx 0x34]
    1957              $C$DW$219       .dwtag  DW_TAG_TI_assign_register, DW_AT_name("BRC1")
    1958                      .dwattr $C$DW$219, DW_AT_location[DW_OP_regx 0x35]
    1959              $C$DW$220       .dwtag  DW_TAG_TI_assign_register, DW_AT_name("RSA1")
    1960                      .dwattr $C$DW$220, DW_AT_location[DW_OP_regx 0x36]
    1961              $C$DW$221       .dwtag  DW_TAG_TI_assign_register, DW_AT_name("RSA1_H")
    1962                      .dwattr $C$DW$221, DW_AT_location[DW_OP_regx 0x37]
    1963              $C$DW$222       .dwtag  DW_TAG_TI_assign_register, DW_AT_name("REA1")
    1964                      .dwattr $C$DW$222, DW_AT_location[DW_OP_regx 0x38]
    1965              $C$DW$223       .dwtag  DW_TAG_TI_assign_register, DW_AT_name("REA1_H")
    1966                      .dwattr $C$DW$223, DW_AT_location[DW_OP_regx 0x39]
    1967              $C$DW$224       .dwtag  DW_TAG_TI_assign_register, DW_AT_name("CSR")
    1968                      .dwattr $C$DW$224, DW_AT_location[DW_OP_regx 0x3a]
    1969              $C$DW$225       .dwtag  DW_TAG_TI_assign_register, DW_AT_name("RPTC")
    1970                      .dwattr $C$DW$225, DW_AT_location[DW_OP_regx 0x3b]
    1971              $C$DW$226       .dwtag  DW_TAG_TI_assign_register, DW_AT_name("CDP")
    1972                      .dwattr $C$DW$226, DW_AT_location[DW_OP_regx 0x3c]
    1973              $C$DW$227       .dwtag  DW_TAG_TI_assign_register, DW_AT_name("XCDP")
    1974                      .dwattr $C$DW$227, DW_AT_location[DW_OP_regx 0x3d]
    1975              $C$DW$228       .dwtag  DW_TAG_TI_assign_register, DW_AT_name("TRN0")
    1976                      .dwattr $C$DW$228, DW_AT_location[DW_OP_regx 0x3e]
    1977              $C$DW$229       .dwtag  DW_TAG_TI_assign_register, DW_AT_name("TRN1")
    1978                      .dwattr $C$DW$229, DW_AT_location[DW_OP_regx 0x3f]
    1979              $C$DW$230       .dwtag  DW_TAG_TI_assign_register, DW_AT_name("BSA01")
    1980                      .dwattr $C$DW$230, DW_AT_location[DW_OP_regx 0x40]
    1981              $C$DW$231       .dwtag  DW_TAG_TI_assign_register, DW_AT_name("BSA23")
    1982                      .dwattr $C$DW$231, DW_AT_location[DW_OP_regx 0x41]
    1983              $C$DW$232       .dwtag  DW_TAG_TI_assign_register, DW_AT_name("BSA45")
    1984                      .dwattr $C$DW$232, DW_AT_location[DW_OP_regx 0x42]
    1985              $C$DW$233       .dwtag  DW_TAG_TI_assign_register, DW_AT_name("BSA67")
    1986                      .dwattr $C$DW$233, DW_AT_location[DW_OP_regx 0x43]
    1987              $C$DW$234       .dwtag  DW_TAG_TI_assign_register, DW_AT_name("BSAC")
    1988                      .dwattr $C$DW$234, DW_AT_location[DW_OP_regx 0x44]
    1989              $C$DW$235       .dwtag  DW_TAG_TI_assign_register, DW_AT_name("CARRY")
    1990                      .dwattr $C$DW$235, DW_AT_location[DW_OP_regx 0x45]
    1991              $C$DW$236       .dwtag  DW_TAG_TI_assign_register, DW_AT_name("TC1")
    1992                      .dwattr $C$DW$236, DW_AT_location[DW_OP_regx 0x46]
    1993              $C$DW$237       .dwtag  DW_TAG_TI_assign_register, DW_AT_name("TC2")
    1994                      .dwattr $C$DW$237, DW_AT_location[DW_OP_regx 0x47]
    1995              $C$DW$238       .dwtag  DW_TAG_TI_assign_register, DW_AT_name("M40")
    1996                      .dwattr $C$DW$238, DW_AT_location[DW_OP_regx 0x48]
    1997              $C$DW$239       .dwtag  DW_TAG_TI_assign_register, DW_AT_name("SXMD")
    1998                      .dwattr $C$DW$239, DW_AT_location[DW_OP_regx 0x49]
    1999              $C$DW$240       .dwtag  DW_TAG_TI_assign_register, DW_AT_name("ARMS")
    2000                      .dwattr $C$DW$240, DW_AT_location[DW_OP_regx 0x4a]
    2001              $C$DW$241       .dwtag  DW_TAG_TI_assign_register, DW_AT_name("C54CM")
    2002                      .dwattr $C$DW$241, DW_AT_location[DW_OP_regx 0x4b]
    2003              $C$DW$242       .dwtag  DW_TAG_TI_assign_register, DW_AT_name("SATA")
    2004                      .dwattr $C$DW$242, DW_AT_location[DW_OP_regx 0x4c]
    2005              $C$DW$243       .dwtag  DW_TAG_TI_assign_register, DW_AT_name("SATD")
    2006                      .dwattr $C$DW$243, DW_AT_location[DW_OP_regx 0x4d]
    2007              $C$DW$244       .dwtag  DW_TAG_TI_assign_register, DW_AT_name("RDM")
    2008                      .dwattr $C$DW$244, DW_AT_location[DW_OP_regx 0x4e]
    2009              $C$DW$245       .dwtag  DW_TAG_TI_assign_register, DW_AT_name("FRCT")
TMS320C55x Assembler PC v4.4.1 Fri Sep 07 01:41:44 2018

Tools Copyright (c) 1996-2012 Texas Instruments Incorporated
QPeek.asm                                                            PAGE   43

    2010                      .dwattr $C$DW$245, DW_AT_location[DW_OP_regx 0x4f]
    2011              $C$DW$246       .dwtag  DW_TAG_TI_assign_register, DW_AT_name("SMUL")
    2012                      .dwattr $C$DW$246, DW_AT_location[DW_OP_regx 0x50]
    2013              $C$DW$247       .dwtag  DW_TAG_TI_assign_register, DW_AT_name("INTM")
    2014                      .dwattr $C$DW$247, DW_AT_location[DW_OP_regx 0x51]
    2015              $C$DW$248       .dwtag  DW_TAG_TI_assign_register, DW_AT_name("AR0LC")
    2016                      .dwattr $C$DW$248, DW_AT_location[DW_OP_regx 0x52]
    2017              $C$DW$249       .dwtag  DW_TAG_TI_assign_register, DW_AT_name("AR1LC")
    2018                      .dwattr $C$DW$249, DW_AT_location[DW_OP_regx 0x53]
    2019              $C$DW$250       .dwtag  DW_TAG_TI_assign_register, DW_AT_name("AR2LC")
    2020                      .dwattr $C$DW$250, DW_AT_location[DW_OP_regx 0x54]
    2021              $C$DW$251       .dwtag  DW_TAG_TI_assign_register, DW_AT_name("AR3LC")
    2022                      .dwattr $C$DW$251, DW_AT_location[DW_OP_regx 0x55]
    2023              $C$DW$252       .dwtag  DW_TAG_TI_assign_register, DW_AT_name("AR4LC")
    2024                      .dwattr $C$DW$252, DW_AT_location[DW_OP_regx 0x56]
    2025              $C$DW$253       .dwtag  DW_TAG_TI_assign_register, DW_AT_name("AR5LC")
    2026                      .dwattr $C$DW$253, DW_AT_location[DW_OP_regx 0x57]
    2027              $C$DW$254       .dwtag  DW_TAG_TI_assign_register, DW_AT_name("AR6LC")
    2028                      .dwattr $C$DW$254, DW_AT_location[DW_OP_regx 0x58]
    2029              $C$DW$255       .dwtag  DW_TAG_TI_assign_register, DW_AT_name("AR7LC")
    2030                      .dwattr $C$DW$255, DW_AT_location[DW_OP_regx 0x59]
    2031              $C$DW$256       .dwtag  DW_TAG_TI_assign_register, DW_AT_name("CDPLC")
    2032                      .dwattr $C$DW$256, DW_AT_location[DW_OP_regx 0x5a]
    2033              $C$DW$257       .dwtag  DW_TAG_TI_assign_register, DW_AT_name("CIE_RETA")
    2034                      .dwattr $C$DW$257, DW_AT_location[DW_OP_regx 0x5b]
    2035                      .dwendtag $C$DW$CU
    2036              
    2036              
    2036              

No Assembly Errors, No Assembly Warnings
