TMS320C55x Assembler PC v4.4.1 Mon Aug 15 03:55:17 2016

Tools Copyright (c) 1996-2012 Texas Instruments Incorporated
usb.asm                                                              PAGE    1

    8169              ; Temporary Registers Used: None
       1              ;*******************************************************************************
       2              ;* TMS320C55x C/C++ Codegen                                          PC v4.4.1 *
       3              ;* Date/Time created: Mon Aug 15 03:55:14 2016                                 *
       4              ;*******************************************************************************
       5                      .compiler_opts --hll_source=on --mem_model:code=flat --mem_model:data=large --object_format=coff --si
       6                      .mmregs
       7                      .cpl_on
       8                      .arms_on
       9                      .c54cm_off
      10                      .asg AR6, FP
      11                      .asg XAR6, XFP
      12                      .asg DPH, MDP
      13                      .model call=c55_std
      14                      .model mem=large
      15                      .noremark 5002  ; code respects overwrite rules
      16              ;*******************************************************************************
      17              ;* GLOBAL FILE PARAMETERS                                                      *
      18              ;*                                                                             *
      19              ;*   Architecture       : TMS320C55x                                           *
      20              ;*   Optimizing for     : Speed                                                *
      21              ;*   Memory             : Large Model (23-Bit Data Pointers)                   *
      22              ;*   Calls              : Normal Library ASM calls                             *
      23              ;*   Debug Info         : Standard TI Debug Information                        *
      24              ;*******************************************************************************
      25              
      26              $C$DW$CU        .dwtag  DW_TAG_compile_unit
      27                      .dwattr $C$DW$CU, DW_AT_name("../c5535_bsl_revc/ezdsp5535_v1/boot_post_SDcard/boot_post/usb.c")
      28                      .dwattr $C$DW$CU, DW_AT_producer("TMS320C55x C/C++ Codegen PC v4.4.1 Copyright (c) 1996-2012 Texas In
      29                      .dwattr $C$DW$CU, DW_AT_TI_version(0x01)
      30                      .dwattr $C$DW$CU, DW_AT_comp_dir("F:\eZDSP_5535_Files\ccsws2\test\Debug")
      31              ;******************************************************************************
      32              ;* CINIT RECORDS                                                              *
      33              ;******************************************************************************
      34 000000               .sect   ".cinit"
      35                      .align  1
      36 000000 0002          .field          2,16
      37 000001 0000-         .field          _pContext+0,24
         000002 7600 
      38 000002 7600          .field          0,8
      39 000003 0000!         .field  _gUsbContext,32         ; _pContext @ 0
         000004 0000 
      40              
      41 000005               .sect   ".cinit"
      42                      .align  1
      43 000005 0001          .field          1,16
      44 000006 0002-         .field          _curCfg+0,24
         000007 8700 
      45 000007 8700          .field          0,8
      46 000008 0000          .field  0,16                    ; _curCfg @ 0
      47              
      48 000009               .sect   ".cinit"
      49                      .align  1
      50 000009 0001          .field          1,16
      51 00000a 0002-         .field          _stopRunning+0,24
TMS320C55x Assembler PC v4.4.1 Mon Aug 15 03:55:17 2016

Tools Copyright (c) 1996-2012 Texas Instruments Incorporated
usb.asm                                                              PAGE    2

         00000b 8800 
      52 00000b 8800          .field          0,8
      53 00000c 0000          .field  0,16                    ; _stopRunning @ 0
      54              
      55 00000d               .sect   ".cinit"
      56                      .align  1
      57 00000d 0009          .field          $C$IR_1,16
      58 00000e 0002-         .field          _deviceDesc+0,24
         00000f 8900 
      59 00000f 8900          .field          0,8
      60 000010 0112          .field  274,16                  ; _deviceDesc[0] @ 0
      61 000011 0200          .field  512,16                  ; _deviceDesc[1] @ 16
      62 000012 0000          .field  0,16                    ; _deviceDesc[2] @ 32
      63 000013 4000          .field  16384,16                        ; _deviceDesc[3] @ 48
      64 000014 0451          .field  1105,16                 ; _deviceDesc[4] @ 64
      65 000015 5535          .field  21813,16                        ; _deviceDesc[5] @ 80
      66 000016 0200          .field  512,16                  ; _deviceDesc[6] @ 96
      67 000017 0203          .field  515,16                  ; _deviceDesc[7] @ 112
      68 000018 0101          .field  257,16                  ; _deviceDesc[8] @ 128
      69              $C$IR_1:        .set    9
      70              
      71 000019               .sect   ".cinit"
      72                      .align  1
      73 000019 0010          .field          $C$IR_2,16
      74 00001a 0002-         .field          _cfgDesc+0,24
         00001b 9200 
      75 00001b 9200          .field          0,8
      76 00001c 0209          .field  521,16                  ; _cfgDesc[0] @ 0
      77 00001d 0020          .field  32,16                   ; _cfgDesc[1] @ 16
      78 00001e 0101          .field  257,16                  ; _cfgDesc[2] @ 32
      79 00001f C001          .field  49153,16                        ; _cfgDesc[3] @ 48
      80 000020 0928          .field  2344,16                 ; _cfgDesc[4] @ 64
      81 000021 0004          .field  4,16                    ; _cfgDesc[5] @ 80
      82 000022 0200          .field  512,16                  ; _cfgDesc[6] @ 96
      83 000023 0000          .field  0,16                    ; _cfgDesc[7] @ 112
      84 000024 0000          .field  0,16                    ; _cfgDesc[8] @ 128
      85 000025 0507          .field  1287,16                 ; _cfgDesc[9] @ 144
      86 000026 0201          .field  513,16                  ; _cfgDesc[10] @ 160
      87 000027 0040          .field  64,16                   ; _cfgDesc[11] @ 176
      88 000028 0700          .field  1792,16                 ; _cfgDesc[12] @ 192
      89 000029 8105          .field  33029,16                        ; _cfgDesc[13] @ 208
      90 00002a 4002          .field  16386,16                        ; _cfgDesc[14] @ 224
      91 00002b 0000          .field  0,16                    ; _cfgDesc[15] @ 240
      92              $C$IR_2:        .set    16
      93              
      94 00002c               .sect   ".cinit"
      95                      .align  1
      96 00002c 0002          .field          $C$IR_3,16
      97 00002d 0002-         .field          _strDesc+0,24
         00002e A200 
      98 00002e A200          .field          0,8
      99 00002f 0304          .field  772,16                  ; _strDesc[0][0] @ 0
     100 000030 0409          .field  1033,16                 ; _strDesc[0][1] @ 16
     101              $C$IR_3:        .set    2
     102              
TMS320C55x Assembler PC v4.4.1 Mon Aug 15 03:55:17 2016

Tools Copyright (c) 1996-2012 Texas Instruments Incorporated
usb.asm                                                              PAGE    3

     103 000031               .sect   ".cinit"
     104                      .align  1
     105 000031 0012          .field          $C$IR_4,16
     106 000032 0002-         .field          _strDesc+36,24
         000033 C600 
     107 000033 C600          .field          0,8
     108 000034 0324          .field  804,16                  ; _strDesc[1][0] @ 576
     109 000035 0045          .field  69,16                   ; _strDesc[1][1] @ 592
     110 000036 0054          .field  84,16                   ; _strDesc[1][2] @ 608
     111 000037 0041          .field  65,16                   ; _strDesc[1][3] @ 624
     112 000038 0058          .field  88,16                   ; _strDesc[1][4] @ 640
     113 000039 0020          .field  32,16                   ; _strDesc[1][5] @ 656
     114 00003a 0053          .field  83,16                   ; _strDesc[1][6] @ 672
     115 00003b 004E          .field  78,16                   ; _strDesc[1][7] @ 688
     116 00003c 0049          .field  73,16                   ; _strDesc[1][8] @ 704
     117 00003d 0054          .field  84,16                   ; _strDesc[1][9] @ 720
     118 00003e 0053          .field  83,16                   ; _strDesc[1][10] @ 736
     119 00003f 0055          .field  85,16                   ; _strDesc[1][11] @ 752
     120 000040 0052          .field  82,16                   ; _strDesc[1][12] @ 768
     121 000041 0045          .field  69,16                   ; _strDesc[1][13] @ 784
     122 000042 004D          .field  77,16                   ; _strDesc[1][14] @ 800
     123 000043 0054          .field  84,16                   ; _strDesc[1][15] @ 816
     124 000044 004E          .field  78,16                   ; _strDesc[1][16] @ 832
     125 000045 0053          .field  83,16                   ; _strDesc[1][17] @ 848
     126              $C$IR_4:        .set    18
     127              
     128 000046               .sect   ".cinit"
     129                      .align  1
     130 000046 000A          .field          $C$IR_5,16
     131 000047 0002-         .field          _strDesc+72,24
         000048 EA00 
     132 000048 EA00          .field          0,8
     133 000049 0314          .field  788,16                  ; _strDesc[2][0] @ 1152
     134 00004a 0065          .field  101,16                  ; _strDesc[2][1] @ 1168
     135 00004b 005A          .field  90,16                   ; _strDesc[2][2] @ 1184
     136 00004c 0044          .field  68,16                   ; _strDesc[2][3] @ 1200
     137 00004d 0053          .field  83,16                   ; _strDesc[2][4] @ 1216
     138 00004e 0050          .field  80,16                   ; _strDesc[2][5] @ 1232
     139 00004f 0035          .field  53,16                   ; _strDesc[2][6] @ 1248
     140 000050 0035          .field  53,16                   ; _strDesc[2][7] @ 1264
     141 000051 0033          .field  51,16                   ; _strDesc[2][8] @ 1280
     142 000052 0035          .field  53,16                   ; _strDesc[2][9] @ 1296
     143              $C$IR_5:        .set    10
     144              
     145 000053               .sect   ".cinit"
     146                      .align  1
     147 000053 0006          .field          $C$IR_6,16
     148 000054 0003-         .field          _strDesc+108,24
         000055 0E00 
     149 000055 0E00          .field          0,8
     150 000056 030C          .field  780,16                  ; _strDesc[3][0] @ 1728
     151 000057 0030          .field  48,16                   ; _strDesc[3][1] @ 1744
     152 000058 0030          .field  48,16                   ; _strDesc[3][2] @ 1760
     153 000059 0030          .field  48,16                   ; _strDesc[3][3] @ 1776
     154 00005a 0030          .field  48,16                   ; _strDesc[3][4] @ 1792
TMS320C55x Assembler PC v4.4.1 Mon Aug 15 03:55:17 2016

Tools Copyright (c) 1996-2012 Texas Instruments Incorporated
usb.asm                                                              PAGE    4

     155 00005b 0031          .field  49,16                   ; _strDesc[3][5] @ 1808
     156              $C$IR_6:        .set    6
     157              
     158              
     159              $C$DW$1 .dwtag  DW_TAG_subprogram, DW_AT_name("memcpy")
     160                      .dwattr $C$DW$1, DW_AT_TI_symbol_name("_memcpy")
     161                      .dwattr $C$DW$1, DW_AT_type(*$C$DW$T$3)
     162                      .dwattr $C$DW$1, DW_AT_declaration
     163                      .dwattr $C$DW$1, DW_AT_external
     164              $C$DW$2 .dwtag  DW_TAG_formal_parameter
     165                      .dwattr $C$DW$2, DW_AT_type(*$C$DW$T$3)
     166              $C$DW$3 .dwtag  DW_TAG_formal_parameter
     167                      .dwattr $C$DW$3, DW_AT_type(*$C$DW$T$154)
     168              $C$DW$4 .dwtag  DW_TAG_formal_parameter
     169                      .dwattr $C$DW$4, DW_AT_type(*$C$DW$T$11)
     170                      .dwendtag $C$DW$1
     171              
     172              
     173              $C$DW$5 .dwtag  DW_TAG_subprogram, DW_AT_name("printf")
     174                      .dwattr $C$DW$5, DW_AT_TI_symbol_name("_printf")
     175                      .dwattr $C$DW$5, DW_AT_type(*$C$DW$T$10)
     176                      .dwattr $C$DW$5, DW_AT_declaration
     177                      .dwattr $C$DW$5, DW_AT_external
     178              $C$DW$6 .dwtag  DW_TAG_formal_parameter
     179                      .dwattr $C$DW$6, DW_AT_type(*$C$DW$T$207)
     180              $C$DW$7 .dwtag  DW_TAG_unspecified_parameters
     181                      .dwendtag $C$DW$5
     182              
     183              
     184              $C$DW$8 .dwtag  DW_TAG_subprogram, DW_AT_name("USB_init")
     185                      .dwattr $C$DW$8, DW_AT_TI_symbol_name("_USB_init")
     186                      .dwattr $C$DW$8, DW_AT_type(*$C$DW$T$80)
     187                      .dwattr $C$DW$8, DW_AT_declaration
     188                      .dwattr $C$DW$8, DW_AT_external
     189              $C$DW$9 .dwtag  DW_TAG_formal_parameter
     190                      .dwattr $C$DW$9, DW_AT_type(*$C$DW$T$143)
     191                      .dwendtag $C$DW$8
     192              
     193              
     194              $C$DW$10        .dwtag  DW_TAG_subprogram, DW_AT_name("USB_resetDev")
     195                      .dwattr $C$DW$10, DW_AT_TI_symbol_name("_USB_resetDev")
     196                      .dwattr $C$DW$10, DW_AT_type(*$C$DW$T$80)
     197                      .dwattr $C$DW$10, DW_AT_declaration
     198                      .dwattr $C$DW$10, DW_AT_external
     199              $C$DW$11        .dwtag  DW_TAG_formal_parameter
     200                      .dwattr $C$DW$11, DW_AT_type(*$C$DW$T$73)
     201                      .dwendtag $C$DW$10
     202              
     203              
     204              $C$DW$12        .dwtag  DW_TAG_subprogram, DW_AT_name("USB_initEndptObj")
     205                      .dwattr $C$DW$12, DW_AT_TI_symbol_name("_USB_initEndptObj")
     206                      .dwattr $C$DW$12, DW_AT_type(*$C$DW$T$80)
     207                      .dwattr $C$DW$12, DW_AT_declaration
     208                      .dwattr $C$DW$12, DW_AT_external
     209              $C$DW$13        .dwtag  DW_TAG_formal_parameter
TMS320C55x Assembler PC v4.4.1 Mon Aug 15 03:55:17 2016

Tools Copyright (c) 1996-2012 Texas Instruments Incorporated
usb.asm                                                              PAGE    5

     210                      .dwattr $C$DW$13, DW_AT_type(*$C$DW$T$73)
     211              $C$DW$14        .dwtag  DW_TAG_formal_parameter
     212                      .dwattr $C$DW$14, DW_AT_type(*$C$DW$T$106)
     213              $C$DW$15        .dwtag  DW_TAG_formal_parameter
     214                      .dwattr $C$DW$15, DW_AT_type(*$C$DW$T$112)
     215              $C$DW$16        .dwtag  DW_TAG_formal_parameter
     216                      .dwattr $C$DW$16, DW_AT_type(*$C$DW$T$114)
     217              $C$DW$17        .dwtag  DW_TAG_formal_parameter
     218                      .dwattr $C$DW$17, DW_AT_type(*$C$DW$T$19)
     219              $C$DW$18        .dwtag  DW_TAG_formal_parameter
     220                      .dwattr $C$DW$18, DW_AT_type(*$C$DW$T$19)
     221              $C$DW$19        .dwtag  DW_TAG_formal_parameter
     222                      .dwattr $C$DW$19, DW_AT_type(*$C$DW$T$117)
     223                      .dwendtag $C$DW$12
     224              
     225              
     226              $C$DW$20        .dwtag  DW_TAG_subprogram, DW_AT_name("USB_getSetupPacket")
     227                      .dwattr $C$DW$20, DW_AT_TI_symbol_name("_USB_getSetupPacket")
     228                      .dwattr $C$DW$20, DW_AT_type(*$C$DW$T$80)
     229                      .dwattr $C$DW$20, DW_AT_declaration
     230                      .dwattr $C$DW$20, DW_AT_external
     231              $C$DW$21        .dwtag  DW_TAG_formal_parameter
     232                      .dwattr $C$DW$21, DW_AT_type(*$C$DW$T$73)
     233              $C$DW$22        .dwtag  DW_TAG_formal_parameter
     234                      .dwattr $C$DW$22, DW_AT_type(*$C$DW$T$151)
     235              $C$DW$23        .dwtag  DW_TAG_formal_parameter
     236                      .dwattr $C$DW$23, DW_AT_type(*$C$DW$T$86)
     237                      .dwendtag $C$DW$20
     238              
     239              
     240              $C$DW$24        .dwtag  DW_TAG_subprogram, DW_AT_name("USB_postTransaction")
     241                      .dwattr $C$DW$24, DW_AT_TI_symbol_name("_USB_postTransaction")
     242                      .dwattr $C$DW$24, DW_AT_type(*$C$DW$T$80)
     243                      .dwattr $C$DW$24, DW_AT_declaration
     244                      .dwattr $C$DW$24, DW_AT_external
     245              $C$DW$25        .dwtag  DW_TAG_formal_parameter
     246                      .dwattr $C$DW$25, DW_AT_type(*$C$DW$T$106)
     247              $C$DW$26        .dwtag  DW_TAG_formal_parameter
     248                      .dwattr $C$DW$26, DW_AT_type(*$C$DW$T$19)
     249              $C$DW$27        .dwtag  DW_TAG_formal_parameter
     250                      .dwattr $C$DW$27, DW_AT_type(*$C$DW$T$3)
     251              $C$DW$28        .dwtag  DW_TAG_formal_parameter
     252                      .dwattr $C$DW$28, DW_AT_type(*$C$DW$T$126)
     253                      .dwendtag $C$DW$24
     254              
     255              
     256              $C$DW$29        .dwtag  DW_TAG_subprogram, DW_AT_name("USB_stallEndpt")
     257                      .dwattr $C$DW$29, DW_AT_TI_symbol_name("_USB_stallEndpt")
     258                      .dwattr $C$DW$29, DW_AT_type(*$C$DW$T$80)
     259                      .dwattr $C$DW$29, DW_AT_declaration
     260                      .dwattr $C$DW$29, DW_AT_external
     261              $C$DW$30        .dwtag  DW_TAG_formal_parameter
     262                      .dwattr $C$DW$30, DW_AT_type(*$C$DW$T$106)
     263                      .dwendtag $C$DW$29
     264              
TMS320C55x Assembler PC v4.4.1 Mon Aug 15 03:55:17 2016

Tools Copyright (c) 1996-2012 Texas Instruments Incorporated
usb.asm                                                              PAGE    6

     265              
     266              $C$DW$31        .dwtag  DW_TAG_subprogram, DW_AT_name("USB_clearEndptStall")
     267                      .dwattr $C$DW$31, DW_AT_TI_symbol_name("_USB_clearEndptStall")
     268                      .dwattr $C$DW$31, DW_AT_type(*$C$DW$T$80)
     269                      .dwattr $C$DW$31, DW_AT_declaration
     270                      .dwattr $C$DW$31, DW_AT_external
     271              $C$DW$32        .dwtag  DW_TAG_formal_parameter
     272                      .dwattr $C$DW$32, DW_AT_type(*$C$DW$T$106)
     273                      .dwendtag $C$DW$31
     274              
     275              
     276              $C$DW$33        .dwtag  DW_TAG_subprogram, DW_AT_name("USB_getEndptStall")
     277                      .dwattr $C$DW$33, DW_AT_TI_symbol_name("_USB_getEndptStall")
     278                      .dwattr $C$DW$33, DW_AT_type(*$C$DW$T$92)
     279                      .dwattr $C$DW$33, DW_AT_declaration
     280                      .dwattr $C$DW$33, DW_AT_external
     281              $C$DW$34        .dwtag  DW_TAG_formal_parameter
     282                      .dwattr $C$DW$34, DW_AT_type(*$C$DW$T$106)
     283              $C$DW$35        .dwtag  DW_TAG_formal_parameter
     284                      .dwattr $C$DW$35, DW_AT_type(*$C$DW$T$128)
     285                      .dwendtag $C$DW$33
     286              
     287              
     288              $C$DW$36        .dwtag  DW_TAG_subprogram, DW_AT_name("USB_epNumToHandle")
     289                      .dwattr $C$DW$36, DW_AT_TI_symbol_name("_USB_epNumToHandle")
     290                      .dwattr $C$DW$36, DW_AT_type(*$C$DW$T$106)
     291                      .dwattr $C$DW$36, DW_AT_declaration
     292                      .dwattr $C$DW$36, DW_AT_external
     293              $C$DW$37        .dwtag  DW_TAG_formal_parameter
     294                      .dwattr $C$DW$37, DW_AT_type(*$C$DW$T$73)
     295              $C$DW$38        .dwtag  DW_TAG_formal_parameter
     296                      .dwattr $C$DW$38, DW_AT_type(*$C$DW$T$19)
     297                      .dwendtag $C$DW$36
     298              
     299              
     300              $C$DW$39        .dwtag  DW_TAG_subprogram, DW_AT_name("USB_connectDev")
     301                      .dwattr $C$DW$39, DW_AT_TI_symbol_name("_USB_connectDev")
     302                      .dwattr $C$DW$39, DW_AT_type(*$C$DW$T$80)
     303                      .dwattr $C$DW$39, DW_AT_declaration
     304                      .dwattr $C$DW$39, DW_AT_external
     305              $C$DW$40        .dwtag  DW_TAG_formal_parameter
     306                      .dwattr $C$DW$40, DW_AT_type(*$C$DW$T$73)
     307                      .dwendtag $C$DW$39
     308              
     309              
     310              $C$DW$41        .dwtag  DW_TAG_subprogram, DW_AT_name("USB_disconnectDev")
     311                      .dwattr $C$DW$41, DW_AT_TI_symbol_name("_USB_disconnectDev")
     312                      .dwattr $C$DW$41, DW_AT_type(*$C$DW$T$80)
     313                      .dwattr $C$DW$41, DW_AT_declaration
     314                      .dwattr $C$DW$41, DW_AT_external
     315              $C$DW$42        .dwtag  DW_TAG_formal_parameter
     316                      .dwattr $C$DW$42, DW_AT_type(*$C$DW$T$73)
     317                      .dwendtag $C$DW$41
     318              
     319              
TMS320C55x Assembler PC v4.4.1 Mon Aug 15 03:55:17 2016

Tools Copyright (c) 1996-2012 Texas Instruments Incorporated
usb.asm                                                              PAGE    7

     320              $C$DW$43        .dwtag  DW_TAG_subprogram, DW_AT_name("USB_setRemoteWakeup")
     321                      .dwattr $C$DW$43, DW_AT_TI_symbol_name("_USB_setRemoteWakeup")
     322                      .dwattr $C$DW$43, DW_AT_type(*$C$DW$T$80)
     323                      .dwattr $C$DW$43, DW_AT_declaration
     324                      .dwattr $C$DW$43, DW_AT_external
     325              $C$DW$44        .dwtag  DW_TAG_formal_parameter
     326                      .dwattr $C$DW$44, DW_AT_type(*$C$DW$T$73)
     327              $C$DW$45        .dwtag  DW_TAG_formal_parameter
     328                      .dwattr $C$DW$45, DW_AT_type(*$C$DW$T$92)
     329                      .dwendtag $C$DW$43
     330              
     331              
     332              $C$DW$46        .dwtag  DW_TAG_subprogram, DW_AT_name("USB_getRemoteWakeupStat")
     333                      .dwattr $C$DW$46, DW_AT_TI_symbol_name("_USB_getRemoteWakeupStat")
     334                      .dwattr $C$DW$46, DW_AT_type(*$C$DW$T$92)
     335                      .dwattr $C$DW$46, DW_AT_declaration
     336                      .dwattr $C$DW$46, DW_AT_external
     337              $C$DW$47        .dwtag  DW_TAG_formal_parameter
     338                      .dwattr $C$DW$47, DW_AT_type(*$C$DW$T$73)
     339                      .dwendtag $C$DW$46
     340              
     341              
     342              $C$DW$48        .dwtag  DW_TAG_subprogram, DW_AT_name("USB_issueRemoteWakeup")
     343                      .dwattr $C$DW$48, DW_AT_TI_symbol_name("_USB_issueRemoteWakeup")
     344                      .dwattr $C$DW$48, DW_AT_type(*$C$DW$T$80)
     345                      .dwattr $C$DW$48, DW_AT_declaration
     346                      .dwattr $C$DW$48, DW_AT_external
     347              $C$DW$49        .dwtag  DW_TAG_formal_parameter
     348                      .dwattr $C$DW$49, DW_AT_type(*$C$DW$T$73)
     349              $C$DW$50        .dwtag  DW_TAG_formal_parameter
     350                      .dwattr $C$DW$50, DW_AT_type(*$C$DW$T$86)
     351                      .dwendtag $C$DW$48
     352              
     353              
     354              $C$DW$51        .dwtag  DW_TAG_subprogram, DW_AT_name("USB_setDevAddr")
     355                      .dwattr $C$DW$51, DW_AT_TI_symbol_name("_USB_setDevAddr")
     356                      .dwattr $C$DW$51, DW_AT_type(*$C$DW$T$80)
     357                      .dwattr $C$DW$51, DW_AT_declaration
     358                      .dwattr $C$DW$51, DW_AT_external
     359              $C$DW$52        .dwtag  DW_TAG_formal_parameter
     360                      .dwattr $C$DW$52, DW_AT_type(*$C$DW$T$73)
     361              $C$DW$53        .dwtag  DW_TAG_formal_parameter
     362                      .dwattr $C$DW$53, DW_AT_type(*$C$DW$T$19)
     363                      .dwendtag $C$DW$51
     364              
     365              
     366              $C$DW$54        .dwtag  DW_TAG_subprogram, DW_AT_name("USB_suspendDevice")
     367                      .dwattr $C$DW$54, DW_AT_TI_symbol_name("_USB_suspendDevice")
     368                      .dwattr $C$DW$54, DW_AT_type(*$C$DW$T$80)
     369                      .dwattr $C$DW$54, DW_AT_declaration
     370                      .dwattr $C$DW$54, DW_AT_external
     371              $C$DW$55        .dwtag  DW_TAG_formal_parameter
     372                      .dwattr $C$DW$55, DW_AT_type(*$C$DW$T$73)
     373                      .dwendtag $C$DW$54
     374              
TMS320C55x Assembler PC v4.4.1 Mon Aug 15 03:55:17 2016

Tools Copyright (c) 1996-2012 Texas Instruments Incorporated
usb.asm                                                              PAGE    8

     375              
     376              $C$DW$56        .dwtag  DW_TAG_subprogram, DW_AT_name("USB_setParams")
     377                      .dwattr $C$DW$56, DW_AT_TI_symbol_name("_USB_setParams")
     378                      .dwattr $C$DW$56, DW_AT_type(*$C$DW$T$80)
     379                      .dwattr $C$DW$56, DW_AT_declaration
     380                      .dwattr $C$DW$56, DW_AT_external
     381              $C$DW$57        .dwtag  DW_TAG_formal_parameter
     382                      .dwattr $C$DW$57, DW_AT_type(*$C$DW$T$73)
     383              $C$DW$58        .dwtag  DW_TAG_formal_parameter
     384                      .dwattr $C$DW$58, DW_AT_type(*$C$DW$T$149)
     385              $C$DW$59        .dwtag  DW_TAG_formal_parameter
     386                      .dwattr $C$DW$59, DW_AT_type(*$C$DW$T$19)
     387                      .dwendtag $C$DW$56
     388              
     389              
     390              $C$DW$60        .dwtag  DW_TAG_subprogram, DW_AT_name("IRQ_plug")
     391                      .dwattr $C$DW$60, DW_AT_TI_symbol_name("_IRQ_plug")
     392                      .dwattr $C$DW$60, DW_AT_type(*$C$DW$T$10)
     393                      .dwattr $C$DW$60, DW_AT_declaration
     394                      .dwattr $C$DW$60, DW_AT_external
     395              $C$DW$61        .dwtag  DW_TAG_formal_parameter
     396                      .dwattr $C$DW$61, DW_AT_type(*$C$DW$T$19)
     397              $C$DW$62        .dwtag  DW_TAG_formal_parameter
     398                      .dwattr $C$DW$62, DW_AT_type(*$C$DW$T$69)
     399                      .dwendtag $C$DW$60
     400              
     401              
     402              $C$DW$63        .dwtag  DW_TAG_subprogram, DW_AT_name("IRQ_enable")
     403                      .dwattr $C$DW$63, DW_AT_TI_symbol_name("_IRQ_enable")
     404                      .dwattr $C$DW$63, DW_AT_type(*$C$DW$T$10)
     405                      .dwattr $C$DW$63, DW_AT_declaration
     406                      .dwattr $C$DW$63, DW_AT_external
     407              $C$DW$64        .dwtag  DW_TAG_formal_parameter
     408                      .dwattr $C$DW$64, DW_AT_type(*$C$DW$T$19)
     409                      .dwendtag $C$DW$63
     410              
     411              
     412              $C$DW$65        .dwtag  DW_TAG_subprogram, DW_AT_name("IRQ_setVecs")
     413                      .dwattr $C$DW$65, DW_AT_TI_symbol_name("_IRQ_setVecs")
     414                      .dwattr $C$DW$65, DW_AT_type(*$C$DW$T$80)
     415                      .dwattr $C$DW$65, DW_AT_declaration
     416                      .dwattr $C$DW$65, DW_AT_external
     417              $C$DW$66        .dwtag  DW_TAG_formal_parameter
     418                      .dwattr $C$DW$66, DW_AT_type(*$C$DW$T$70)
     419                      .dwendtag $C$DW$65
     420              
     421              
     422              $C$DW$67        .dwtag  DW_TAG_subprogram, DW_AT_name("IRQ_globalEnable")
     423                      .dwattr $C$DW$67, DW_AT_TI_symbol_name("_IRQ_globalEnable")
     424                      .dwattr $C$DW$67, DW_AT_type(*$C$DW$T$86)
     425                      .dwattr $C$DW$67, DW_AT_declaration
     426                      .dwattr $C$DW$67, DW_AT_external
     427              
     428              $C$DW$68        .dwtag  DW_TAG_subprogram, DW_AT_name("VECSTART")
     429                      .dwattr $C$DW$68, DW_AT_TI_symbol_name("_VECSTART")
TMS320C55x Assembler PC v4.4.1 Mon Aug 15 03:55:17 2016

Tools Copyright (c) 1996-2012 Texas Instruments Incorporated
usb.asm                                                              PAGE    9

     430                      .dwattr $C$DW$68, DW_AT_declaration
     431                      .dwattr $C$DW$68, DW_AT_external
     432              $C$DW$69        .dwtag  DW_TAG_variable, DW_AT_name("usbRegisters")
     433                      .dwattr $C$DW$69, DW_AT_TI_symbol_name("_usbRegisters")
     434                      .dwattr $C$DW$69, DW_AT_type(*$C$DW$T$136)
     435                      .dwattr $C$DW$69, DW_AT_declaration
     436                      .dwattr $C$DW$69, DW_AT_external
     437              $C$DW$70        .dwtag  DW_TAG_variable, DW_AT_name("sysCtrlRegs")
     438                      .dwattr $C$DW$70, DW_AT_TI_symbol_name("_sysCtrlRegs")
     439                      .dwattr $C$DW$70, DW_AT_type(*$C$DW$T$140)
     440                      .dwattr $C$DW$70, DW_AT_declaration
     441                      .dwattr $C$DW$70, DW_AT_external
     442              $C$DW$71        .dwtag  DW_TAG_variable, DW_AT_name("gUsbContext")
     443                      .dwattr $C$DW$71, DW_AT_TI_symbol_name("_gUsbContext")
     444                      .dwattr $C$DW$71, DW_AT_type(*$C$DW$T$144)
     445                      .dwattr $C$DW$71, DW_AT_declaration
     446                      .dwattr $C$DW$71, DW_AT_external
     447                      .global _hEpObjArray
     448 000000               .bss    _hEpObjArray,16,0,2
     449              $C$DW$72        .dwtag  DW_TAG_variable, DW_AT_name("hEpObjArray")
     450                      .dwattr $C$DW$72, DW_AT_TI_symbol_name("_hEpObjArray")
     451                      .dwattr $C$DW$72, DW_AT_location[DW_OP_addr _hEpObjArray]
     452                      .dwattr $C$DW$72, DW_AT_type(*$C$DW$T$107)
     453                      .dwattr $C$DW$72, DW_AT_external
     454                      .global _hEPx
     455 000010               .bss    _hEPx,2,0,2
     456              $C$DW$73        .dwtag  DW_TAG_variable, DW_AT_name("hEPx")
     457                      .dwattr $C$DW$73, DW_AT_TI_symbol_name("_hEPx")
     458                      .dwattr $C$DW$73, DW_AT_location[DW_OP_addr _hEPx]
     459                      .dwattr $C$DW$73, DW_AT_type(*$C$DW$T$106)
     460                      .dwattr $C$DW$73, DW_AT_external
     461                      .global _usbCtrlOutEpObj
     462 000012               .bss    _usbCtrlOutEpObj,20,0,2
     463              $C$DW$74        .dwtag  DW_TAG_variable, DW_AT_name("usbCtrlOutEpObj")
     464                      .dwattr $C$DW$74, DW_AT_TI_symbol_name("_usbCtrlOutEpObj")
     465                      .dwattr $C$DW$74, DW_AT_location[DW_OP_addr _usbCtrlOutEpObj]
     466                      .dwattr $C$DW$74, DW_AT_type(*$C$DW$T$104)
     467                      .dwattr $C$DW$74, DW_AT_external
     468                      .global _usbCtrlInEpObj
     469 000026               .bss    _usbCtrlInEpObj,20,0,2
     470              $C$DW$75        .dwtag  DW_TAG_variable, DW_AT_name("usbCtrlInEpObj")
     471                      .dwattr $C$DW$75, DW_AT_TI_symbol_name("_usbCtrlInEpObj")
     472                      .dwattr $C$DW$75, DW_AT_location[DW_OP_addr _usbCtrlInEpObj]
     473                      .dwattr $C$DW$75, DW_AT_type(*$C$DW$T$104)
     474                      .dwattr $C$DW$75, DW_AT_external
     475                      .global _usbBulkOutEpObj
     476 00003a               .bss    _usbBulkOutEpObj,20,0,2
     477              $C$DW$76        .dwtag  DW_TAG_variable, DW_AT_name("usbBulkOutEpObj")
     478                      .dwattr $C$DW$76, DW_AT_TI_symbol_name("_usbBulkOutEpObj")
     479                      .dwattr $C$DW$76, DW_AT_location[DW_OP_addr _usbBulkOutEpObj]
     480                      .dwattr $C$DW$76, DW_AT_type(*$C$DW$T$104)
     481                      .dwattr $C$DW$76, DW_AT_external
     482                      .global _usbBulkInEpObj
     483 00004e               .bss    _usbBulkInEpObj,20,0,2
     484              $C$DW$77        .dwtag  DW_TAG_variable, DW_AT_name("usbBulkInEpObj")
TMS320C55x Assembler PC v4.4.1 Mon Aug 15 03:55:17 2016

Tools Copyright (c) 1996-2012 Texas Instruments Incorporated
usb.asm                                                              PAGE   10

     485                      .dwattr $C$DW$77, DW_AT_TI_symbol_name("_usbBulkInEpObj")
     486                      .dwattr $C$DW$77, DW_AT_location[DW_OP_addr _usbBulkInEpObj]
     487                      .dwattr $C$DW$77, DW_AT_type(*$C$DW$T$104)
     488                      .dwattr $C$DW$77, DW_AT_external
     489                      .global _usbConfig
     490 000062               .bss    _usbConfig,12,0,2
     491              $C$DW$78        .dwtag  DW_TAG_variable, DW_AT_name("usbConfig")
     492                      .dwattr $C$DW$78, DW_AT_TI_symbol_name("_usbConfig")
     493                      .dwattr $C$DW$78, DW_AT_location[DW_OP_addr _usbConfig]
     494                      .dwattr $C$DW$78, DW_AT_type(*$C$DW$T$142)
     495                      .dwattr $C$DW$78, DW_AT_external
     496                      .global _usbSetup
     497 00006e               .bss    _usbSetup,6,0,0
     498              $C$DW$79        .dwtag  DW_TAG_variable, DW_AT_name("usbSetup")
     499                      .dwattr $C$DW$79, DW_AT_TI_symbol_name("_usbSetup")
     500                      .dwattr $C$DW$79, DW_AT_location[DW_OP_addr _usbSetup]
     501                      .dwattr $C$DW$79, DW_AT_type(*$C$DW$T$101)
     502                      .dwattr $C$DW$79, DW_AT_external
     503                      .global _txRxStatus
     504 000074               .bss    _txRxStatus,1,0,0
     505              $C$DW$80        .dwtag  DW_TAG_variable, DW_AT_name("txRxStatus")
     506                      .dwattr $C$DW$80, DW_AT_TI_symbol_name("_txRxStatus")
     507                      .dwattr $C$DW$80, DW_AT_location[DW_OP_addr _txRxStatus]
     508                      .dwattr $C$DW$80, DW_AT_type(*$C$DW$T$92)
     509                      .dwattr $C$DW$80, DW_AT_external
     510                      .global _status
     511 000075               .bss    _status,1,0,0
     512              $C$DW$81        .dwtag  DW_TAG_variable, DW_AT_name("status")
     513                      .dwattr $C$DW$81, DW_AT_TI_symbol_name("_status")
     514                      .dwattr $C$DW$81, DW_AT_location[DW_OP_addr _status]
     515                      .dwattr $C$DW$81, DW_AT_type(*$C$DW$T$80)
     516                      .dwattr $C$DW$81, DW_AT_external
     517                      .global _pContext
     518 000076               .bss    _pContext,2,0,2
     519              $C$DW$82        .dwtag  DW_TAG_variable, DW_AT_name("pContext")
     520                      .dwattr $C$DW$82, DW_AT_TI_symbol_name("_pContext")
     521                      .dwattr $C$DW$82, DW_AT_location[DW_OP_addr _pContext]
     522                      .dwattr $C$DW$82, DW_AT_type(*$C$DW$T$146)
     523                      .dwattr $C$DW$82, DW_AT_external
     524                      .global _dataReadBuff
     525 000078               .bss    _dataReadBuff,256,0,0
     526              $C$DW$83        .dwtag  DW_TAG_variable, DW_AT_name("dataReadBuff")
     527                      .dwattr $C$DW$83, DW_AT_TI_symbol_name("_dataReadBuff")
     528                      .dwattr $C$DW$83, DW_AT_location[DW_OP_addr _dataReadBuff]
     529                      .dwattr $C$DW$83, DW_AT_type(*$C$DW$T$196)
     530                      .dwattr $C$DW$83, DW_AT_external
     531                      .global _dataWriteBuff
     532 000178               .bss    _dataWriteBuff,256,0,0
     533              $C$DW$84        .dwtag  DW_TAG_variable, DW_AT_name("dataWriteBuff")
     534                      .dwattr $C$DW$84, DW_AT_TI_symbol_name("_dataWriteBuff")
     535                      .dwattr $C$DW$84, DW_AT_location[DW_OP_addr _dataWriteBuff]
     536                      .dwattr $C$DW$84, DW_AT_type(*$C$DW$T$196)
     537                      .dwattr $C$DW$84, DW_AT_external
     538                      .global _dataReadBuffPtr
     539 000278               .bss    _dataReadBuffPtr,2,0,2
TMS320C55x Assembler PC v4.4.1 Mon Aug 15 03:55:17 2016

Tools Copyright (c) 1996-2012 Texas Instruments Incorporated
usb.asm                                                              PAGE   11

     540              $C$DW$85        .dwtag  DW_TAG_variable, DW_AT_name("dataReadBuffPtr")
     541                      .dwattr $C$DW$85, DW_AT_TI_symbol_name("_dataReadBuffPtr")
     542                      .dwattr $C$DW$85, DW_AT_location[DW_OP_addr _dataReadBuffPtr]
     543                      .dwattr $C$DW$85, DW_AT_type(*$C$DW$T$102)
     544                      .dwattr $C$DW$85, DW_AT_external
     545                      .global _dataWriteBuffPtr
     546 00027a               .bss    _dataWriteBuffPtr,2,0,2
     547              $C$DW$86        .dwtag  DW_TAG_variable, DW_AT_name("dataWriteBuffPtr")
     548                      .dwattr $C$DW$86, DW_AT_TI_symbol_name("_dataWriteBuffPtr")
     549                      .dwattr $C$DW$86, DW_AT_location[DW_OP_addr _dataWriteBuffPtr]
     550                      .dwattr $C$DW$86, DW_AT_type(*$C$DW$T$102)
     551                      .dwattr $C$DW$86, DW_AT_external
     552                      .global _deviceDescPtr
     553 00027c               .bss    _deviceDescPtr,2,0,2
     554              $C$DW$87        .dwtag  DW_TAG_variable, DW_AT_name("deviceDescPtr")
     555                      .dwattr $C$DW$87, DW_AT_TI_symbol_name("_deviceDescPtr")
     556                      .dwattr $C$DW$87, DW_AT_location[DW_OP_addr _deviceDescPtr]
     557                      .dwattr $C$DW$87, DW_AT_type(*$C$DW$T$102)
     558                      .dwattr $C$DW$87, DW_AT_external
     559                      .global _cfgDescPtr
     560 00027e               .bss    _cfgDescPtr,2,0,2
     561              $C$DW$88        .dwtag  DW_TAG_variable, DW_AT_name("cfgDescPtr")
     562                      .dwattr $C$DW$88, DW_AT_TI_symbol_name("_cfgDescPtr")
     563                      .dwattr $C$DW$88, DW_AT_location[DW_OP_addr _cfgDescPtr]
     564                      .dwattr $C$DW$88, DW_AT_type(*$C$DW$T$102)
     565                      .dwattr $C$DW$88, DW_AT_external
     566                      .global _strDescPtr
     567 000280               .bss    _strDescPtr,2,0,2
     568              $C$DW$89        .dwtag  DW_TAG_variable, DW_AT_name("strDescPtr")
     569                      .dwattr $C$DW$89, DW_AT_TI_symbol_name("_strDescPtr")
     570                      .dwattr $C$DW$89, DW_AT_location[DW_OP_addr _strDescPtr]
     571                      .dwattr $C$DW$89, DW_AT_type(*$C$DW$T$102)
     572                      .dwattr $C$DW$89, DW_AT_external
     573                      .global _bytesRem
     574 000282               .bss    _bytesRem,1,0,0
     575              $C$DW$90        .dwtag  DW_TAG_variable, DW_AT_name("bytesRem")
     576                      .dwattr $C$DW$90, DW_AT_TI_symbol_name("_bytesRem")
     577                      .dwattr $C$DW$90, DW_AT_location[DW_OP_addr _bytesRem]
     578                      .dwattr $C$DW$90, DW_AT_type(*$C$DW$T$19)
     579                      .dwattr $C$DW$90, DW_AT_external
     580                      .global _devAddr
     581 000283               .bss    _devAddr,1,0,0
     582              $C$DW$91        .dwtag  DW_TAG_variable, DW_AT_name("devAddr")
     583                      .dwattr $C$DW$91, DW_AT_TI_symbol_name("_devAddr")
     584                      .dwattr $C$DW$91, DW_AT_location[DW_OP_addr _devAddr]
     585                      .dwattr $C$DW$91, DW_AT_type(*$C$DW$T$19)
     586                      .dwattr $C$DW$91, DW_AT_external
     587                      .global _saveIndex
     588 000284               .bss    _saveIndex,1,0,0
     589              $C$DW$92        .dwtag  DW_TAG_variable, DW_AT_name("saveIndex")
     590                      .dwattr $C$DW$92, DW_AT_TI_symbol_name("_saveIndex")
     591                      .dwattr $C$DW$92, DW_AT_location[DW_OP_addr _saveIndex]
     592                      .dwattr $C$DW$92, DW_AT_type(*$C$DW$T$19)
     593                      .dwattr $C$DW$92, DW_AT_external
     594                      .global _endpt
TMS320C55x Assembler PC v4.4.1 Mon Aug 15 03:55:17 2016

Tools Copyright (c) 1996-2012 Texas Instruments Incorporated
usb.asm                                                              PAGE   12

     595 000285               .bss    _endpt,1,0,0
     596              $C$DW$93        .dwtag  DW_TAG_variable, DW_AT_name("endpt")
     597                      .dwattr $C$DW$93, DW_AT_TI_symbol_name("_endpt")
     598                      .dwattr $C$DW$93, DW_AT_location[DW_OP_addr _endpt]
     599                      .dwattr $C$DW$93, DW_AT_type(*$C$DW$T$19)
     600                      .dwattr $C$DW$93, DW_AT_external
     601                      .global _dataCount
     602 000286               .bss    _dataCount,1,0,0
     603              $C$DW$94        .dwtag  DW_TAG_variable, DW_AT_name("dataCount")
     604                      .dwattr $C$DW$94, DW_AT_TI_symbol_name("_dataCount")
     605                      .dwattr $C$DW$94, DW_AT_location[DW_OP_addr _dataCount]
     606                      .dwattr $C$DW$94, DW_AT_type(*$C$DW$T$19)
     607                      .dwattr $C$DW$94, DW_AT_external
     608                      .global _curCfg
     609 000287               .bss    _curCfg,1,0,0
     610              $C$DW$95        .dwtag  DW_TAG_variable, DW_AT_name("curCfg")
     611                      .dwattr $C$DW$95, DW_AT_TI_symbol_name("_curCfg")
     612                      .dwattr $C$DW$95, DW_AT_location[DW_OP_addr _curCfg]
     613                      .dwattr $C$DW$95, DW_AT_type(*$C$DW$T$162)
     614                      .dwattr $C$DW$95, DW_AT_external
     615                      .global _stopRunning
     616 000288               .bss    _stopRunning,1,0,0
     617              $C$DW$96        .dwtag  DW_TAG_variable, DW_AT_name("stopRunning")
     618                      .dwattr $C$DW$96, DW_AT_TI_symbol_name("_stopRunning")
     619                      .dwattr $C$DW$96, DW_AT_location[DW_OP_addr _stopRunning]
     620                      .dwattr $C$DW$96, DW_AT_type(*$C$DW$T$202)
     621                      .dwattr $C$DW$96, DW_AT_external
     622                      .global _deviceDesc
     623 000289               .bss    _deviceDesc,9,0,0
     624              $C$DW$97        .dwtag  DW_TAG_variable, DW_AT_name("deviceDesc")
     625                      .dwattr $C$DW$97, DW_AT_TI_symbol_name("_deviceDesc")
     626                      .dwattr $C$DW$97, DW_AT_location[DW_OP_addr _deviceDesc]
     627                      .dwattr $C$DW$97, DW_AT_type(*$C$DW$T$197)
     628                      .dwattr $C$DW$97, DW_AT_external
     629                      .global _cfgDesc
     630 000292               .bss    _cfgDesc,16,0,0
     631              $C$DW$98        .dwtag  DW_TAG_variable, DW_AT_name("cfgDesc")
     632                      .dwattr $C$DW$98, DW_AT_TI_symbol_name("_cfgDesc")
     633                      .dwattr $C$DW$98, DW_AT_location[DW_OP_addr _cfgDesc]
     634                      .dwattr $C$DW$98, DW_AT_type(*$C$DW$T$198)
     635                      .dwattr $C$DW$98, DW_AT_external
     636                      .global _strDesc
     637 0002a2               .bss    _strDesc,144,0,0
     638              $C$DW$99        .dwtag  DW_TAG_variable, DW_AT_name("strDesc")
     639                      .dwattr $C$DW$99, DW_AT_TI_symbol_name("_strDesc")
     640                      .dwattr $C$DW$99, DW_AT_location[DW_OP_addr _strDesc]
     641                      .dwattr $C$DW$99, DW_AT_type(*$C$DW$T$200)
     642                      .dwattr $C$DW$99, DW_AT_external
     643                      .global _addr
     644 000332               .bss    _addr,1,0,0
     645              $C$DW$100       .dwtag  DW_TAG_variable, DW_AT_name("addr")
     646                      .dwattr $C$DW$100, DW_AT_TI_symbol_name("_addr")
     647                      .dwattr $C$DW$100, DW_AT_location[DW_OP_addr _addr]
     648                      .dwattr $C$DW$100, DW_AT_type(*$C$DW$T$19)
     649                      .dwattr $C$DW$100, DW_AT_external
TMS320C55x Assembler PC v4.4.1 Mon Aug 15 03:55:17 2016

Tools Copyright (c) 1996-2012 Texas Instruments Incorporated
usb.asm                                                              PAGE   13

     650                      .global _len
     651 000333               .bss    _len,1,0,0
     652              $C$DW$101       .dwtag  DW_TAG_variable, DW_AT_name("len")
     653                      .dwattr $C$DW$101, DW_AT_TI_symbol_name("_len")
     654                      .dwattr $C$DW$101, DW_AT_location[DW_OP_addr _len]
     655                      .dwattr $C$DW$101, DW_AT_type(*$C$DW$T$19)
     656                      .dwattr $C$DW$101, DW_AT_external
     657                      .global _sPtr
     658 000334               .bss    _sPtr,2,0,2
     659              $C$DW$102       .dwtag  DW_TAG_variable, DW_AT_name("sPtr")
     660                      .dwattr $C$DW$102, DW_AT_TI_symbol_name("_sPtr")
     661                      .dwattr $C$DW$102, DW_AT_location[DW_OP_addr _sPtr]
     662                      .dwattr $C$DW$102, DW_AT_type(*$C$DW$T$102)
     663                      .dwattr $C$DW$102, DW_AT_external
     664              ;       E:\ti\ccsv6\tools\compiler\c5500_4.4.1\bin\acp55.exe -@e:\\users\\john\\AppData\\Local\\Temp\\0543612
     665 000000               .sect   ".text"
     666                      .align 4
     667              
     668              $C$DW$103       .dwtag  DW_TAG_subprogram, DW_AT_name("USB_dmaRxStart")
     669                      .dwattr $C$DW$103, DW_AT_low_pc(_USB_dmaRxStart)
     670                      .dwattr $C$DW$103, DW_AT_high_pc(0x00)
     671                      .dwattr $C$DW$103, DW_AT_TI_symbol_name("_USB_dmaRxStart")
     672                      .dwattr $C$DW$103, DW_AT_TI_begin_file("F:/eZDSP_5535_Files/ccsws2/test/c5535_bsl_revc/ezdsp5535_v1/c
     673                      .dwattr $C$DW$103, DW_AT_TI_begin_line(0x180)
     674                      .dwattr $C$DW$103, DW_AT_TI_begin_column(0x06)
     675                      .dwattr $C$DW$103, DW_AT_TI_max_frame_size(0x04)
     676                      .dwpsn  file "F:/eZDSP_5535_Files/ccsws2/test/c5535_bsl_revc/ezdsp5535_v1/c55xx_csl/inc/csl_usbAux.h"
     677              
     678                      .dwfde $C$DW$CIE, _USB_dmaRxStart
     679              $C$DW$104       .dwtag  DW_TAG_formal_parameter, DW_AT_name("dwEndpoint")
     680                      .dwattr $C$DW$104, DW_AT_TI_symbol_name("_dwEndpoint")
     681                      .dwattr $C$DW$104, DW_AT_type(*$C$DW$T$88)
     682                      .dwattr $C$DW$104, DW_AT_location[DW_OP_reg0]
     683              ;*******************************************************************************
     684              ;* FUNCTION NAME: USB_dmaRxStart                                               *
     685              ;*                                                                             *
     686              ;*   Function Uses Regs : AC0,AC0,T0,AR1,AR3,SP,M40,SATA,SATD,RDM,FRCT,SMUL    *
     687              ;*   Stack Frame        : Compact (No Frame Pointer, w/ debug)                 *
     688              ;*   Total Frame Size   : 4 words                                              *
     689              ;*                        (1 return address/alignment)                         *
     690              ;*                        (3 local values)                                     *
     691              ;*   Min System Stack   : 1 word                                               *
     692              ;*******************************************************************************
     693 000000       _USB_dmaRxStart:
     694                      .dwcfi  cfa_offset, 1
     695                      .dwcfi  save_reg_to_mem, 91, -1
     696 000000 4EFD          AADD #-3, SP
     697                      .dwcfi  cfa_offset, 4
     698              $C$DW$105       .dwtag  DW_TAG_variable, DW_AT_name("dwEndpoint")
     699                      .dwattr $C$DW$105, DW_AT_TI_symbol_name("_dwEndpoint")
     700                      .dwattr $C$DW$105, DW_AT_type(*$C$DW$T$88)
     701                      .dwattr $C$DW$105, DW_AT_location[DW_OP_bregx 0x24 0]
     702              $C$DW$106       .dwtag  DW_TAG_variable, DW_AT_name("saveIndex")
     703                      .dwattr $C$DW$106, DW_AT_TI_symbol_name("_saveIndex")
     704                      .dwattr $C$DW$106, DW_AT_type(*$C$DW$T$19)
TMS320C55x Assembler PC v4.4.1 Mon Aug 15 03:55:17 2016

Tools Copyright (c) 1996-2012 Texas Instruments Incorporated
usb.asm                                                              PAGE   14

     705                      .dwattr $C$DW$106, DW_AT_location[DW_OP_bregx 0x24 2]
     706 000002 EB00          MOV AC0, dbl(*SP(#0)) ; |385| 
         000004 08   
     707                      .dwpsn  file "F:/eZDSP_5535_Files/ccsws2/test/c5535_bsl_revc/ezdsp5535_v1/c55xx_csl/inc/csl_usbAux.h"
     708 000005 7604          MOV #1038, T0 ; |389| 
         000007 0E48 
     709 000009 AB31          MOV *(#_usbRegisters), AR3 ; |389| 
         00000b 0000 
         00000d 00!  
     710 00000e A96B          MOV port(*AR3(T0)), AR1 ; |389| 
         000010 99   
     711 000011 C904          MOV AR1, *SP(#2) ; |389| 
     712                      .dwpsn  file "F:/eZDSP_5535_Files/ccsws2/test/c5535_bsl_revc/ezdsp5535_v1/c55xx_csl/inc/csl_usbAux.h"
     713 000013 F46B          AND #0xfff0, port(*AR3(T0)) ; |392| 
         000015 FFF0 
         000017 9A   
     714                      .dwpsn  file "F:/eZDSP_5535_Files/ccsws2/test/c5535_bsl_revc/ezdsp5535_v1/c55xx_csl/inc/csl_usbAux.h"
     715 000018 AB31          MOV *(#_usbRegisters), AR3 ; |393| 
         00001a 0000 
         00001c 00!  
     716 00001d ED00          MOV dbl(*SP(#0)), AC0 ; |393| 
         00001f 08   
     717 000020 DA6B          OR port(*AR3(T0)), AC0, AC0 ; |393| 
         000022 00   
         000023 99   
     718 000024 C06B          MOV AC0, port(*AR3(T0)) ; |393| 
         000026 9A   
     719                      .dwpsn  file "F:/eZDSP_5535_Files/ccsws2/test/c5535_bsl_revc/ezdsp5535_v1/c55xx_csl/inc/csl_usbAux.h"
     720 000027 7604          MOV #1046, T0 ; |396| 
         000029 1648 
     721 00002b AB31          MOV *(#_usbRegisters), AR3 ; |396| 
         00002d 0000 
         00002f 00!  
     722 000030 F46B          AND #0x6fff, port(*AR3(T0)) ; |396| 
         000032 6FFF 
         000034 9A   
     723                      .dwpsn  file "F:/eZDSP_5535_Files/ccsws2/test/c5535_bsl_revc/ezdsp5535_v1/c55xx_csl/inc/csl_usbAux.h"
     724 000035 AB31          MOV *(#_usbRegisters), AR3 ; |399| 
         000037 0000 
         000039 00!  
     725 00003a F56B          OR #0x2000, port(*AR3(T0)) ; |399| 
         00003c 2000 
         00003e 9A   
     726                      .dwpsn  file "F:/eZDSP_5535_Files/ccsws2/test/c5535_bsl_revc/ezdsp5535_v1/c55xx_csl/inc/csl_usbAux.h"
     727 00003f 7604          MOV #1038, T0 ; |402| 
         000041 0E48 
     728 000043 AB31          MOV *(#_usbRegisters), AR3 ; |402| 
         000045 0000 
         000047 00!  
     729 000048 A904          MOV *SP(#2), AR1 ; |402| 
     730 00004a C96B          MOV AR1, port(*AR3(T0)) ; |402| 
         00004c 9A   
     731                      .dwpsn  file "F:/eZDSP_5535_Files/ccsws2/test/c5535_bsl_revc/ezdsp5535_v1/c55xx_csl/inc/csl_usbAux.h"
     732 00004d 4E03          AADD #3, SP
     733                      .dwcfi  cfa_offset, 1
TMS320C55x Assembler PC v4.4.1 Mon Aug 15 03:55:17 2016

Tools Copyright (c) 1996-2012 Texas Instruments Incorporated
usb.asm                                                              PAGE   15

     734              $C$DW$107       .dwtag  DW_TAG_TI_branch
     735                      .dwattr $C$DW$107, DW_AT_low_pc(0x00)
     736                      .dwattr $C$DW$107, DW_AT_TI_return
     737 00004f 4804          RET
     738                                                      ; return occurs
     739                      .dwattr $C$DW$103, DW_AT_TI_end_file("F:/eZDSP_5535_Files/ccsws2/test/c5535_bsl_revc/ezdsp5535_v1/c55
     740                      .dwattr $C$DW$103, DW_AT_TI_end_line(0x193)
     741                      .dwattr $C$DW$103, DW_AT_TI_end_column(0x01)
     742                      .dwendentry
     743                      .dwendtag $C$DW$103
     744              
     745 000051               .sect   ".text"
     746                      .align 4
     747              
     748              $C$DW$108       .dwtag  DW_TAG_subprogram, DW_AT_name("USB_dmaTxStart")
     749                      .dwattr $C$DW$108, DW_AT_low_pc(_USB_dmaTxStart)
     750                      .dwattr $C$DW$108, DW_AT_high_pc(0x00)
     751                      .dwattr $C$DW$108, DW_AT_TI_symbol_name("_USB_dmaTxStart")
     752                      .dwattr $C$DW$108, DW_AT_TI_begin_file("F:/eZDSP_5535_Files/ccsws2/test/c5535_bsl_revc/ezdsp5535_v1/c
     753                      .dwattr $C$DW$108, DW_AT_TI_begin_line(0x2da)
     754                      .dwattr $C$DW$108, DW_AT_TI_begin_column(0x06)
     755                      .dwattr $C$DW$108, DW_AT_TI_max_frame_size(0x04)
     756                      .dwpsn  file "F:/eZDSP_5535_Files/ccsws2/test/c5535_bsl_revc/ezdsp5535_v1/c55xx_csl/inc/csl_usbAux.h"
     757              
     758                      .dwfde $C$DW$CIE, _USB_dmaTxStart
     759              $C$DW$109       .dwtag  DW_TAG_formal_parameter, DW_AT_name("dwEndpoint")
     760                      .dwattr $C$DW$109, DW_AT_TI_symbol_name("_dwEndpoint")
     761                      .dwattr $C$DW$109, DW_AT_type(*$C$DW$T$88)
     762                      .dwattr $C$DW$109, DW_AT_location[DW_OP_reg0]
     763              ;*******************************************************************************
     764              ;* FUNCTION NAME: USB_dmaTxStart                                               *
     765              ;*                                                                             *
     766              ;*   Function Uses Regs : AC0,AC0,T0,AR1,AR3,SP,M40,SATA,SATD,RDM,FRCT,SMUL    *
     767              ;*   Stack Frame        : Compact (No Frame Pointer, w/ debug)                 *
     768              ;*   Total Frame Size   : 4 words                                              *
     769              ;*                        (1 return address/alignment)                         *
     770              ;*                        (3 local values)                                     *
     771              ;*   Min System Stack   : 1 word                                               *
     772              ;*******************************************************************************
     773 000054       _USB_dmaTxStart:
     774                      .dwcfi  cfa_offset, 1
     775                      .dwcfi  save_reg_to_mem, 91, -1
     776 000054 4EFD          AADD #-3, SP
     777                      .dwcfi  cfa_offset, 4
     778              $C$DW$110       .dwtag  DW_TAG_variable, DW_AT_name("dwEndpoint")
     779                      .dwattr $C$DW$110, DW_AT_TI_symbol_name("_dwEndpoint")
     780                      .dwattr $C$DW$110, DW_AT_type(*$C$DW$T$88)
     781                      .dwattr $C$DW$110, DW_AT_location[DW_OP_bregx 0x24 0]
     782              $C$DW$111       .dwtag  DW_TAG_variable, DW_AT_name("saveIndex")
     783                      .dwattr $C$DW$111, DW_AT_TI_symbol_name("_saveIndex")
     784                      .dwattr $C$DW$111, DW_AT_type(*$C$DW$T$19)
     785                      .dwattr $C$DW$111, DW_AT_location[DW_OP_bregx 0x24 2]
     786 000056 EB00          MOV AC0, dbl(*SP(#0)) ; |731| 
         000058 08   
     787                      .dwpsn  file "F:/eZDSP_5535_Files/ccsws2/test/c5535_bsl_revc/ezdsp5535_v1/c55xx_csl/inc/csl_usbAux.h"
TMS320C55x Assembler PC v4.4.1 Mon Aug 15 03:55:17 2016

Tools Copyright (c) 1996-2012 Texas Instruments Incorporated
usb.asm                                                              PAGE   16

     788 000059 7604          MOV #1038, T0 ; |735| 
         00005b 0E48 
     789 00005d AB31          MOV *(#_usbRegisters), AR3 ; |735| 
         00005f 0000 
         000061 00!  
     790 000062 A96B          MOV port(*AR3(T0)), AR1 ; |735| 
         000064 99   
     791 000065 C904          MOV AR1, *SP(#2) ; |735| 
     792                      .dwpsn  file "F:/eZDSP_5535_Files/ccsws2/test/c5535_bsl_revc/ezdsp5535_v1/c55xx_csl/inc/csl_usbAux.h"
     793 000067 F46B          AND #0xfff0, port(*AR3(T0)) ; |738| 
         000069 FFF0 
         00006b 9A   
     794                      .dwpsn  file "F:/eZDSP_5535_Files/ccsws2/test/c5535_bsl_revc/ezdsp5535_v1/c55xx_csl/inc/csl_usbAux.h"
     795 00006c AB31          MOV *(#_usbRegisters), AR3 ; |739| 
         00006e 0000 
         000070 00!  
     796 000071 ED00          MOV dbl(*SP(#0)), AC0 ; |739| 
         000073 08   
     797 000074 DA6B          OR port(*AR3(T0)), AC0, AC0 ; |739| 
         000076 00   
         000077 99   
     798 000078 C06B          MOV AC0, port(*AR3(T0)) ; |739| 
         00007a 9A   
     799                      .dwpsn  file "F:/eZDSP_5535_Files/ccsws2/test/c5535_bsl_revc/ezdsp5535_v1/c55xx_csl/inc/csl_usbAux.h"
     800 00007b 7604          MOV #1042, T0 ; |742| 
         00007d 1248 
     801 00007f AB31          MOV *(#_usbRegisters), AR3 ; |742| 
         000081 0000 
         000083 00!  
     802 000084 A96B          MOV port(*AR3(T0)), AR1 ; |742| 
         000086 99   
     803 000087 EC06          BCLR @#3, AR1 ; |742| 
         000089 92   
     804 00008a EC06          BSET @#3, AR1 ; |742| 
         00008c 90   
     805 00008d C96B          MOV AR1, port(*AR3(T0)) ; |742| 
         00008f 9A   
     806                      .dwpsn  file "F:/eZDSP_5535_Files/ccsws2/test/c5535_bsl_revc/ezdsp5535_v1/c55xx_csl/inc/csl_usbAux.h"
     807 000090 AB31          MOV *(#_usbRegisters), AR3 ; |745| 
         000092 0000 
         000094 00!  
     808 000095 F46B          AND #0x7fff, port(*AR3(T0)) ; |745| 
         000097 7FFF 
         000099 9A   
     809                      .dwpsn  file "F:/eZDSP_5535_Files/ccsws2/test/c5535_bsl_revc/ezdsp5535_v1/c55xx_csl/inc/csl_usbAux.h"
     810 00009a AB31          MOV *(#_usbRegisters), AR3 ; |746| 
         00009c 0000 
         00009e 00!  
     811 00009f F56B          OR #0x1000, port(*AR3(T0)) ; |746| 
         0000a1 1000 
         0000a3 9A   
     812                      .dwpsn  file "F:/eZDSP_5535_Files/ccsws2/test/c5535_bsl_revc/ezdsp5535_v1/c55xx_csl/inc/csl_usbAux.h"
     813 0000a4 AB31          MOV *(#_usbRegisters), AR3 ; |749| 
         0000a6 0000 
         0000a8 00!  
TMS320C55x Assembler PC v4.4.1 Mon Aug 15 03:55:17 2016

Tools Copyright (c) 1996-2012 Texas Instruments Incorporated
usb.asm                                                              PAGE   17

     814 0000a9 F56B          OR #0x1000, port(*AR3(T0)) ; |749| 
         0000ab 1000 
         0000ad 9A   
     815                      .dwpsn  file "F:/eZDSP_5535_Files/ccsws2/test/c5535_bsl_revc/ezdsp5535_v1/c55xx_csl/inc/csl_usbAux.h"
     816 0000ae 7604          MOV #1038, T0 ; |752| 
         0000b0 0E48 
     817 0000b2 AB31          MOV *(#_usbRegisters), AR3 ; |752| 
         0000b4 0000 
         0000b6 00!  
     818 0000b7 A904          MOV *SP(#2), AR1 ; |752| 
     819 0000b9 C96B          MOV AR1, port(*AR3(T0)) ; |752| 
         0000bb 9A   
     820                      .dwpsn  file "F:/eZDSP_5535_Files/ccsws2/test/c5535_bsl_revc/ezdsp5535_v1/c55xx_csl/inc/csl_usbAux.h"
     821 0000bc 4E03          AADD #3, SP
     822                      .dwcfi  cfa_offset, 1
     823              $C$DW$112       .dwtag  DW_TAG_TI_branch
     824                      .dwattr $C$DW$112, DW_AT_low_pc(0x00)
     825                      .dwattr $C$DW$112, DW_AT_TI_return
     826 0000be 4804          RET
     827                                                      ; return occurs
     828                      .dwattr $C$DW$108, DW_AT_TI_end_file("F:/eZDSP_5535_Files/ccsws2/test/c5535_bsl_revc/ezdsp5535_v1/c55
     829                      .dwattr $C$DW$108, DW_AT_TI_end_line(0x2f1)
     830                      .dwattr $C$DW$108, DW_AT_TI_end_column(0x01)
     831                      .dwendentry
     832                      .dwendtag $C$DW$108
     833              
     834 0000c0               .sect   ".text"
     835                      .align 4
     836              
     837              $C$DW$113       .dwtag  DW_TAG_subprogram, DW_AT_name("USB_processEP0Out")
     838                      .dwattr $C$DW$113, DW_AT_low_pc(_USB_processEP0Out)
     839                      .dwattr $C$DW$113, DW_AT_high_pc(0x00)
     840                      .dwattr $C$DW$113, DW_AT_TI_symbol_name("_USB_processEP0Out")
     841                      .dwattr $C$DW$113, DW_AT_type(*$C$DW$T$80)
     842                      .dwattr $C$DW$113, DW_AT_TI_begin_file("F:/eZDSP_5535_Files/ccsws2/test/c5535_bsl_revc/ezdsp5535_v1/c
     843                      .dwattr $C$DW$113, DW_AT_TI_begin_line(0x511)
     844                      .dwattr $C$DW$113, DW_AT_TI_begin_column(0x0c)
     845                      .dwattr $C$DW$113, DW_AT_TI_max_frame_size(0x0a)
     846                      .dwpsn  file "F:/eZDSP_5535_Files/ccsws2/test/c5535_bsl_revc/ezdsp5535_v1/c55xx_csl/inc/csl_usbAux.h"
     847              
     848                      .dwfde $C$DW$CIE, _USB_processEP0Out
     849              $C$DW$114       .dwtag  DW_TAG_formal_parameter, DW_AT_name("pContext")
     850                      .dwattr $C$DW$114, DW_AT_TI_symbol_name("_pContext")
     851                      .dwattr $C$DW$114, DW_AT_type(*$C$DW$T$146)
     852                      .dwattr $C$DW$114, DW_AT_location[DW_OP_reg17]
     853              ;*******************************************************************************
     854              ;* FUNCTION NAME: USB_processEP0Out                                            *
     855              ;*                                                                             *
     856              ;*   Function Uses Regs : AC0,AC0,AC1,AC1,T0,AR0,XAR0,AR1,XAR1,AR2,XAR2,AR3,   *
     857              ;*                        XAR3,SP,CARRY,TC1,M40,SATA,SATD,RDM,FRCT,SMUL        *
     858              ;*   Stack Frame        : Compact (No Frame Pointer, w/ debug)                 *
     859              ;*   Total Frame Size   : 10 words                                             *
     860              ;*                        (1 return address/alignment)                         *
     861              ;*                        (9 local values)                                     *
     862              ;*   Min System Stack   : 1 word                                               *
TMS320C55x Assembler PC v4.4.1 Mon Aug 15 03:55:17 2016

Tools Copyright (c) 1996-2012 Texas Instruments Incorporated
usb.asm                                                              PAGE   18

     863              ;*******************************************************************************
     864 0000c0       _USB_processEP0Out:
     865                      .dwcfi  cfa_offset, 1
     866                      .dwcfi  save_reg_to_mem, 91, -1
     867 0000c0 4EF7          AADD #-9, SP
     868                      .dwcfi  cfa_offset, 10
     869              $C$DW$115       .dwtag  DW_TAG_variable, DW_AT_name("pContext")
     870                      .dwattr $C$DW$115, DW_AT_TI_symbol_name("_pContext")
     871                      .dwattr $C$DW$115, DW_AT_type(*$C$DW$T$146)
     872                      .dwattr $C$DW$115, DW_AT_location[DW_OP_bregx 0x24 0]
     873              $C$DW$116       .dwtag  DW_TAG_variable, DW_AT_name("peps")
     874                      .dwattr $C$DW$116, DW_AT_TI_symbol_name("_peps")
     875                      .dwattr $C$DW$116, DW_AT_type(*$C$DW$T$150)
     876                      .dwattr $C$DW$116, DW_AT_location[DW_OP_bregx 0x24 2]
     877              $C$DW$117       .dwtag  DW_TAG_variable, DW_AT_name("pTransfer")
     878                      .dwattr $C$DW$117, DW_AT_TI_symbol_name("_pTransfer")
     879                      .dwattr $C$DW$117, DW_AT_type(*$C$DW$T$152)
     880                      .dwattr $C$DW$117, DW_AT_location[DW_OP_bregx 0x24 4]
     881              $C$DW$118       .dwtag  DW_TAG_variable, DW_AT_name("pwBuffer")
     882                      .dwattr $C$DW$118, DW_AT_TI_symbol_name("_pwBuffer")
     883                      .dwattr $C$DW$118, DW_AT_type(*$C$DW$T$87)
     884                      .dwattr $C$DW$118, DW_AT_location[DW_OP_bregx 0x24 6]
     885              $C$DW$119       .dwtag  DW_TAG_variable, DW_AT_name("status")
     886                      .dwattr $C$DW$119, DW_AT_TI_symbol_name("_status")
     887                      .dwattr $C$DW$119, DW_AT_type(*$C$DW$T$80)
     888                      .dwattr $C$DW$119, DW_AT_location[DW_OP_bregx 0x24 8]
     889 0000c2 EB00          MOV XAR0, dbl(*SP(#0))
         0000c4 85   
     890                      .dwpsn  file "F:/eZDSP_5535_Files/ccsws2/test/c5535_bsl_revc/ezdsp5535_v1/c55xx_csl/inc/csl_usbAux.h"
     891 0000c5 E610          MOV #0, *SP(#8) ; |1304| 
         0000c7 00   
     892                      .dwpsn  file "F:/eZDSP_5535_Files/ccsws2/test/c5535_bsl_revc/ezdsp5535_v1/c55xx_csl/inc/csl_usbAux.h"
     893 0000c8 ED00          MOV dbl(*SP(#0)), XAR3
         0000ca BF   
     894 0000cb 90B0          MOV XAR3, AC0
     895 0000cd 6D00          BCC $C$L4,AC0 == #0 ; |1306| 
         0000cf 00A9 
     896                                                      ; branchcc occurs ; |1306| 
     897                      .dwpsn  file "F:/eZDSP_5535_Files/ccsws2/test/c5535_bsl_revc/ezdsp5535_v1/c55xx_csl/inc/csl_usbAux.h"
     898 0000d1 ED6D          MOV dbl(*AR3(#98)), XAR3
         0000d3 BF00 
         0000d5 62   
     899 0000d6 EB04          MOV XAR3, dbl(*SP(#2))
         0000d8 B5   
     900                      .dwpsn  file "F:/eZDSP_5535_Files/ccsws2/test/c5535_bsl_revc/ezdsp5535_v1/c55xx_csl/inc/csl_usbAux.h"
     901 0000d9 ED6D          MOV dbl(*AR3(#10)), XAR3
         0000db BF00 
         0000dd 0A   
     902 0000de EB08          MOV XAR3, dbl(*SP(#4))
         0000e0 B5   
     903                      .dwpsn  file "F:/eZDSP_5535_Files/ccsws2/test/c5535_bsl_revc/ezdsp5535_v1/c55xx_csl/inc/csl_usbAux.h"
     904 0000e1 90B0          MOV XAR3, AC0
     905 0000e3 6D00          BCC $C$L3,AC0 == #0 ; |1311| 
         0000e5 008E 
     906                                                      ; branchcc occurs ; |1311| 
TMS320C55x Assembler PC v4.4.1 Mon Aug 15 03:55:17 2016

Tools Copyright (c) 1996-2012 Texas Instruments Incorporated
usb.asm                                                              PAGE   19

     907 0000e7 A96D          MOV *AR3(#12), AR1 ; |1311| 
         0000e9 000C 
     908 0000eb 6D19          BCC $C$L3,AR1 != #0 ; |1311| 
         0000ed 0086 
     909                                                      ; branchcc occurs ; |1311| 
     910                      .dwpsn  file "F:/eZDSP_5535_Files/ccsws2/test/c5535_bsl_revc/ezdsp5535_v1/c55xx_csl/inc/csl_usbAux.h"
     911 0000ef ED6D          MOV dbl(*AR3(#8)), AC0 ; |1314| 
         0000f1 0800 
         0000f3 08   
     912 0000f4 ED79          MOV dbl(*AR3(short(#4))), XAR3
         0000f6 BF   
     913 0000f7 5001          SFTL AC0, #-1 ; |1314| 
     914 0000f9 2209          MOV AC0, AR1 ; |1314| 
     915              
     916 0000fb 8E0C          MOV XAR3, dbl(*SP(#6))
         0000fd BB10 
         0000ff B590 
     917              ||      AADD AR1, AR3 ; |1314| 
     918              
     919                      .dwpsn  file "F:/eZDSP_5535_Files/ccsws2/test/c5535_bsl_revc/ezdsp5535_v1/c55xx_csl/inc/csl_usbAux.h"
     920 000101 ED08          MOV dbl(*SP(#4)), XAR3
         000103 BF   
     921 000104 ED7D          MOV dbl(*AR3(short(#6))), AC0 ; |1323| 
         000106 08   
     922 000107 ED00          MOV dbl(*SP(#0)), XAR3
         000109 BF   
     923 00010a DF6D          MOV uns(*AR3(#24)), AC1 ; |1323| 
         00010c 1500 
         00010e 18   
     924 00010f 1218          CMPU AC1 >= AC0, TC1 ; |1323| 
         000111 04   
     925 000112 63E4          BCC $C$L1,TC1 ; |1323| 
     926                                                      ; branchcc occurs ; |1323| 
     927 000114 DF6D          MOV uns(*AR3(#24)), AC0 ; |1323| 
         000116 0500 
         000118 18   
     928 000119 4A06          B $C$L2   ; |1323| 
     929                                                      ; branch occurs ; |1323| 
     930 00011b       $C$L1:    
     931 00011b ED08          MOV dbl(*SP(#4)), XAR3
         00011d BF   
     932 00011e ED7D          MOV dbl(*AR3(short(#6))), AC0 ; |1323| 
         000120 08   
     933 000121       $C$L2:    
     934 000121 ED08          MOV dbl(*SP(#4)), XAR3
         000123 BF   
     935 000124 EB6D          MOV AC0, dbl(*AR3(#8)) ; |1323| 
         000126 0800 
         000128 08   
     936                      .dwpsn  file "F:/eZDSP_5535_Files/ccsws2/test/c5535_bsl_revc/ezdsp5535_v1/c55xx_csl/inc/csl_usbAux.h"
     937 000129 ED08          MOV dbl(*SP(#4)), XAR3
         00012b BF   
     938 00012c ED00          MOV dbl(*SP(#0)), XAR1
         00012e 9F   
     939 00012f ED0C          MOV dbl(*SP(#6)), XAR0
TMS320C55x Assembler PC v4.4.1 Mon Aug 15 03:55:17 2016

Tools Copyright (c) 1996-2012 Texas Instruments Incorporated
usb.asm                                                              PAGE   20

         000131 8F   
     940 000132 ED6D          MOV dbl(*AR3(#8)), AC0 ; |1326| 
         000134 0800 
         000136 08   
     941 000137 4010          ADD #1, AC0 ; |1326| 
     942              
     943 00013c 5101          SFTL AC0, #-1 ; |1326| 
     944 000139 141A  ||      AADD #26, AR1 ; |1326| 
         00013b 94   
     945              
     946              $C$DW$120       .dwtag  DW_TAG_TI_branch
     947                      .dwattr $C$DW$120, DW_AT_low_pc(0x00)
     948                      .dwattr $C$DW$120, DW_AT_name("_memcpy")
     949                      .dwattr $C$DW$120, DW_AT_TI_call
     950              
     951 00013e 6C00          CALL #_memcpy ; |1326| 
         000140 0000!
     952 000142 2304  ||      MOV AC0, T0 ; |1326| 
     953              
     954                                                      ; call occurs [#_memcpy] ; |1326| 
     955                      .dwpsn  file "F:/eZDSP_5535_Files/ccsws2/test/c5535_bsl_revc/ezdsp5535_v1/c55xx_csl/inc/csl_usbAux.h"
     956 000144 ED00          MOV dbl(*SP(#0)), XAR3
         000146 BF   
     957 000147 E679          MOV #0, *AR3(short(#4)) ; |1329| 
         000149 00   
     958                      .dwpsn  file "F:/eZDSP_5535_Files/ccsws2/test/c5535_bsl_revc/ezdsp5535_v1/c55xx_csl/inc/csl_usbAux.h"
     959 00014a ED08          MOV dbl(*SP(#4)), XAR3
         00014c BF   
     960 00014d E66D          MOV #1, *AR3(#12) ; |1330| 
         00014f 0100 
         000151 0C   
     961                      .dwpsn  file "F:/eZDSP_5535_Files/ccsws2/test/c5535_bsl_revc/ezdsp5535_v1/c55xx_csl/inc/csl_usbAux.h"
     962 000152 ED08          MOV dbl(*SP(#4)), XAR2
         000154 AF   
     963 000155 ED08          MOV dbl(*SP(#4)), XAR3
         000157 BF   
     964              
     965 000158 1408          AADD #8, AR3 ; |1331| 
         00015a B4   
     966 00015b 150A  ||      AADD #10, AR2 ; |1331| 
         00015d AC   
     967              
     968 00015e 8061          MOV dbl(*AR3), dbl(*AR2) ; |1331| 
         000160 00   
     969                      .dwpsn  file "F:/eZDSP_5535_Files/ccsws2/test/c5535_bsl_revc/ezdsp5535_v1/c55xx_csl/inc/csl_usbAux.h"
     970 000161 ED00          MOV dbl(*SP(#0)), XAR3
         000163 BF   
     971 000164 ED00          MOV dbl(*SP(#0)), XAR0
         000166 8F   
     972 000167 ED04          MOV dbl(*SP(#2)), XAR1
         000169 9F   
     973 00016a ED6D          MOV dbl(*AR3(#116)), AC0 ; |1337| 
         00016c 0800 
         00016e 74   
     974              $C$DW$121       .dwtag  DW_TAG_TI_branch
TMS320C55x Assembler PC v4.4.1 Mon Aug 15 03:55:17 2016

Tools Copyright (c) 1996-2012 Texas Instruments Incorporated
usb.asm                                                              PAGE   21

     975                      .dwattr $C$DW$121, DW_AT_low_pc(0x00)
     976                      .dwattr $C$DW$121, DW_AT_TI_call
     977                      .dwattr $C$DW$121, DW_AT_TI_indirect
     978 00016f 9200          CALL AC0  ; |1337| 
     979                                                      ; call occurs [AC0] ; |1337| 
     980 000171 C410          MOV T0, *SP(#8) ; |1337| 
     981                      .dwpsn  file "F:/eZDSP_5535_Files/ccsws2/test/c5535_bsl_revc/ezdsp5535_v1/c55xx_csl/inc/csl_usbAux.h"
     982 000173 4A08          B $C$L5   ; |1338| 
     983                                                      ; branch occurs ; |1338| 
     984 000175       $C$L3:    
     985                      .dwpsn  file "F:/eZDSP_5535_Files/ccsws2/test/c5535_bsl_revc/ezdsp5535_v1/c55xx_csl/inc/csl_usbAux.h"
     986 000175 E610          MOV #-6, *SP(#8) ; |1341| 
         000177 FA   
     987                      .dwpsn  file "F:/eZDSP_5535_Files/ccsws2/test/c5535_bsl_revc/ezdsp5535_v1/c55xx_csl/inc/csl_usbAux.h"
     988 000178 4A03          B $C$L5   ; |1343| 
     989                                                      ; branch occurs ; |1343| 
     990 00017a       $C$L4:    
     991                      .dwpsn  file "F:/eZDSP_5535_Files/ccsws2/test/c5535_bsl_revc/ezdsp5535_v1/c55xx_csl/inc/csl_usbAux.h"
     992 00017a E610          MOV #-6, *SP(#8) ; |1346| 
         00017c FA   
     993 00017d       $C$L5:    
     994                      .dwpsn  file "F:/eZDSP_5535_Files/ccsws2/test/c5535_bsl_revc/ezdsp5535_v1/c55xx_csl/inc/csl_usbAux.h"
     995 00017d A410          MOV *SP(#8), T0 ; |1348| 
     996                      .dwpsn  file "F:/eZDSP_5535_Files/ccsws2/test/c5535_bsl_revc/ezdsp5535_v1/c55xx_csl/inc/csl_usbAux.h"
     997 00017f 4E09          AADD #9, SP
     998                      .dwcfi  cfa_offset, 1
     999              $C$DW$122       .dwtag  DW_TAG_TI_branch
    1000                      .dwattr $C$DW$122, DW_AT_low_pc(0x00)
    1001                      .dwattr $C$DW$122, DW_AT_TI_return
    1002 000181 4804          RET
    1003                                                      ; return occurs
    1004                      .dwattr $C$DW$113, DW_AT_TI_end_file("F:/eZDSP_5535_Files/ccsws2/test/c5535_bsl_revc/ezdsp5535_v1/c55
    1005                      .dwattr $C$DW$113, DW_AT_TI_end_line(0x545)
    1006                      .dwattr $C$DW$113, DW_AT_TI_end_column(0x01)
    1007                      .dwendentry
    1008                      .dwendtag $C$DW$113
    1009              
    1010 000183               .sect   ".text"
    1011                      .align 4
    1012              
    1013              $C$DW$123       .dwtag  DW_TAG_subprogram, DW_AT_name("USB_processEP0In")
    1014                      .dwattr $C$DW$123, DW_AT_low_pc(_USB_processEP0In)
    1015                      .dwattr $C$DW$123, DW_AT_high_pc(0x00)
    1016                      .dwattr $C$DW$123, DW_AT_TI_symbol_name("_USB_processEP0In")
    1017                      .dwattr $C$DW$123, DW_AT_type(*$C$DW$T$80)
    1018                      .dwattr $C$DW$123, DW_AT_TI_begin_file("F:/eZDSP_5535_Files/ccsws2/test/c5535_bsl_revc/ezdsp5535_v1/c
    1019                      .dwattr $C$DW$123, DW_AT_TI_begin_line(0x576)
    1020                      .dwattr $C$DW$123, DW_AT_TI_begin_column(0x0c)
    1021                      .dwattr $C$DW$123, DW_AT_TI_max_frame_size(0x12)
    1022                      .dwpsn  file "F:/eZDSP_5535_Files/ccsws2/test/c5535_bsl_revc/ezdsp5535_v1/c55xx_csl/inc/csl_usbAux.h"
    1023              
    1024                      .dwfde $C$DW$CIE, _USB_processEP0In
    1025              $C$DW$124       .dwtag  DW_TAG_formal_parameter, DW_AT_name("pContext")
    1026                      .dwattr $C$DW$124, DW_AT_TI_symbol_name("_pContext")
    1027                      .dwattr $C$DW$124, DW_AT_type(*$C$DW$T$146)
TMS320C55x Assembler PC v4.4.1 Mon Aug 15 03:55:17 2016

Tools Copyright (c) 1996-2012 Texas Instruments Incorporated
usb.asm                                                              PAGE   22

    1028                      .dwattr $C$DW$124, DW_AT_location[DW_OP_reg17]
    1029              ;*******************************************************************************
    1030              ;* FUNCTION NAME: USB_processEP0In                                             *
    1031              ;*                                                                             *
    1032              ;*   Function Uses Regs : AC0,AC0,AC1,AC1,T0,AR0,XAR0,AR1,XAR1,AR2,AR3,XAR3,   *
    1033              ;*                        AR4,SP,CARRY,TC1,M40,SATA,SATD,RDM,FRCT,SMUL         *
    1034              ;*   Stack Frame        : Compact (No Frame Pointer, w/ debug)                 *
    1035              ;*   Total Frame Size   : 18 words                                             *
    1036              ;*                        (2 return address/alignment)                         *
    1037              ;*                        (16 local values)                                    *
    1038              ;*   Min System Stack   : 1 word                                               *
    1039              ;*******************************************************************************
    1040 000184       _USB_processEP0In:
    1041                      .dwcfi  cfa_offset, 1
    1042                      .dwcfi  save_reg_to_mem, 91, -1
    1043 000184 4EEF          AADD #-17, SP
    1044                      .dwcfi  cfa_offset, 18
    1045              $C$DW$125       .dwtag  DW_TAG_variable, DW_AT_name("pContext")
    1046                      .dwattr $C$DW$125, DW_AT_TI_symbol_name("_pContext")
    1047                      .dwattr $C$DW$125, DW_AT_type(*$C$DW$T$146)
    1048                      .dwattr $C$DW$125, DW_AT_location[DW_OP_bregx 0x24 0]
    1049              $C$DW$126       .dwtag  DW_TAG_variable, DW_AT_name("peps")
    1050                      .dwattr $C$DW$126, DW_AT_TI_symbol_name("_peps")
    1051                      .dwattr $C$DW$126, DW_AT_type(*$C$DW$T$150)
    1052                      .dwattr $C$DW$126, DW_AT_location[DW_OP_bregx 0x24 2]
    1053              $C$DW$127       .dwtag  DW_TAG_variable, DW_AT_name("pTransfer")
    1054                      .dwattr $C$DW$127, DW_AT_TI_symbol_name("_pTransfer")
    1055                      .dwattr $C$DW$127, DW_AT_type(*$C$DW$T$152)
    1056                      .dwattr $C$DW$127, DW_AT_location[DW_OP_bregx 0x24 4]
    1057              $C$DW$128       .dwtag  DW_TAG_variable, DW_AT_name("status")
    1058                      .dwattr $C$DW$128, DW_AT_TI_symbol_name("_status")
    1059                      .dwattr $C$DW$128, DW_AT_type(*$C$DW$T$80)
    1060                      .dwattr $C$DW$128, DW_AT_location[DW_OP_bregx 0x24 6]
    1061              $C$DW$129       .dwtag  DW_TAG_variable, DW_AT_name("pwBuffer")
    1062                      .dwattr $C$DW$129, DW_AT_TI_symbol_name("_pwBuffer")
    1063                      .dwattr $C$DW$129, DW_AT_type(*$C$DW$T$195)
    1064                      .dwattr $C$DW$129, DW_AT_location[DW_OP_bregx 0x24 8]
    1065              $C$DW$130       .dwtag  DW_TAG_variable, DW_AT_name("cbBuffer")
    1066                      .dwattr $C$DW$130, DW_AT_TI_symbol_name("_cbBuffer")
    1067                      .dwattr $C$DW$130, DW_AT_type(*$C$DW$T$88)
    1068                      .dwattr $C$DW$130, DW_AT_location[DW_OP_bregx 0x24 10]
    1069              $C$DW$131       .dwtag  DW_TAG_variable, DW_AT_name("cbToWrite")
    1070                      .dwattr $C$DW$131, DW_AT_TI_symbol_name("_cbToWrite")
    1071                      .dwattr $C$DW$131, DW_AT_type(*$C$DW$T$85)
    1072                      .dwattr $C$DW$131, DW_AT_location[DW_OP_bregx 0x24 12]
    1073              $C$DW$132       .dwtag  DW_TAG_variable, DW_AT_name("count")
    1074                      .dwattr $C$DW$132, DW_AT_TI_symbol_name("_count")
    1075                      .dwattr $C$DW$132, DW_AT_type(*$C$DW$T$19)
    1076                      .dwattr $C$DW$132, DW_AT_location[DW_OP_bregx 0x24 13]
    1077              $C$DW$133       .dwtag  DW_TAG_variable, DW_AT_name("flag")
    1078                      .dwattr $C$DW$133, DW_AT_TI_symbol_name("_flag")
    1079                      .dwattr $C$DW$133, DW_AT_type(*$C$DW$T$19)
    1080                      .dwattr $C$DW$133, DW_AT_location[DW_OP_bregx 0x24 14]
    1081              $C$DW$134       .dwtag  DW_TAG_variable, DW_AT_name("saveIndex")
    1082                      .dwattr $C$DW$134, DW_AT_TI_symbol_name("_saveIndex")
TMS320C55x Assembler PC v4.4.1 Mon Aug 15 03:55:17 2016

Tools Copyright (c) 1996-2012 Texas Instruments Incorporated
usb.asm                                                              PAGE   23

    1083                      .dwattr $C$DW$134, DW_AT_type(*$C$DW$T$19)
    1084                      .dwattr $C$DW$134, DW_AT_location[DW_OP_bregx 0x24 15]
    1085 000186 EB00          MOV XAR0, dbl(*SP(#0))
         000188 85   
    1086                      .dwpsn  file "F:/eZDSP_5535_Files/ccsws2/test/c5535_bsl_revc/ezdsp5535_v1/c55xx_csl/inc/csl_usbAux.h"
    1087 000189 E61C          MOV #0, *SP(#14) ; |1410| 
         00018b 00   
    1088                      .dwpsn  file "F:/eZDSP_5535_Files/ccsws2/test/c5535_bsl_revc/ezdsp5535_v1/c55xx_csl/inc/csl_usbAux.h"
    1089 00018c E60C          MOV #0, *SP(#6) ; |1411| 
         00018e 00   
    1090                      .dwpsn  file "F:/eZDSP_5535_Files/ccsws2/test/c5535_bsl_revc/ezdsp5535_v1/c55xx_csl/inc/csl_usbAux.h"
    1091 00018f ED00          MOV dbl(*SP(#0)), XAR3
         000191 BF   
    1092 000192 90B0          MOV XAR3, AC0
    1093 000194 6D00          BCC $C$L18,AC0 == #0 ; |1413| 
         000196 01BF 
    1094                                                      ; branchcc occurs ; |1413| 
    1095                      .dwpsn  file "F:/eZDSP_5535_Files/ccsws2/test/c5535_bsl_revc/ezdsp5535_v1/c55xx_csl/inc/csl_usbAux.h"
    1096 000198 ED6D          MOV dbl(*AR3(#98)), XAR3
         00019a BF00 
         00019c 62   
    1097 00019d EB04          MOV XAR3, dbl(*SP(#2))
         00019f B5   
    1098                      .dwpsn  file "F:/eZDSP_5535_Files/ccsws2/test/c5535_bsl_revc/ezdsp5535_v1/c55xx_csl/inc/csl_usbAux.h"
    1099 0001a0 ED6D          MOV dbl(*AR3(#10)), XAR3
         0001a2 BF00 
         0001a4 0A   
    1100 0001a5 EB08          MOV XAR3, dbl(*SP(#4))
         0001a7 B5   
    1101                      .dwpsn  file "F:/eZDSP_5535_Files/ccsws2/test/c5535_bsl_revc/ezdsp5535_v1/c55xx_csl/inc/csl_usbAux.h"
    1102 0001a8 90B0          MOV XAR3, AC0
    1103 0001aa 6D00          BCC $C$L17,AC0 == #0 ; |1418| 
         0001ac 01A4 
    1104                                                      ; branchcc occurs ; |1418| 
    1105 0001ae A96D          MOV *AR3(#12), AR1 ; |1418| 
         0001b0 000C 
    1106 0001b2 6D19          BCC $C$L17,AR1 != #0 ; |1418| 
         0001b4 019C 
    1107                                                      ; branchcc occurs ; |1418| 
    1108                      .dwpsn  file "F:/eZDSP_5535_Files/ccsws2/test/c5535_bsl_revc/ezdsp5535_v1/c55xx_csl/inc/csl_usbAux.h"
    1109 0001b6 ED6D          MOV dbl(*AR3(#8)), AC0 ; |1421| 
         0001b8 0800 
         0001ba 08   
    1110 0001bb ED79          MOV dbl(*AR3(short(#4))), XAR3
         0001bd BF   
    1111 0001be 5001          SFTL AC0, #-1 ; |1421| 
    1112 0001c0 2209          MOV AC0, AR1 ; |1421| 
    1113              
    1114 0001c2 8E10          MOV XAR3, dbl(*SP(#8))
         0001c4 BB10 
         0001c6 B590 
    1115              ||      AADD AR1, AR3 ; |1421| 
    1116              
    1117                      .dwpsn  file "F:/eZDSP_5535_Files/ccsws2/test/c5535_bsl_revc/ezdsp5535_v1/c55xx_csl/inc/csl_usbAux.h"
    1118 0001c8 ED08          MOV dbl(*SP(#4)), XAR3
TMS320C55x Assembler PC v4.4.1 Mon Aug 15 03:55:17 2016

Tools Copyright (c) 1996-2012 Texas Instruments Incorporated
usb.asm                                                              PAGE   24

         0001ca BF   
    1119 0001cb ED6D          MOV dbl(*AR3(#8)), AC0 ; |1422| 
         0001cd 0800 
         0001cf 08   
    1120 0001d0 ED7D          SUB AC0, dbl(*AR3(short(#6))), AC0 ; |1422| 
         0001d2 04   
    1121 0001d3 EB14          MOV AC0, dbl(*SP(#10)) ; |1422| 
         0001d5 08   
    1122                      .dwpsn  file "F:/eZDSP_5535_Files/ccsws2/test/c5535_bsl_revc/ezdsp5535_v1/c55xx_csl/inc/csl_usbAux.h"
    1123 0001d6 ED04          MOV dbl(*SP(#2)), XAR3
         0001d8 BF   
    1124 0001d9 ED14          MOV dbl(*SP(#10)), AC1 ; |1430| 
         0001db 18   
    1125 0001dc ED79          MOV dbl(*AR3(short(#4))), AC0 ; |1430| 
         0001de 08   
    1126 0001df 1218          CMPU AC1 >= AC0, TC1 ; |1430| 
         0001e1 04   
    1127 0001e2 62E4          BCC $C$L6,TC1 ; |1430| 
    1128                                                      ; branchcc occurs ; |1430| 
    1129 0001e4 ED14          MOV dbl(*SP(#10)), AC0 ; |1430| 
         0001e6 08   
    1130 0001e7 4A03          B $C$L7   ; |1430| 
    1131                                                      ; branch occurs ; |1430| 
    1132 0001e9       $C$L6:    
    1133 0001e9 ED79          MOV dbl(*AR3(short(#4))), AC0 ; |1430| 
         0001eb 08   
    1134 0001ec       $C$L7:    
    1135 0001ec 7600          MOV #64, AR1 ; |1451| 
         0001ee 4098 
    1136              
    1137 0001f0 C018          MOV AC0, *SP(#12) ; |1430| 
    1138 0001f2 3D1A  ||      MOV #1, AR2
    1139              
    1140                      .dwpsn  file "F:/eZDSP_5535_Files/ccsws2/test/c5535_bsl_revc/ezdsp5535_v1/c55xx_csl/inc/csl_usbAux.h"
    1141 0001f4       $C$L8:    
    1142 0001f4       $C$DW$L$_USB_processEP0In$8$B:
    1143                      .dwpsn  file "F:/eZDSP_5535_Files/ccsws2/test/c5535_bsl_revc/ezdsp5535_v1/c55xx_csl/inc/csl_usbAux.h"
    1144 0001f4 E61A          MOV #0, *SP(#13) ; |1435| 
         0001f6 00   
    1145                      .dwpsn  file "F:/eZDSP_5535_Files/ccsws2/test/c5535_bsl_revc/ezdsp5535_v1/c55xx_csl/inc/csl_usbAux.h"
    1146 0001f7 AB18          MOV *SP(#12), AR3 ; |1435| 
    1147              
    1148 0001fb 51B1          SFTL AR3, #-1 ; |1435| 
    1149 0001f9 AC1A  ||      MOV *SP(#13), AR4 ; |1435| 
    1150              
    1151 0001fd 12C8          CMPU AR4 >= AR3, TC1 ; |1435| 
         0001ff B4   
    1152 000200 0464          BCC $C$L10,TC1 ; |1435| 
         000202 29   
    1153                                                      ; branchcc occurs ; |1435| 
    1154 000203       $C$DW$L$_USB_processEP0In$8$E:
    1155 000203       $C$L9:    
    1156 000203       $C$DW$L$_USB_processEP0In$9$B:
    1157                      .dwpsn  file "F:/eZDSP_5535_Files/ccsws2/test/c5535_bsl_revc/ezdsp5535_v1/c55xx_csl/inc/csl_usbAux.h"
    1158 000203 ED10          MOV dbl(*SP(#8)), XAR3
TMS320C55x Assembler PC v4.4.1 Mon Aug 15 03:55:17 2016

Tools Copyright (c) 1996-2012 Texas Instruments Incorporated
usb.asm                                                              PAGE   25

         000205 BF   
    1159 000206 7604          MOV #1057, T0 ; |1437| 
         000208 2148 
    1160 00020a AC61          MOV *AR3, AR4 ; |1437| 
    1161 00020c AB31          MOV *(#_usbRegisters), AR3 ; |1437| 
         00020e 0000 
         000210 00!  
    1162 000211 CC6B          MOV AR4, port(*AR3(T0)) ; |1437| 
         000213 9A   
    1163                      .dwpsn  file "F:/eZDSP_5535_Files/ccsws2/test/c5535_bsl_revc/ezdsp5535_v1/c55xx_csl/inc/csl_usbAux.h"
    1164 000214 ED10          MOV dbl(*SP(#8)), XAR3
         000216 BF   
    1165 000217 B463          AMAR *AR3+
    1166 000219 EB10          MOV XAR3, dbl(*SP(#8))
         00021b B5   
    1167                      .dwpsn  file "F:/eZDSP_5535_Files/ccsws2/test/c5535_bsl_revc/ezdsp5535_v1/c55xx_csl/inc/csl_usbAux.h"
    1168 00021c F71A          ADD #1, *SP(#13) ; |1435| 
         00021e 0001 
    1169                      .dwpsn  file "F:/eZDSP_5535_Files/ccsws2/test/c5535_bsl_revc/ezdsp5535_v1/c55xx_csl/inc/csl_usbAux.h"
    1170 000220 AB18          MOV *SP(#12), AR3 ; |1435| 
    1171              
    1172 000224 51B1          SFTL AR3, #-1 ; |1435| 
    1173 000222 AC1A  ||      MOV *SP(#13), AR4 ; |1435| 
    1174              
    1175 000226 12C4          CMPU AR4 < AR3, TC1 ; |1435| 
         000228 B4   
    1176 000229 0464          BCC $C$L9,TC1 ; |1435| 
         00022b D7   
    1177                                                      ; branchcc occurs ; |1435| 
    1178 00022c       $C$DW$L$_USB_processEP0In$9$E:
    1179 00022c       $C$L10:    
    1180 00022c       $C$DW$L$_USB_processEP0In$10$B:
    1181                      .dwpsn  file "F:/eZDSP_5535_Files/ccsws2/test/c5535_bsl_revc/ezdsp5535_v1/c55xx_csl/inc/csl_usbAux.h"
    1182 00022c AB18          MOV *SP(#12), AR3 ; |1441| 
    1183 00022e 1801          AND #0x0001, AR3, AR3 ; |1441| 
         000230 BB   
    1184 000231 12BC          CMPU AR3 != AR2, TC1 ; |1441| 
         000233 A4   
    1185 000234 0464          BCC $C$L11,TC1 ; |1441| 
         000236 44   
    1186                                                      ; branchcc occurs ; |1441| 
    1187 000237       $C$DW$L$_USB_processEP0In$10$E:
    1188 000237       $C$DW$L$_USB_processEP0In$11$B:
    1189                      .dwpsn  file "F:/eZDSP_5535_Files/ccsws2/test/c5535_bsl_revc/ezdsp5535_v1/c55xx_csl/inc/csl_usbAux.h"
    1190 000237 7600          MOV #50, T0 ; |1444| 
         000239 3248 
    1191 00023b AB31          MOV *(#_sysCtrlRegs), AR3 ; |1444| 
         00023d 0000 
         00023f 00!  
    1192 000240 AB6B          MOV port(*AR3(T0)), AR3 ; |1444| 
         000242 99   
    1193 000243 7DFF          AND #0xfffc, AR3, AC0 ; |1444| 
         000245 FC0B 
    1194 000247 AB31          MOV *(#_sysCtrlRegs), AR3 ; |1444| 
         000249 0000 
TMS320C55x Assembler PC v4.4.1 Mon Aug 15 03:55:17 2016

Tools Copyright (c) 1996-2012 Texas Instruments Incorporated
usb.asm                                                              PAGE   26

         00024b 00!  
    1195 00024c EC02          BSET @#1, AC0 ; |1444| 
         00024e 00   
    1196 00024f C06B          MOV AC0, port(*AR3(T0)) ; |1444| 
         000251 9A   
    1197                      .dwpsn  file "F:/eZDSP_5535_Files/ccsws2/test/c5535_bsl_revc/ezdsp5535_v1/c55xx_csl/inc/csl_usbAux.h"
    1198 000252 ED10          MOV dbl(*SP(#8)), XAR3
         000254 BF   
    1199 000255 7604          MOV #1057, T0 ; |1445| 
         000257 2148 
    1200 000259 AC61          MOV *AR3, AR4 ; |1445| 
    1201 00025b AB31          MOV *(#_usbRegisters), AR3 ; |1445| 
         00025d 0000 
         00025f 00!  
    1202 000260 CC6B          MOV AR4, port(*AR3(T0)) ; |1445| 
         000262 9A   
    1203                      .dwpsn  file "F:/eZDSP_5535_Files/ccsws2/test/c5535_bsl_revc/ezdsp5535_v1/c55xx_csl/inc/csl_usbAux.h"
    1204 000263 7600          MOV #50, T0 ; |1447| 
         000265 3248 
    1205 000267 AB31          MOV *(#_sysCtrlRegs), AR3 ; |1447| 
         000269 0000 
         00026b 00!  
    1206 00026c AB6B          MOV port(*AR3(T0)), AR3 ; |1447| 
         00026e 99   
    1207 00026f 7DFF          AND #0xfffc, AR3, AC0 ; |1447| 
         000271 FC0B 
    1208 000273 AB31          MOV *(#_sysCtrlRegs), AR3 ; |1447| 
         000275 0000 
         000277 00!  
    1209 000278 C06B          MOV AC0, port(*AR3(T0)) ; |1447| 
         00027a 9A   
    1210 00027b       $C$DW$L$_USB_processEP0In$11$E:
    1211 00027b       $C$L11:    
    1212 00027b       $C$DW$L$_USB_processEP0In$12$B:
    1213                      .dwpsn  file "F:/eZDSP_5535_Files/ccsws2/test/c5535_bsl_revc/ezdsp5535_v1/c55xx_csl/inc/csl_usbAux.h"
    1214 00027b AB18          MOV *SP(#12), AR3 ; |1451| 
    1215 00027d 1294          CMPU AR3 > AR1, TC1 ; |1451| 
         00027f B4   
    1216 000280 6164          BCC $C$L12,TC1 ; |1451| 
    1217                                                      ; branchcc occurs ; |1451| 
    1218 000282       $C$DW$L$_USB_processEP0In$12$E:
    1219                      .dwpsn  file "F:/eZDSP_5535_Files/ccsws2/test/c5535_bsl_revc/ezdsp5535_v1/c55xx_csl/inc/csl_usbAux.h"
    1220 000282 4A07          B $C$L13  ; |1453| 
    1221                                                      ; branch occurs ; |1453| 
    1222 000284       $C$L12:    
    1223 000284       $C$DW$L$_USB_processEP0In$15$B:
    1224                      .dwpsn  file "F:/eZDSP_5535_Files/ccsws2/test/c5535_bsl_revc/ezdsp5535_v1/c55xx_csl/inc/csl_usbAux.h"
    1225 000284 F718          SUB #64, *SP(#12) ; |1457| 
         000286 FFC0 
    1226                      .dwpsn  file "F:/eZDSP_5535_Files/ccsws2/test/c5535_bsl_revc/ezdsp5535_v1/c55xx_csl/inc/csl_usbAux.h"
    1227 000288 06FF          B $C$L8   ; |1432| 
         00028a 69   
    1228                                                      ; branch occurs ; |1432| 
    1229 00028b       $C$DW$L$_USB_processEP0In$15$E:
    1230 00028b       $C$L13:    
TMS320C55x Assembler PC v4.4.1 Mon Aug 15 03:55:17 2016

Tools Copyright (c) 1996-2012 Texas Instruments Incorporated
usb.asm                                                              PAGE   27

    1231                      .dwpsn  file "F:/eZDSP_5535_Files/ccsws2/test/c5535_bsl_revc/ezdsp5535_v1/c55xx_csl/inc/csl_usbAux.h"
    1232 00028b ED00          MOV dbl(*SP(#0)), XAR3
         00028d BF   
    1233 00028e E66D          MOV #0, *AR3(#90) ; |1461| 
         000290 0000 
         000292 5A   
    1234                      .dwpsn  file "F:/eZDSP_5535_Files/ccsws2/test/c5535_bsl_revc/ezdsp5535_v1/c55xx_csl/inc/csl_usbAux.h"
    1235 000293 ED08          MOV dbl(*SP(#4)), XAR3
         000295 BF   
    1236 000296 DF18          MOV uns(*SP(#12)), AC0 ; |1463| 
         000298 05   
    1237 000299 ED6D          ADD dbl(*AR3(#8)), AC0, AC0 ; |1463| 
         00029b 0000 
         00029d 08   
    1238 00029e EB6D          MOV AC0, dbl(*AR3(#8)) ; |1463| 
         0002a0 0800 
         0002a2 08   
    1239                      .dwpsn  file "F:/eZDSP_5535_Files/ccsws2/test/c5535_bsl_revc/ezdsp5535_v1/c55xx_csl/inc/csl_usbAux.h"
    1240 0002a3 ED08          MOV dbl(*SP(#4)), XAR3
         0002a5 BF   
    1241 0002a6 DF18          MOV uns(*SP(#12)), AC0 ; |1464| 
         0002a8 05   
    1242 0002a9 EB6D          MOV AC0, dbl(*AR3(#10)) ; |1464| 
         0002ab 0800 
         0002ad 0A   
    1243                      .dwpsn  file "F:/eZDSP_5535_Files/ccsws2/test/c5535_bsl_revc/ezdsp5535_v1/c55xx_csl/inc/csl_usbAux.h"
    1244 0002ae ED08          MOV dbl(*SP(#4)), XAR3
         0002b0 BF   
    1245 0002b1 ED6D          MOV dbl(*AR3(#8)), AC1 ; |1465| 
         0002b3 1800 
         0002b5 08   
    1246 0002b6 ED7D          MOV dbl(*AR3(short(#6))), AC0 ; |1465| 
         0002b8 08   
    1247 0002b9 121C          CMPU AC1 != AC0, TC1 ; |1465| 
         0002bb 04   
    1248 0002bc 62E4          BCC $C$L14,TC1 ; |1465| 
    1249                                                      ; branchcc occurs ; |1465| 
    1250                      .dwpsn  file "F:/eZDSP_5535_Files/ccsws2/test/c5535_bsl_revc/ezdsp5535_v1/c55xx_csl/inc/csl_usbAux.h"
    1251 0002be E66D          MOV #1, *AR3(#12) ; |1467| 
         0002c0 0100 
         0002c2 0C   
    1252 0002c3       $C$L14:    
    1253                      .dwpsn  file "F:/eZDSP_5535_Files/ccsws2/test/c5535_bsl_revc/ezdsp5535_v1/c55xx_csl/inc/csl_usbAux.h"
    1254 0002c3 7604          MOV #1038, T0 ; |1471| 
         0002c5 0E48 
    1255 0002c7 AB31          MOV *(#_usbRegisters), AR3 ; |1471| 
         0002c9 0000 
         0002cb 00!  
    1256 0002cc A96B          MOV port(*AR3(T0)), AR1 ; |1471| 
         0002ce 99   
    1257 0002cf C91E          MOV AR1, *SP(#15) ; |1471| 
    1258                      .dwpsn  file "F:/eZDSP_5535_Files/ccsws2/test/c5535_bsl_revc/ezdsp5535_v1/c55xx_csl/inc/csl_usbAux.h"
    1259 0002d1 A96B          MOV port(*AR3(T0)), AR1 ; |1474| 
         0002d3 99   
    1260 0002d4 7DFF          AND #0xfff0, AR1, AC0 ; |1474| 
TMS320C55x Assembler PC v4.4.1 Mon Aug 15 03:55:17 2016

Tools Copyright (c) 1996-2012 Texas Instruments Incorporated
usb.asm                                                              PAGE   28

         0002d6 F009 
    1261 0002d8 C06B          MOV AC0, port(*AR3(T0)) ; |1474| 
         0002da 9A   
    1262                      .dwpsn  file "F:/eZDSP_5535_Files/ccsws2/test/c5535_bsl_revc/ezdsp5535_v1/c55xx_csl/inc/csl_usbAux.h"
    1263 0002db AB31          MOV *(#_usbRegisters), AR3 ; |1479| 
         0002dd 0000 
         0002df 00!  
    1264 0002e0 A96B          MOV port(*AR3(T0)), AR1 ; |1479| 
         0002e2 99   
    1265 0002e3 7DFF          AND #0xfff0, AR1, AC0 ; |1479| 
         0002e5 F009 
    1266 0002e7 C06B          MOV AC0, port(*AR3(T0)) ; |1479| 
         0002e9 9A   
    1267                      .dwpsn  file "F:/eZDSP_5535_Files/ccsws2/test/c5535_bsl_revc/ezdsp5535_v1/c55xx_csl/inc/csl_usbAux.h"
    1268 0002ea ED08          MOV dbl(*SP(#4)), XAR3
         0002ec BF   
    1269 0002ed F06D          CMP *AR3(#12) == #1, TC1 ; |1483| 
         0002ef 0001 
         0002f1 000C 
    1270 0002f3 0474          BCC $C$L15,!TC1 ; |1483| 
         0002f5 37   
    1271                                                      ; branchcc occurs ; |1483| 
    1272                      .dwpsn  file "F:/eZDSP_5535_Files/ccsws2/test/c5535_bsl_revc/ezdsp5535_v1/c55xx_csl/inc/csl_usbAux.h"
    1273 0002f6 ED00          MOV dbl(*SP(#0)), XAR3
         0002f8 BF   
    1274 0002f9 E67F          MOV #0, *AR3(short(#7)) ; |1485| 
         0002fb 00   
    1275                      .dwpsn  file "F:/eZDSP_5535_Files/ccsws2/test/c5535_bsl_revc/ezdsp5535_v1/c55xx_csl/inc/csl_usbAux.h"
    1276 0002fc E61C          MOV #10, *SP(#14) ; |1488| 
         0002fe 0A   
    1277                      .dwpsn  file "F:/eZDSP_5535_Files/ccsws2/test/c5535_bsl_revc/ezdsp5535_v1/c55xx_csl/inc/csl_usbAux.h"
    1278 0002ff ED00          MOV dbl(*SP(#0)), XAR3
         000301 BF   
    1279 000302 E66D          MOV #0, *AR3(#101) ; |1491| 
         000304 0000 
         000306 65   
    1280                      .dwpsn  file "F:/eZDSP_5535_Files/ccsws2/test/c5535_bsl_revc/ezdsp5535_v1/c55xx_csl/inc/csl_usbAux.h"
    1281 000307 7604          MOV #1042, T0 ; |1493| 
         000309 1248 
    1282 00030b AB31          MOV *(#_usbRegisters), AR3 ; |1493| 
         00030d 0000 
         00030f 00!  
    1283 000310 A91C          MOV *SP(#14), AR1 ; |1493| 
    1284 000312 DA6B          OR port(*AR3(T0)), AR1, AR1 ; |1493| 
         000314 99   
         000315 99   
    1285 000316 C96B          MOV AR1, port(*AR3(T0)) ; |1493| 
         000318 9A   
    1286                      .dwpsn  file "F:/eZDSP_5535_Files/ccsws2/test/c5535_bsl_revc/ezdsp5535_v1/c55xx_csl/inc/csl_usbAux.h"
    1287 000319 ED00          MOV dbl(*SP(#0)), XAR3
         00031b BF   
    1288 00031c ED00          MOV dbl(*SP(#0)), XAR0
         00031e 8F   
    1289 00031f ED04          MOV dbl(*SP(#2)), XAR1
         000321 9F   
TMS320C55x Assembler PC v4.4.1 Mon Aug 15 03:55:17 2016

Tools Copyright (c) 1996-2012 Texas Instruments Incorporated
usb.asm                                                              PAGE   29

    1290 000322 ED6D          MOV dbl(*AR3(#116)), AC0 ; |1495| 
         000324 0800 
         000326 74   
    1291              $C$DW$135       .dwtag  DW_TAG_TI_branch
    1292                      .dwattr $C$DW$135, DW_AT_low_pc(0x00)
    1293                      .dwattr $C$DW$135, DW_AT_TI_call
    1294                      .dwattr $C$DW$135, DW_AT_TI_indirect
    1295 000327 9200          CALL AC0  ; |1495| 
    1296                                                      ; call occurs [AC0] ; |1495| 
    1297 000329 C40C          MOV T0, *SP(#6) ; |1495| 
    1298                      .dwpsn  file "F:/eZDSP_5535_Files/ccsws2/test/c5535_bsl_revc/ezdsp5535_v1/c55xx_csl/inc/csl_usbAux.h"
    1299 00032b 4A15          B $C$L16  ; |1496| 
    1300                                                      ; branch occurs ; |1496| 
    1301 00032d       $C$L15:    
    1302                      .dwpsn  file "F:/eZDSP_5535_Files/ccsws2/test/c5535_bsl_revc/ezdsp5535_v1/c55xx_csl/inc/csl_usbAux.h"
    1303 00032d E61C          MOV #2, *SP(#14) ; |1500| 
         00032f 02   
    1304                      .dwpsn  file "F:/eZDSP_5535_Files/ccsws2/test/c5535_bsl_revc/ezdsp5535_v1/c55xx_csl/inc/csl_usbAux.h"
    1305 000330 7604          MOV #1042, T0 ; |1503| 
         000332 1248 
    1306 000334 AB31          MOV *(#_usbRegisters), AR3 ; |1503| 
         000336 0000 
         000338 00!  
    1307 000339 A91C          MOV *SP(#14), AR1 ; |1503| 
    1308 00033b DA6B          OR port(*AR3(T0)), AR1, AR1 ; |1503| 
         00033d 99   
         00033e 99   
    1309 00033f C96B          MOV AR1, port(*AR3(T0)) ; |1503| 
         000341 9A   
    1310 000342       $C$L16:    
    1311                      .dwpsn  file "F:/eZDSP_5535_Files/ccsws2/test/c5535_bsl_revc/ezdsp5535_v1/c55xx_csl/inc/csl_usbAux.h"
    1312 000342 AB31          MOV *(#_usbRegisters), AR3 ; |1507| 
         000344 0000 
         000346 00!  
    1313 000347 7604          MOV #1038, T0 ; |1507| 
         000349 0E48 
    1314 00034b A91E          MOV *SP(#15), AR1 ; |1507| 
    1315 00034d C96B          MOV AR1, port(*AR3(T0)) ; |1507| 
         00034f 9A   
    1316                      .dwpsn  file "F:/eZDSP_5535_Files/ccsws2/test/c5535_bsl_revc/ezdsp5535_v1/c55xx_csl/inc/csl_usbAux.h"
    1317 000350 4A08          B $C$L19  ; |1508| 
    1318                                                      ; branch occurs ; |1508| 
    1319 000352       $C$L17:    
    1320                      .dwpsn  file "F:/eZDSP_5535_Files/ccsws2/test/c5535_bsl_revc/ezdsp5535_v1/c55xx_csl/inc/csl_usbAux.h"
    1321 000352 E60C          MOV #-6, *SP(#6) ; |1511| 
         000354 FA   
    1322                      .dwpsn  file "F:/eZDSP_5535_Files/ccsws2/test/c5535_bsl_revc/ezdsp5535_v1/c55xx_csl/inc/csl_usbAux.h"
    1323 000355 4A03          B $C$L19  ; |1513| 
    1324                                                      ; branch occurs ; |1513| 
    1325 000357       $C$L18:    
    1326                      .dwpsn  file "F:/eZDSP_5535_Files/ccsws2/test/c5535_bsl_revc/ezdsp5535_v1/c55xx_csl/inc/csl_usbAux.h"
    1327 000357 E60C          MOV #-6, *SP(#6) ; |1516| 
         000359 FA   
    1328 00035a       $C$L19:    
    1329                      .dwpsn  file "F:/eZDSP_5535_Files/ccsws2/test/c5535_bsl_revc/ezdsp5535_v1/c55xx_csl/inc/csl_usbAux.h"
TMS320C55x Assembler PC v4.4.1 Mon Aug 15 03:55:17 2016

Tools Copyright (c) 1996-2012 Texas Instruments Incorporated
usb.asm                                                              PAGE   30

    1330 00035a A40C          MOV *SP(#6), T0 ; |1519| 
    1331                      .dwpsn  file "F:/eZDSP_5535_Files/ccsws2/test/c5535_bsl_revc/ezdsp5535_v1/c55xx_csl/inc/csl_usbAux.h"
    1332 00035c 4E11          AADD #17, SP
    1333                      .dwcfi  cfa_offset, 1
    1334              $C$DW$136       .dwtag  DW_TAG_TI_branch
    1335                      .dwattr $C$DW$136, DW_AT_low_pc(0x00)
    1336                      .dwattr $C$DW$136, DW_AT_TI_return
    1337 00035e 4804          RET
    1338                                                      ; return occurs
    1339              
    1340              $C$DW$137       .dwtag  DW_TAG_TI_loop
    1341                      .dwattr $C$DW$137, DW_AT_name("F:\eZDSP_5535_Files\ccsws2\test\Debug\usb.asm:$C$L8:1:1471258514")
    1342                      .dwattr $C$DW$137, DW_AT_TI_begin_file("F:/eZDSP_5535_Files/ccsws2/test/c5535_bsl_revc/ezdsp5535_v1/c
    1343                      .dwattr $C$DW$137, DW_AT_TI_begin_line(0x598)
    1344                      .dwattr $C$DW$137, DW_AT_TI_end_line(0x5b3)
    1345              $C$DW$138       .dwtag  DW_TAG_TI_loop_range
    1346                      .dwattr $C$DW$138, DW_AT_low_pc($C$DW$L$_USB_processEP0In$8$B)
    1347                      .dwattr $C$DW$138, DW_AT_high_pc($C$DW$L$_USB_processEP0In$8$E)
    1348              $C$DW$139       .dwtag  DW_TAG_TI_loop_range
    1349                      .dwattr $C$DW$139, DW_AT_low_pc($C$DW$L$_USB_processEP0In$10$B)
    1350                      .dwattr $C$DW$139, DW_AT_high_pc($C$DW$L$_USB_processEP0In$10$E)
    1351              $C$DW$140       .dwtag  DW_TAG_TI_loop_range
    1352                      .dwattr $C$DW$140, DW_AT_low_pc($C$DW$L$_USB_processEP0In$11$B)
    1353                      .dwattr $C$DW$140, DW_AT_high_pc($C$DW$L$_USB_processEP0In$11$E)
    1354              $C$DW$141       .dwtag  DW_TAG_TI_loop_range
    1355                      .dwattr $C$DW$141, DW_AT_low_pc($C$DW$L$_USB_processEP0In$12$B)
    1356                      .dwattr $C$DW$141, DW_AT_high_pc($C$DW$L$_USB_processEP0In$12$E)
    1357              $C$DW$142       .dwtag  DW_TAG_TI_loop_range
    1358                      .dwattr $C$DW$142, DW_AT_low_pc($C$DW$L$_USB_processEP0In$15$B)
    1359                      .dwattr $C$DW$142, DW_AT_high_pc($C$DW$L$_USB_processEP0In$15$E)
    1360              
    1361              $C$DW$143       .dwtag  DW_TAG_TI_loop
    1362                      .dwattr $C$DW$143, DW_AT_name("F:\eZDSP_5535_Files\ccsws2\test\Debug\usb.asm:$C$L9:2:1471258514")
    1363                      .dwattr $C$DW$143, DW_AT_TI_begin_file("F:/eZDSP_5535_Files/ccsws2/test/c5535_bsl_revc/ezdsp5535_v1/c
    1364                      .dwattr $C$DW$143, DW_AT_TI_begin_line(0x59b)
    1365                      .dwattr $C$DW$143, DW_AT_TI_end_line(0x59f)
    1366              $C$DW$144       .dwtag  DW_TAG_TI_loop_range
    1367                      .dwattr $C$DW$144, DW_AT_low_pc($C$DW$L$_USB_processEP0In$9$B)
    1368                      .dwattr $C$DW$144, DW_AT_high_pc($C$DW$L$_USB_processEP0In$9$E)
    1369                      .dwendtag $C$DW$143
    1370              
    1371                      .dwendtag $C$DW$137
    1372              
    1373                      .dwattr $C$DW$123, DW_AT_TI_end_file("F:/eZDSP_5535_Files/ccsws2/test/c5535_bsl_revc/ezdsp5535_v1/c55
    1374                      .dwattr $C$DW$123, DW_AT_TI_end_line(0x5f0)
    1375                      .dwattr $C$DW$123, DW_AT_TI_end_column(0x01)
    1376                      .dwendentry
    1377                      .dwendtag $C$DW$123
    1378              
    1379 000360               .sect   ".text"
    1380                      .align 4
    1381              
    1382              $C$DW$145       .dwtag  DW_TAG_subprogram, DW_AT_name("USB_handleTx")
    1383                      .dwattr $C$DW$145, DW_AT_low_pc(_USB_handleTx)
    1384                      .dwattr $C$DW$145, DW_AT_high_pc(0x00)
TMS320C55x Assembler PC v4.4.1 Mon Aug 15 03:55:17 2016

Tools Copyright (c) 1996-2012 Texas Instruments Incorporated
usb.asm                                                              PAGE   31

    1385                      .dwattr $C$DW$145, DW_AT_TI_symbol_name("_USB_handleTx")
    1386                      .dwattr $C$DW$145, DW_AT_type(*$C$DW$T$80)
    1387                      .dwattr $C$DW$145, DW_AT_TI_begin_file("F:/eZDSP_5535_Files/ccsws2/test/c5535_bsl_revc/ezdsp5535_v1/c
    1388                      .dwattr $C$DW$145, DW_AT_TI_begin_line(0x371)
    1389                      .dwattr $C$DW$145, DW_AT_TI_begin_column(0x0c)
    1390                      .dwattr $C$DW$145, DW_AT_TI_max_frame_size(0x16)
    1391                      .dwpsn  file "F:/eZDSP_5535_Files/ccsws2/test/c5535_bsl_revc/ezdsp5535_v1/c55xx_csl/inc/csl_usbAux.h"
    1392              
    1393                      .dwfde $C$DW$CIE, _USB_handleTx
    1394              $C$DW$146       .dwtag  DW_TAG_formal_parameter, DW_AT_name("pContext")
    1395                      .dwattr $C$DW$146, DW_AT_TI_symbol_name("_pContext")
    1396                      .dwattr $C$DW$146, DW_AT_type(*$C$DW$T$146)
    1397                      .dwattr $C$DW$146, DW_AT_location[DW_OP_reg17]
    1398              $C$DW$147       .dwtag  DW_TAG_formal_parameter, DW_AT_name("dwEndpoint")
    1399                      .dwattr $C$DW$147, DW_AT_TI_symbol_name("_dwEndpoint")
    1400                      .dwattr $C$DW$147, DW_AT_type(*$C$DW$T$88)
    1401                      .dwattr $C$DW$147, DW_AT_location[DW_OP_reg0]
    1402              ;*******************************************************************************
    1403              ;* FUNCTION NAME: USB_handleTx                                                 *
    1404              ;*                                                                             *
    1405              ;*   Function Uses Regs : AC0,AC0,AC1,AC1,T0,AR0,XAR0,AR1,XAR1,AR3,XAR3,SP,    *
    1406              ;*                        CARRY,TC1,M40,SATA,SATD,RDM,FRCT,SMUL                *
    1407              ;*   Stack Frame        : Compact (No Frame Pointer, w/ debug)                 *
    1408              ;*   Total Frame Size   : 22 words                                             *
    1409              ;*                        (1 return address/alignment)                         *
    1410              ;*                        (21 local values)                                    *
    1411              ;*   Min System Stack   : 1 word                                               *
    1412              ;*******************************************************************************
    1413 000360       _USB_handleTx:
    1414                      .dwcfi  cfa_offset, 1
    1415                      .dwcfi  save_reg_to_mem, 91, -1
    1416 000360 4EEB          AADD #-21, SP
    1417                      .dwcfi  cfa_offset, 22
    1418              $C$DW$148       .dwtag  DW_TAG_variable, DW_AT_name("pContext")
    1419                      .dwattr $C$DW$148, DW_AT_TI_symbol_name("_pContext")
    1420                      .dwattr $C$DW$148, DW_AT_type(*$C$DW$T$146)
    1421                      .dwattr $C$DW$148, DW_AT_location[DW_OP_bregx 0x24 0]
    1422              $C$DW$149       .dwtag  DW_TAG_variable, DW_AT_name("dwEndpoint")
    1423                      .dwattr $C$DW$149, DW_AT_TI_symbol_name("_dwEndpoint")
    1424                      .dwattr $C$DW$149, DW_AT_type(*$C$DW$T$88)
    1425                      .dwattr $C$DW$149, DW_AT_location[DW_OP_bregx 0x24 2]
    1426              $C$DW$150       .dwtag  DW_TAG_variable, DW_AT_name("cbToWrite")
    1427                      .dwattr $C$DW$150, DW_AT_TI_symbol_name("_cbToWrite")
    1428                      .dwattr $C$DW$150, DW_AT_type(*$C$DW$T$88)
    1429                      .dwattr $C$DW$150, DW_AT_location[DW_OP_bregx 0x24 4]
    1430              $C$DW$151       .dwtag  DW_TAG_variable, DW_AT_name("pwBuffer")
    1431                      .dwattr $C$DW$151, DW_AT_TI_symbol_name("_pwBuffer")
    1432                      .dwattr $C$DW$151, DW_AT_type(*$C$DW$T$87)
    1433                      .dwattr $C$DW$151, DW_AT_location[DW_OP_bregx 0x24 6]
    1434              $C$DW$152       .dwtag  DW_TAG_variable, DW_AT_name("cbBuffer")
    1435                      .dwattr $C$DW$152, DW_AT_TI_symbol_name("_cbBuffer")
    1436                      .dwattr $C$DW$152, DW_AT_type(*$C$DW$T$88)
    1437                      .dwattr $C$DW$152, DW_AT_location[DW_OP_bregx 0x24 8]
    1438              $C$DW$153       .dwtag  DW_TAG_variable, DW_AT_name("cbWritten")
    1439                      .dwattr $C$DW$153, DW_AT_TI_symbol_name("_cbWritten")
TMS320C55x Assembler PC v4.4.1 Mon Aug 15 03:55:17 2016

Tools Copyright (c) 1996-2012 Texas Instruments Incorporated
usb.asm                                                              PAGE   32

    1440                      .dwattr $C$DW$153, DW_AT_type(*$C$DW$T$88)
    1441                      .dwattr $C$DW$153, DW_AT_location[DW_OP_bregx 0x24 10]
    1442              $C$DW$154       .dwtag  DW_TAG_variable, DW_AT_name("count")
    1443                      .dwattr $C$DW$154, DW_AT_TI_symbol_name("_count")
    1444                      .dwattr $C$DW$154, DW_AT_type(*$C$DW$T$19)
    1445                      .dwattr $C$DW$154, DW_AT_location[DW_OP_bregx 0x24 12]
    1446              $C$DW$155       .dwtag  DW_TAG_variable, DW_AT_name("saveIndex")
    1447                      .dwattr $C$DW$155, DW_AT_TI_symbol_name("_saveIndex")
    1448                      .dwattr $C$DW$155, DW_AT_type(*$C$DW$T$19)
    1449                      .dwattr $C$DW$155, DW_AT_location[DW_OP_bregx 0x24 13]
    1450              $C$DW$156       .dwtag  DW_TAG_variable, DW_AT_name("status")
    1451                      .dwattr $C$DW$156, DW_AT_TI_symbol_name("_status")
    1452                      .dwattr $C$DW$156, DW_AT_type(*$C$DW$T$80)
    1453                      .dwattr $C$DW$156, DW_AT_location[DW_OP_bregx 0x24 14]
    1454              $C$DW$157       .dwtag  DW_TAG_variable, DW_AT_name("peps")
    1455                      .dwattr $C$DW$157, DW_AT_TI_symbol_name("_peps")
    1456                      .dwattr $C$DW$157, DW_AT_type(*$C$DW$T$150)
    1457                      .dwattr $C$DW$157, DW_AT_location[DW_OP_bregx 0x24 16]
    1458              $C$DW$158       .dwtag  DW_TAG_variable, DW_AT_name("pTransfer")
    1459                      .dwattr $C$DW$158, DW_AT_TI_symbol_name("_pTransfer")
    1460                      .dwattr $C$DW$158, DW_AT_type(*$C$DW$T$152)
    1461                      .dwattr $C$DW$158, DW_AT_location[DW_OP_bregx 0x24 18]
    1462              $C$DW$159       .dwtag  DW_TAG_variable, DW_AT_name("pFifoAddr")
    1463                      .dwattr $C$DW$159, DW_AT_TI_symbol_name("_pFifoAddr")
    1464                      .dwattr $C$DW$159, DW_AT_type(*$C$DW$T$194)
    1465                      .dwattr $C$DW$159, DW_AT_location[DW_OP_bregx 0x24 20]
    1466 000362 EB04          MOV AC0, dbl(*SP(#2)) ; |883| 
         000364 08   
    1467 000365 EB00          MOV XAR0, dbl(*SP(#0))
         000367 85   
    1468                      .dwpsn  file "F:/eZDSP_5535_Files/ccsws2/test/c5535_bsl_revc/ezdsp5535_v1/c55xx_csl/inc/csl_usbAux.h"
    1469 000368 E61C          MOV #0, *SP(#14) ; |896| 
         00036a 00   
    1470                      .dwpsn  file "F:/eZDSP_5535_Files/ccsws2/test/c5535_bsl_revc/ezdsp5535_v1/c55xx_csl/inc/csl_usbAux.h"
    1471 00036b E618          MOV #0, *SP(#12) ; |897| 
         00036d 00   
    1472                      .dwpsn  file "F:/eZDSP_5535_Files/ccsws2/test/c5535_bsl_revc/ezdsp5535_v1/c55xx_csl/inc/csl_usbAux.h"
    1473 00036e E61A          MOV #0, *SP(#13) ; |898| 
         000370 00   
    1474                      .dwpsn  file "F:/eZDSP_5535_Files/ccsws2/test/c5535_bsl_revc/ezdsp5535_v1/c55xx_csl/inc/csl_usbAux.h"
    1475 000371 3C00          MOV #0, AC0 ; |899| 
    1476 000373 EB14          MOV AC0, dbl(*SP(#10)) ; |899| 
         000375 08   
    1477                      .dwpsn  file "F:/eZDSP_5535_Files/ccsws2/test/c5535_bsl_revc/ezdsp5535_v1/c55xx_csl/inc/csl_usbAux.h"
    1478 000376 ED00          MOV dbl(*SP(#0)), XAR3
         000378 BF   
    1479 000379 90B0          MOV XAR3, AC0
    1480 00037b 6D00          BCC $C$L34,AC0 == #0 ; |901| 
         00037d 0258 
    1481                                                      ; branchcc occurs ; |901| 
    1482                      .dwpsn  file "F:/eZDSP_5535_Files/ccsws2/test/c5535_bsl_revc/ezdsp5535_v1/c55xx_csl/inc/csl_usbAux.h"
    1483 00037f ED6D          MOV dbl(*AR3(#98)), XAR3
         000381 BF00 
         000383 62   
    1484 000384 F806          MPYMK *SP(#3), #18, AC0 ; |903| 
TMS320C55x Assembler PC v4.4.1 Mon Aug 15 03:55:17 2016

Tools Copyright (c) 1996-2012 Texas Instruments Incorporated
usb.asm                                                              PAGE   33

         000386 1200 
    1485 000388 2209          MOV AC0, AR1 ; |903| 
    1486              
    1487 00038a 8E20          MOV XAR3, dbl(*SP(#16))
         00038c BB10 
         00038e B590 
    1488              ||      AADD AR1, AR3 ; |903| 
    1489              
    1490                      .dwpsn  file "F:/eZDSP_5535_Files/ccsws2/test/c5535_bsl_revc/ezdsp5535_v1/c55xx_csl/inc/csl_usbAux.h"
    1491 000390 ED6D          MOV dbl(*AR3(#10)), XAR3
         000392 BF00 
         000394 0A   
    1492 000395 EB24          MOV XAR3, dbl(*SP(#18))
         000397 B5   
    1493                      .dwpsn  file "F:/eZDSP_5535_Files/ccsws2/test/c5535_bsl_revc/ezdsp5535_v1/c55xx_csl/inc/csl_usbAux.h"
    1494 000398 90B0          MOV XAR3, AC0
    1495 00039a 6D00          BCC $C$L33,AC0 == #0 ; |906| 
         00039c 0234 
    1496                                                      ; branchcc occurs ; |906| 
    1497 00039e A96D          MOV *AR3(#12), AR1 ; |906| 
         0003a0 000C 
    1498 0003a2 6D19          BCC $C$L33,AR1 != #0 ; |906| 
         0003a4 022C 
    1499                                                      ; branchcc occurs ; |906| 
    1500                      .dwpsn  file "F:/eZDSP_5535_Files/ccsws2/test/c5535_bsl_revc/ezdsp5535_v1/c55xx_csl/inc/csl_usbAux.h"
    1501 0003a6 ED6D          MOV dbl(*AR3(#8)), AC0 ; |908| 
         0003a8 0800 
         0003aa 08   
    1502 0003ab ED79          MOV dbl(*AR3(short(#4))), XAR3
         0003ad BF   
    1503 0003ae 5001          SFTL AC0, #-1 ; |908| 
    1504 0003b0 2209          MOV AC0, AR1 ; |908| 
    1505              
    1506 0003b2 8E0C          MOV XAR3, dbl(*SP(#6))
         0003b4 BB10 
         0003b6 B590 
    1507              ||      AADD AR1, AR3 ; |908| 
    1508              
    1509                      .dwpsn  file "F:/eZDSP_5535_Files/ccsws2/test/c5535_bsl_revc/ezdsp5535_v1/c55xx_csl/inc/csl_usbAux.h"
    1510 0003b8 ED24          MOV dbl(*SP(#18)), XAR3
         0003ba BF   
    1511 0003bb ED6D          MOV dbl(*AR3(#8)), AC0 ; |909| 
         0003bd 0800 
         0003bf 08   
    1512 0003c0 ED7D          SUB AC0, dbl(*AR3(short(#6))), AC0 ; |909| 
         0003c2 04   
    1513 0003c3 EB10          MOV AC0, dbl(*SP(#8)) ; |909| 
         0003c5 08   
    1514                      .dwpsn  file "F:/eZDSP_5535_Files/ccsws2/test/c5535_bsl_revc/ezdsp5535_v1/c55xx_csl/inc/csl_usbAux.h"
    1515 0003c6 ED20          MOV dbl(*SP(#16)), XAR3
         0003c8 BF   
    1516 0003c9 A96D          MOV *AR3(#9), AR1 ; |910| 
         0003cb 0009 
    1517 0003cd C928          MOV AR1, *SP(#20) ; |910| 
    1518                      .dwpsn  file "F:/eZDSP_5535_Files/ccsws2/test/c5535_bsl_revc/ezdsp5535_v1/c55xx_csl/inc/csl_usbAux.h"
TMS320C55x Assembler PC v4.4.1 Mon Aug 15 03:55:17 2016

Tools Copyright (c) 1996-2012 Texas Instruments Incorporated
usb.asm                                                              PAGE   34

    1519 0003cf ED20          MOV dbl(*SP(#16)), XAR3
         0003d1 BF   
    1520 0003d2 ED10          MOV dbl(*SP(#8)), AC1 ; |913| 
         0003d4 18   
    1521 0003d5 ED79          MOV dbl(*AR3(short(#4))), AC0 ; |913| 
         0003d7 08   
    1522 0003d8 1218          CMPU AC1 >= AC0, TC1 ; |913| 
         0003da 04   
    1523 0003db 62E4          BCC $C$L20,TC1 ; |913| 
    1524                                                      ; branchcc occurs ; |913| 
    1525 0003dd ED10          MOV dbl(*SP(#8)), AC0 ; |913| 
         0003df 08   
    1526 0003e0 4A03          B $C$L21  ; |913| 
    1527                                                      ; branch occurs ; |913| 
    1528 0003e2       $C$L20:    
    1529 0003e2 ED79          MOV dbl(*AR3(short(#4))), AC0 ; |913| 
         0003e4 08   
    1530 0003e5       $C$L21:    
    1531 0003e5 EB08          MOV AC0, dbl(*SP(#4)) ; |913| 
         0003e7 08   
    1532                      .dwpsn  file "F:/eZDSP_5535_Files/ccsws2/test/c5535_bsl_revc/ezdsp5535_v1/c55xx_csl/inc/csl_usbAux.h"
    1533 0003e8 ED24          MOV dbl(*SP(#18)), XAR3
         0003ea BF   
    1534 0003eb F06D          CMP *AR3(#13) == #32, TC1 ; |916| 
         0003ed 0020 
         0003ef 000D 
    1535 0003f1 6474          BCC $C$L22,!TC1 ; |916| 
    1536                                                      ; branchcc occurs ; |916| 
    1537                      .dwpsn  file "F:/eZDSP_5535_Files/ccsws2/test/c5535_bsl_revc/ezdsp5535_v1/c55xx_csl/inc/csl_usbAux.h"
    1538 0003f3 E66D          MOV #1, *AR3(#12) ; |918| 
         0003f5 0100 
         0003f7 0C   
    1539                      .dwpsn  file "F:/eZDSP_5535_Files/ccsws2/test/c5535_bsl_revc/ezdsp5535_v1/c55xx_csl/inc/csl_usbAux.h"
    1540 0003f8 0601          B $C$L32  ; |919| 
         0003fa B3   
    1541                                                      ; branch occurs ; |919| 
    1542 0003fb       $C$L22:    
    1543                      .dwpsn  file "F:/eZDSP_5535_Files/ccsws2/test/c5535_bsl_revc/ezdsp5535_v1/c55xx_csl/inc/csl_usbAux.h"
    1544 0003fb ED20          MOV dbl(*SP(#16)), XAR3
         0003fd BF   
    1545 0003fe F06D          CMP *AR3(#16) == #1, TC1 ; |922| 
         000400 0001 
         000402 0010 
    1546 000404 6D64          BCC $C$L32,TC1 ; |922| 
         000406 01A6 
    1547                                                      ; branchcc occurs ; |922| 
    1548                      .dwpsn  file "F:/eZDSP_5535_Files/ccsws2/test/c5535_bsl_revc/ezdsp5535_v1/c55xx_csl/inc/csl_usbAux.h"
    1549 000408 7602          MOV #512, AC0 ; |925| 
         00040a 0008 
    1550 00040c ED08          MOV dbl(*SP(#4)), AC1 ; |925| 
         00040e 18   
    1551 00040f 1210          CMPU AC1 == AC0, TC1 ; |925| 
         000411 04   
    1552 000412 66E4          BCC $C$L23,TC1 ; |925| 
    1553                                                      ; branchcc occurs ; |925| 
TMS320C55x Assembler PC v4.4.1 Mon Aug 15 03:55:17 2016

Tools Copyright (c) 1996-2012 Texas Instruments Incorporated
usb.asm                                                              PAGE   35

    1554 000414 7600          MOV #64, AC0 ; |925| 
         000416 4008 
    1555 000418 ED08          MOV dbl(*SP(#4)), AC1 ; |925| 
         00041a 18   
    1556 00041b 121C          CMPU AC1 != AC0, TC1 ; |925| 
         00041d 04   
    1557 00041e 0464          BCC $C$L26,TC1 ; |925| 
         000420 5E   
    1558                                                      ; branchcc occurs ; |925| 
    1559 000421       $C$L23:    
    1560 000421 ED00          MOV dbl(*SP(#0)), XAR3
         000423 BF   
    1561 000424 F061          CMP *AR3 == #1, TC1 ; |925| 
         000426 0001 
    1562 000428 63E4          BCC $C$L24,TC1 ; |925| 
    1563                                                      ; branchcc occurs ; |925| 
    1564 00042a F061          CMP *AR3 == #2, TC1 ; |925| 
         00042c 0002 
    1565 00042e 0474          BCC $C$L26,!TC1 ; |925| 
         000430 4E   
    1566                                                      ; branchcc occurs ; |925| 
    1567 000431       $C$L24:    
    1568                      .dwpsn  file "F:/eZDSP_5535_Files/ccsws2/test/c5535_bsl_revc/ezdsp5535_v1/c55xx_csl/inc/csl_usbAux.h"
    1569 000431 ED24          MOV dbl(*SP(#18)), XAR3
         000433 BF   
    1570 000434 ED08          MOV dbl(*SP(#4)), AC0 ; |929| 
         000436 08   
    1571 000437 ED6D          ADD dbl(*AR3(#8)), AC0, AC0 ; |929| 
         000439 0000 
         00043b 08   
    1572 00043c EB6D          MOV AC0, dbl(*AR3(#8)) ; |929| 
         00043e 0800 
         000440 08   
    1573                      .dwpsn  file "F:/eZDSP_5535_Files/ccsws2/test/c5535_bsl_revc/ezdsp5535_v1/c55xx_csl/inc/csl_usbAux.h"
    1574 000441 ED24          MOV dbl(*SP(#18)), XAR3
         000443 BF   
    1575 000444 ED08          MOV dbl(*SP(#4)), AC0 ; |930| 
         000446 08   
    1576 000447 EB6D          MOV AC0, dbl(*AR3(#10)) ; |930| 
         000449 0800 
         00044b 0A   
    1577                      .dwpsn  file "F:/eZDSP_5535_Files/ccsws2/test/c5535_bsl_revc/ezdsp5535_v1/c55xx_csl/inc/csl_usbAux.h"
    1578 00044c ED04          MOV dbl(*SP(#2)), AC0 ; |932| 
         00044e 08   
    1579              $C$DW$160       .dwtag  DW_TAG_TI_branch
    1580                      .dwattr $C$DW$160, DW_AT_low_pc(0x00)
    1581                      .dwattr $C$DW$160, DW_AT_name("_USB_dmaTxStart")
    1582                      .dwattr $C$DW$160, DW_AT_TI_call
    1583 00044f 08FC          CALL #_USB_dmaTxStart ; |932| 
         000451 02   
    1584                                                      ; call occurs [#_USB_dmaTxStart] ; |932| 
    1585                      .dwpsn  file "F:/eZDSP_5535_Files/ccsws2/test/c5535_bsl_revc/ezdsp5535_v1/c55xx_csl/inc/csl_usbAux.h"
    1586 000452 ED24          MOV dbl(*SP(#18)), XAR3
         000454 BF   
    1587 000455 ED6D          MOV dbl(*AR3(#8)), AC1 ; |934| 
TMS320C55x Assembler PC v4.4.1 Mon Aug 15 03:55:17 2016

Tools Copyright (c) 1996-2012 Texas Instruments Incorporated
usb.asm                                                              PAGE   36

         000457 1800 
         000459 08   
    1588 00045a ED7D          MOV dbl(*AR3(short(#6))), AC0 ; |934| 
         00045c 08   
    1589 00045d 121C          CMPU AC1 != AC0, TC1 ; |934| 
         00045f 04   
    1590 000460 6464          BCC $C$L25,TC1 ; |934| 
    1591                                                      ; branchcc occurs ; |934| 
    1592                      .dwpsn  file "F:/eZDSP_5535_Files/ccsws2/test/c5535_bsl_revc/ezdsp5535_v1/c55xx_csl/inc/csl_usbAux.h"
    1593 000462 E66D          MOV #1, *AR3(#12) ; |936| 
         000464 0100 
         000466 0C   
    1594                      .dwpsn  file "F:/eZDSP_5535_Files/ccsws2/test/c5535_bsl_revc/ezdsp5535_v1/c55xx_csl/inc/csl_usbAux.h"
    1595 000467 0601          B $C$L32  ; |937| 
         000469 44   
    1596                                                      ; branch occurs ; |937| 
    1597 00046a       $C$L25:    
    1598                      .dwpsn  file "F:/eZDSP_5535_Files/ccsws2/test/c5535_bsl_revc/ezdsp5535_v1/c55xx_csl/inc/csl_usbAux.h"
    1599 00046a ED00          MOV dbl(*SP(#0)), XAR3
         00046c BF   
    1600 00046d ED00          MOV dbl(*SP(#0)), XAR0
         00046f 8F   
    1601 000470 ED20          MOV dbl(*SP(#16)), XAR1
         000472 9F   
    1602 000473 ED6D          MOV dbl(*AR3(#116)), AC0 ; |940| 
         000475 0800 
         000477 74   
    1603              $C$DW$161       .dwtag  DW_TAG_TI_branch
    1604                      .dwattr $C$DW$161, DW_AT_low_pc(0x00)
    1605                      .dwattr $C$DW$161, DW_AT_TI_call
    1606                      .dwattr $C$DW$161, DW_AT_TI_indirect
    1607 000478 9200          CALL AC0  ; |940| 
    1608                                                      ; call occurs [AC0] ; |940| 
    1609 00047a C41C          MOV T0, *SP(#14) ; |940| 
    1610                      .dwpsn  file "F:/eZDSP_5535_Files/ccsws2/test/c5535_bsl_revc/ezdsp5535_v1/c55xx_csl/inc/csl_usbAux.h"
    1611 00047c 0601          B $C$L32  ; |942| 
         00047e 2F   
    1612                                                      ; branch occurs ; |942| 
    1613 00047f       $C$L26:    
    1614                      .dwpsn  file "F:/eZDSP_5535_Files/ccsws2/test/c5535_bsl_revc/ezdsp5535_v1/c55xx_csl/inc/csl_usbAux.h"
    1615 00047f 7604          MOV #1038, T0 ; |957| 
         000481 0E48 
    1616 000483 AB31          MOV *(#_usbRegisters), AR3 ; |957| 
         000485 0000 
         000487 00!  
    1617 000488 A96B          MOV port(*AR3(T0)), AR1 ; |957| 
         00048a 99   
    1618 00048b C91A          MOV AR1, *SP(#13) ; |957| 
    1619                      .dwpsn  file "F:/eZDSP_5535_Files/ccsws2/test/c5535_bsl_revc/ezdsp5535_v1/c55xx_csl/inc/csl_usbAux.h"
    1620 00048d A96B          MOV port(*AR3(T0)), AR1 ; |960| 
         00048f 99   
    1621 000490 7DFF          AND #0xfff0, AR1, AC0 ; |960| 
         000492 F009 
    1622 000494 C06B          MOV AC0, port(*AR3(T0)) ; |960| 
         000496 9A   
TMS320C55x Assembler PC v4.4.1 Mon Aug 15 03:55:17 2016

Tools Copyright (c) 1996-2012 Texas Instruments Incorporated
usb.asm                                                              PAGE   37

    1623                      .dwpsn  file "F:/eZDSP_5535_Files/ccsws2/test/c5535_bsl_revc/ezdsp5535_v1/c55xx_csl/inc/csl_usbAux.h"
    1624 000497 AB31          MOV *(#_usbRegisters), AR3 ; |964| 
         000499 0000 
         00049b 00!  
    1625 00049c ED04          MOV dbl(*SP(#2)), AC0 ; |964| 
         00049e 08   
    1626 00049f 180F          AND #0x000f, AC0, AC0 ; |964| 
         0004a1 00   
    1627 0004a2 A96B          MOV port(*AR3(T0)), AR1 ; |964| 
         0004a4 99   
    1628 0004a5 7DFF          AND #0xfff0, AR1, AC1 ; |964| 
         0004a7 F019 
    1629 0004a9 2A10          OR AC1, AC0 ; |964| 
    1630 0004ab C06B          MOV AC0, port(*AR3(T0)) ; |964| 
         0004ad 9A   
    1631                      .dwpsn  file "F:/eZDSP_5535_Files/ccsws2/test/c5535_bsl_revc/ezdsp5535_v1/c55xx_csl/inc/csl_usbAux.h"
    1632 0004ae 7604          MOV #1042, T0 ; |969| 
         0004b0 1248 
    1633 0004b2 AB31          MOV *(#_usbRegisters), AR3 ; |969| 
         0004b4 0000 
         0004b6 00!  
    1634 0004b7 A96B          MOV port(*AR3(T0)), AR1 ; |969| 
         0004b9 99   
    1635 0004ba EC06          BCLR @#3, AR1 ; |969| 
         0004bc 92   
    1636 0004bd EC06          BSET @#3, AR1 ; |969| 
         0004bf 90   
    1637 0004c0 C96B          MOV AR1, port(*AR3(T0)) ; |969| 
         0004c2 9A   
    1638                      .dwpsn  file "F:/eZDSP_5535_Files/ccsws2/test/c5535_bsl_revc/ezdsp5535_v1/c55xx_csl/inc/csl_usbAux.h"
    1639 0004c3 ED08          MOV dbl(*SP(#4)), AC0 ; |972| 
         0004c5 08   
    1640 0004c6 0400          BCC $C$L29,AC0 == #0 ; |972| 
         0004c8 76   
    1641                                                      ; branchcc occurs ; |972| 
    1642                      .dwpsn  file "F:/eZDSP_5535_Files/ccsws2/test/c5535_bsl_revc/ezdsp5535_v1/c55xx_csl/inc/csl_usbAux.h"
    1643 0004c9 ED08          MOV dbl(*SP(#4)), AC0 ; |975| 
         0004cb 08   
    1644 0004cc EB14          MOV AC0, dbl(*SP(#10)) ; |975| 
         0004ce 08   
    1645                      .dwpsn  file "F:/eZDSP_5535_Files/ccsws2/test/c5535_bsl_revc/ezdsp5535_v1/c55xx_csl/inc/csl_usbAux.h"
    1646 0004cf E618          MOV #0, *SP(#12) ; |977| 
         0004d1 00   
    1647                      .dwpsn  file "F:/eZDSP_5535_Files/ccsws2/test/c5535_bsl_revc/ezdsp5535_v1/c55xx_csl/inc/csl_usbAux.h"
    1648 0004d2 ED08          MOV dbl(*SP(#4)), AC0 ; |977| 
         0004d4 08   
    1649              
    1650 0004d8 5101          SFTL AC0, #-1 ; |977| 
    1651 0004d5 DF18  ||      MOV uns(*SP(#12)), AC1 ; |977| 
         0004d7 15   
    1652              
    1653 0004da 1218          CMPU AC1 >= AC0, TC1 ; |977| 
         0004dc 04   
    1654 0004dd 0464          BCC $C$L28,TC1 ; |977| 
         0004df 1F   
TMS320C55x Assembler PC v4.4.1 Mon Aug 15 03:55:17 2016

Tools Copyright (c) 1996-2012 Texas Instruments Incorporated
usb.asm                                                              PAGE   38

    1655                                                      ; branchcc occurs ; |977| 
    1656 0004e0       $C$L27:    
    1657 0004e0       $C$DW$L$_USB_handleTx$19$B:
    1658                      .dwpsn  file "F:/eZDSP_5535_Files/ccsws2/test/c5535_bsl_revc/ezdsp5535_v1/c55xx_csl/inc/csl_usbAux.h"
    1659 0004e0 ED0C          MOV dbl(*SP(#6)), XAR3
         0004e2 BF   
    1660 0004e3 A963          MOV *AR3+, AR1 ; |979| 
    1661 0004e5 EB0C          MOV XAR3, dbl(*SP(#6))
         0004e7 B5   
    1662 0004e8 AB28          MOV *SP(#20), AR3 ; |979| 
    1663 0004ea C961          MOV AR1, port(*AR3) ; |979| 
         0004ec 9A   
    1664                      .dwpsn  file "F:/eZDSP_5535_Files/ccsws2/test/c5535_bsl_revc/ezdsp5535_v1/c55xx_csl/inc/csl_usbAux.h"
    1665 0004ed F718          ADD #1, *SP(#12) ; |977| 
         0004ef 0001 
    1666                      .dwpsn  file "F:/eZDSP_5535_Files/ccsws2/test/c5535_bsl_revc/ezdsp5535_v1/c55xx_csl/inc/csl_usbAux.h"
    1667 0004f1 ED08          MOV dbl(*SP(#4)), AC0 ; |977| 
         0004f3 08   
    1668              
    1669 0004f7 5101          SFTL AC0, #-1 ; |977| 
    1670 0004f4 DF18  ||      MOV uns(*SP(#12)), AC1 ; |977| 
         0004f6 15   
    1671              
    1672 0004f9 1214          CMPU AC1 < AC0, TC1 ; |977| 
         0004fb 04   
    1673 0004fc 0464          BCC $C$L27,TC1 ; |977| 
         0004fe E1   
    1674                                                      ; branchcc occurs ; |977| 
    1675 0004ff       $C$DW$L$_USB_handleTx$19$E:
    1676 0004ff       $C$L28:    
    1677                      .dwpsn  file "F:/eZDSP_5535_Files/ccsws2/test/c5535_bsl_revc/ezdsp5535_v1/c55xx_csl/inc/csl_usbAux.h"
    1678 0004ff ED08          MOV dbl(*SP(#4)), AC0 ; |982| 
         000501 08   
    1679 000502 1801          AND #0x0001, AC0, AC0 ; |982| 
         000504 00   
    1680 000505 0400          BCC $C$L29,AC0 == #0 ; |982| 
         000507 37   
    1681                                                      ; branchcc occurs ; |982| 
    1682                      .dwpsn  file "F:/eZDSP_5535_Files/ccsws2/test/c5535_bsl_revc/ezdsp5535_v1/c55xx_csl/inc/csl_usbAux.h"
    1683 000508 7600          MOV #50, T0 ; |985| 
         00050a 3248 
    1684 00050c AB31          MOV *(#_sysCtrlRegs), AR3 ; |985| 
         00050e 0000 
         000510 00!  
    1685 000511 A96B          MOV port(*AR3(T0)), AR1 ; |985| 
         000513 99   
    1686 000514 7DFF          AND #0xfffc, AR1, AC0 ; |985| 
         000516 FC09 
    1687 000518 EC02          BSET @#1, AC0 ; |985| 
         00051a 00   
    1688 00051b C06B          MOV AC0, port(*AR3(T0)) ; |985| 
         00051d 9A   
    1689                      .dwpsn  file "F:/eZDSP_5535_Files/ccsws2/test/c5535_bsl_revc/ezdsp5535_v1/c55xx_csl/inc/csl_usbAux.h"
    1690 00051e AB28          MOV *SP(#20), AR3 ; |987| 
    1691 000520 A961          MOV port(*AR3), AR1 ; |987| 
TMS320C55x Assembler PC v4.4.1 Mon Aug 15 03:55:17 2016

Tools Copyright (c) 1996-2012 Texas Instruments Incorporated
usb.asm                                                              PAGE   39

         000522 99   
    1692 000523 ED0C          MOV dbl(*SP(#6)), XAR3
         000525 BF   
    1693 000526 A961          MOV *AR3, AR1 ; |987| 
    1694 000528 AB28          MOV *SP(#20), AR3 ; |987| 
    1695 00052a 1A00          OR #0x0000, AR1, AR1 ; |987| 
         00052c 99   
    1696 00052d C961          MOV AR1, port(*AR3) ; |987| 
         00052f 9A   
    1697                      .dwpsn  file "F:/eZDSP_5535_Files/ccsws2/test/c5535_bsl_revc/ezdsp5535_v1/c55xx_csl/inc/csl_usbAux.h"
    1698 000530 AB31          MOV *(#_sysCtrlRegs), AR3 ; |990| 
         000532 0000 
         000534 00!  
    1699 000535 A96B          MOV port(*AR3(T0)), AR1 ; |990| 
         000537 99   
    1700 000538 7DFF          AND #0xfffc, AR1, AC0 ; |990| 
         00053a FC09 
    1701 00053c C06B          MOV AC0, port(*AR3(T0)) ; |990| 
         00053e 9A   
    1702 00053f       $C$L29:    
    1703                      .dwpsn  file "F:/eZDSP_5535_Files/ccsws2/test/c5535_bsl_revc/ezdsp5535_v1/c55xx_csl/inc/csl_usbAux.h"
    1704 00053f ED20          MOV dbl(*SP(#16)), XAR3
         000541 BF   
    1705 000542 F075          CMP *AR3(short(#2)) == #3, TC1 ; |995| 
         000544 0003 
    1706 000546 6774          BCC $C$L30,!TC1 ; |995| 
    1707                                                      ; branchcc occurs ; |995| 
    1708                      .dwpsn  file "F:/eZDSP_5535_Files/ccsws2/test/c5535_bsl_revc/ezdsp5535_v1/c55xx_csl/inc/csl_usbAux.h"
    1709 000548 7604          MOV #1042, T0 ; |997| 
         00054a 1248 
    1710 00054c AB31          MOV *(#_usbRegisters), AR3 ; |997| 
         00054e 0000 
         000550 00!  
    1711 000551 F56B          OR #0x0040, port(*AR3(T0)) ; |997| 
         000553 0040 
         000555 9A   
    1712 000556       $C$L30:    
    1713                      .dwpsn  file "F:/eZDSP_5535_Files/ccsws2/test/c5535_bsl_revc/ezdsp5535_v1/c55xx_csl/inc/csl_usbAux.h"
    1714 000556 7604          MOV #1042, T0 ; |1002| 
         000558 1248 
    1715 00055a AB31          MOV *(#_usbRegisters), AR3 ; |1002| 
         00055c 0000 
         00055e 00!  
    1716 00055f A96B          MOV port(*AR3(T0)), AR1 ; |1002| 
         000561 99   
    1717 000562 EC00          BCLR @#0, AR1 ; |1002| 
         000564 92   
    1718 000565 EC00          BSET @#0, AR1 ; |1002| 
         000567 90   
    1719 000568 C96B          MOV AR1, port(*AR3(T0)) ; |1002| 
         00056a 9A   
    1720                      .dwpsn  file "F:/eZDSP_5535_Files/ccsws2/test/c5535_bsl_revc/ezdsp5535_v1/c55xx_csl/inc/csl_usbAux.h"
    1721 00056b 7604          MOV #1038, T0 ; |1006| 
         00056d 0E48 
    1722 00056f AB31          MOV *(#_usbRegisters), AR3 ; |1006| 
TMS320C55x Assembler PC v4.4.1 Mon Aug 15 03:55:17 2016

Tools Copyright (c) 1996-2012 Texas Instruments Incorporated
usb.asm                                                              PAGE   40

         000571 0000 
         000573 00!  
    1723 000574 A91A          MOV *SP(#13), AR1 ; |1006| 
    1724 000576 C96B          MOV AR1, port(*AR3(T0)) ; |1006| 
         000578 9A   
    1725                      .dwpsn  file "F:/eZDSP_5535_Files/ccsws2/test/c5535_bsl_revc/ezdsp5535_v1/c55xx_csl/inc/csl_usbAux.h"
    1726 000579 ED24          MOV dbl(*SP(#18)), XAR3
         00057b BF   
    1727 00057c ED14          MOV dbl(*SP(#10)), AC0 ; |1009| 
         00057e 08   
    1728 00057f ED6D          ADD dbl(*AR3(#8)), AC0, AC0 ; |1009| 
         000581 0000 
         000583 08   
    1729 000584 EB6D          MOV AC0, dbl(*AR3(#8)) ; |1009| 
         000586 0800 
         000588 08   
    1730                      .dwpsn  file "F:/eZDSP_5535_Files/ccsws2/test/c5535_bsl_revc/ezdsp5535_v1/c55xx_csl/inc/csl_usbAux.h"
    1731 000589 ED24          MOV dbl(*SP(#18)), XAR3
         00058b BF   
    1732 00058c ED14          MOV dbl(*SP(#10)), AC0 ; |1010| 
         00058e 08   
    1733 00058f EB6D          MOV AC0, dbl(*AR3(#10)) ; |1010| 
         000591 0800 
         000593 0A   
    1734                      .dwpsn  file "F:/eZDSP_5535_Files/ccsws2/test/c5535_bsl_revc/ezdsp5535_v1/c55xx_csl/inc/csl_usbAux.h"
    1735 000594 ED24          MOV dbl(*SP(#18)), XAR3
         000596 BF   
    1736 000597 ED6D          MOV dbl(*AR3(#8)), AC1 ; |1012| 
         000599 1800 
         00059b 08   
    1737 00059c ED7D          MOV dbl(*AR3(short(#6))), AC0 ; |1012| 
         00059e 08   
    1738 00059f 1210          CMPU AC1 == AC0, TC1 ; |1012| 
         0005a1 04   
    1739 0005a2 62E4          BCC $C$L31,TC1 ; |1012| 
    1740                                                      ; branchcc occurs ; |1012| 
    1741 0005a4 ED14          MOV dbl(*SP(#10)), AC0 ; |1012| 
         0005a6 08   
    1742 0005a7 6290          BCC $C$L32,AC0 != #0 ; |1012| 
    1743                                                      ; branchcc occurs ; |1012| 
    1744 0005a9       $C$L31:    
    1745                      .dwpsn  file "F:/eZDSP_5535_Files/ccsws2/test/c5535_bsl_revc/ezdsp5535_v1/c55xx_csl/inc/csl_usbAux.h"
    1746 0005a9 E66D          MOV #1, *AR3(#12) ; |1015| 
         0005ab 0100 
         0005ad 0C   
    1747 0005ae       $C$L32:    
    1748                      .dwpsn  file "F:/eZDSP_5535_Files/ccsws2/test/c5535_bsl_revc/ezdsp5535_v1/c55xx_csl/inc/csl_usbAux.h"
    1749 0005ae ED24          MOV dbl(*SP(#18)), XAR3
         0005b0 BF   
    1750 0005b1 A96D          MOV *AR3(#12), AR1 ; |1021| 
         0005b3 000C 
    1751 0005b5 0409          BCC $C$L35,AR1 == #0 ; |1021| 
         0005b7 22   
    1752                                                      ; branchcc occurs ; |1021| 
    1753                      .dwpsn  file "F:/eZDSP_5535_Files/ccsws2/test/c5535_bsl_revc/ezdsp5535_v1/c55xx_csl/inc/csl_usbAux.h"
TMS320C55x Assembler PC v4.4.1 Mon Aug 15 03:55:17 2016

Tools Copyright (c) 1996-2012 Texas Instruments Incorporated
usb.asm                                                              PAGE   41

    1754 0005b8 ED00          MOV dbl(*SP(#0)), XAR3
         0005ba BF   
    1755 0005bb E67B          MOV #0, *AR3(short(#5)) ; |1023| 
         0005bd 00   
    1756                      .dwpsn  file "F:/eZDSP_5535_Files/ccsws2/test/c5535_bsl_revc/ezdsp5535_v1/c55xx_csl/inc/csl_usbAux.h"
    1757 0005be ED00          MOV dbl(*SP(#0)), XAR3
         0005c0 BF   
    1758 0005c1 ED00          MOV dbl(*SP(#0)), XAR0
         0005c3 8F   
    1759 0005c4 ED20          MOV dbl(*SP(#16)), XAR1
         0005c6 9F   
    1760 0005c7 ED6D          MOV dbl(*AR3(#116)), AC0 ; |1024| 
         0005c9 0800 
         0005cb 74   
    1761              $C$DW$162       .dwtag  DW_TAG_TI_branch
    1762                      .dwattr $C$DW$162, DW_AT_low_pc(0x00)
    1763                      .dwattr $C$DW$162, DW_AT_TI_call
    1764                      .dwattr $C$DW$162, DW_AT_TI_indirect
    1765 0005cc 9200          CALL AC0  ; |1024| 
    1766                                                      ; call occurs [AC0] ; |1024| 
    1767 0005ce C41C          MOV T0, *SP(#14) ; |1024| 
    1768                      .dwpsn  file "F:/eZDSP_5535_Files/ccsws2/test/c5535_bsl_revc/ezdsp5535_v1/c55xx_csl/inc/csl_usbAux.h"
    1769 0005d0 4A08          B $C$L35  ; |1026| 
    1770                                                      ; branch occurs ; |1026| 
    1771 0005d2       $C$L33:    
    1772                      .dwpsn  file "F:/eZDSP_5535_Files/ccsws2/test/c5535_bsl_revc/ezdsp5535_v1/c55xx_csl/inc/csl_usbAux.h"
    1773 0005d2 E61C          MOV #-6, *SP(#14) ; |1029| 
         0005d4 FA   
    1774                      .dwpsn  file "F:/eZDSP_5535_Files/ccsws2/test/c5535_bsl_revc/ezdsp5535_v1/c55xx_csl/inc/csl_usbAux.h"
    1775 0005d5 4A03          B $C$L35  ; |1031| 
    1776                                                      ; branch occurs ; |1031| 
    1777 0005d7       $C$L34:    
    1778                      .dwpsn  file "F:/eZDSP_5535_Files/ccsws2/test/c5535_bsl_revc/ezdsp5535_v1/c55xx_csl/inc/csl_usbAux.h"
    1779 0005d7 E61C          MOV #-6, *SP(#14) ; |1034| 
         0005d9 FA   
    1780 0005da       $C$L35:    
    1781                      .dwpsn  file "F:/eZDSP_5535_Files/ccsws2/test/c5535_bsl_revc/ezdsp5535_v1/c55xx_csl/inc/csl_usbAux.h"
    1782 0005da A41C          MOV *SP(#14), T0 ; |1037| 
    1783                      .dwpsn  file "F:/eZDSP_5535_Files/ccsws2/test/c5535_bsl_revc/ezdsp5535_v1/c55xx_csl/inc/csl_usbAux.h"
    1784 0005dc 4E15          AADD #21, SP
    1785                      .dwcfi  cfa_offset, 1
    1786              $C$DW$163       .dwtag  DW_TAG_TI_branch
    1787                      .dwattr $C$DW$163, DW_AT_low_pc(0x00)
    1788                      .dwattr $C$DW$163, DW_AT_TI_return
    1789 0005de 4804          RET
    1790                                                      ; return occurs
    1791              
    1792              $C$DW$164       .dwtag  DW_TAG_TI_loop
    1793                      .dwattr $C$DW$164, DW_AT_name("F:\eZDSP_5535_Files\ccsws2\test\Debug\usb.asm:$C$L27:1:1471258514")
    1794                      .dwattr $C$DW$164, DW_AT_TI_begin_file("F:/eZDSP_5535_Files/ccsws2/test/c5535_bsl_revc/ezdsp5535_v1/c
    1795                      .dwattr $C$DW$164, DW_AT_TI_begin_line(0x3d1)
    1796                      .dwattr $C$DW$164, DW_AT_TI_end_line(0x3d4)
    1797              $C$DW$165       .dwtag  DW_TAG_TI_loop_range
    1798                      .dwattr $C$DW$165, DW_AT_low_pc($C$DW$L$_USB_handleTx$19$B)
    1799                      .dwattr $C$DW$165, DW_AT_high_pc($C$DW$L$_USB_handleTx$19$E)
TMS320C55x Assembler PC v4.4.1 Mon Aug 15 03:55:17 2016

Tools Copyright (c) 1996-2012 Texas Instruments Incorporated
usb.asm                                                              PAGE   42

    1800                      .dwendtag $C$DW$164
    1801              
    1802                      .dwattr $C$DW$145, DW_AT_TI_end_file("F:/eZDSP_5535_Files/ccsws2/test/c5535_bsl_revc/ezdsp5535_v1/c55
    1803                      .dwattr $C$DW$145, DW_AT_TI_end_line(0x40e)
    1804                      .dwattr $C$DW$145, DW_AT_TI_end_column(0x01)
    1805                      .dwendentry
    1806                      .dwendtag $C$DW$145
    1807              
    1808 0005e0               .sect   ".text"
    1809                      .align 4
    1810              
    1811              $C$DW$166       .dwtag  DW_TAG_subprogram, DW_AT_name("USB_handleRx")
    1812                      .dwattr $C$DW$166, DW_AT_low_pc(_USB_handleRx)
    1813                      .dwattr $C$DW$166, DW_AT_high_pc(0x00)
    1814                      .dwattr $C$DW$166, DW_AT_TI_symbol_name("_USB_handleRx")
    1815                      .dwattr $C$DW$166, DW_AT_type(*$C$DW$T$80)
    1816                      .dwattr $C$DW$166, DW_AT_TI_begin_file("F:/eZDSP_5535_Files/ccsws2/test/c5535_bsl_revc/ezdsp5535_v1/c
    1817                      .dwattr $C$DW$166, DW_AT_TI_begin_line(0x453)
    1818                      .dwattr $C$DW$166, DW_AT_TI_begin_column(0x0c)
    1819                      .dwattr $C$DW$166, DW_AT_TI_max_frame_size(0x16)
    1820                      .dwpsn  file "F:/eZDSP_5535_Files/ccsws2/test/c5535_bsl_revc/ezdsp5535_v1/c55xx_csl/inc/csl_usbAux.h"
    1821              
    1822                      .dwfde $C$DW$CIE, _USB_handleRx
    1823              $C$DW$167       .dwtag  DW_TAG_formal_parameter, DW_AT_name("pContext")
    1824                      .dwattr $C$DW$167, DW_AT_TI_symbol_name("_pContext")
    1825                      .dwattr $C$DW$167, DW_AT_type(*$C$DW$T$146)
    1826                      .dwattr $C$DW$167, DW_AT_location[DW_OP_reg17]
    1827              $C$DW$168       .dwtag  DW_TAG_formal_parameter, DW_AT_name("dwEndpoint")
    1828                      .dwattr $C$DW$168, DW_AT_TI_symbol_name("_dwEndpoint")
    1829                      .dwattr $C$DW$168, DW_AT_type(*$C$DW$T$88)
    1830                      .dwattr $C$DW$168, DW_AT_location[DW_OP_reg0]
    1831              ;*******************************************************************************
    1832              ;* FUNCTION NAME: USB_handleRx                                                 *
    1833              ;*                                                                             *
    1834              ;*   Function Uses Regs : AC0,AC0,AC1,AC1,T0,AR0,XAR0,AR1,XAR1,AR2,XAR2,AR3,   *
    1835              ;*                        XAR3,SP,CARRY,TC1,M40,SATA,SATD,RDM,FRCT,SMUL        *
    1836              ;*   Stack Frame        : Compact (No Frame Pointer, w/ debug)                 *
    1837              ;*   Total Frame Size   : 22 words                                             *
    1838              ;*                        (2 return address/alignment)                         *
    1839              ;*                        (20 local values)                                    *
    1840              ;*   Min System Stack   : 1 word                                               *
    1841              ;*******************************************************************************
    1842 0005e0       _USB_handleRx:
    1843                      .dwcfi  cfa_offset, 1
    1844                      .dwcfi  save_reg_to_mem, 91, -1
    1845 0005e0 4EEB          AADD #-21, SP
    1846                      .dwcfi  cfa_offset, 22
    1847              $C$DW$169       .dwtag  DW_TAG_variable, DW_AT_name("pContext")
    1848                      .dwattr $C$DW$169, DW_AT_TI_symbol_name("_pContext")
    1849                      .dwattr $C$DW$169, DW_AT_type(*$C$DW$T$146)
    1850                      .dwattr $C$DW$169, DW_AT_location[DW_OP_bregx 0x24 0]
    1851              $C$DW$170       .dwtag  DW_TAG_variable, DW_AT_name("dwEndpoint")
    1852                      .dwattr $C$DW$170, DW_AT_TI_symbol_name("_dwEndpoint")
    1853                      .dwattr $C$DW$170, DW_AT_type(*$C$DW$T$88)
    1854                      .dwattr $C$DW$170, DW_AT_location[DW_OP_bregx 0x24 2]
TMS320C55x Assembler PC v4.4.1 Mon Aug 15 03:55:17 2016

Tools Copyright (c) 1996-2012 Texas Instruments Incorporated
usb.asm                                                              PAGE   43

    1855              $C$DW$171       .dwtag  DW_TAG_variable, DW_AT_name("cbToRead")
    1856                      .dwattr $C$DW$171, DW_AT_TI_symbol_name("_cbToRead")
    1857                      .dwattr $C$DW$171, DW_AT_type(*$C$DW$T$88)
    1858                      .dwattr $C$DW$171, DW_AT_location[DW_OP_bregx 0x24 4]
    1859              $C$DW$172       .dwtag  DW_TAG_variable, DW_AT_name("cbBuffer")
    1860                      .dwattr $C$DW$172, DW_AT_TI_symbol_name("_cbBuffer")
    1861                      .dwattr $C$DW$172, DW_AT_type(*$C$DW$T$88)
    1862                      .dwattr $C$DW$172, DW_AT_location[DW_OP_bregx 0x24 6]
    1863              $C$DW$173       .dwtag  DW_TAG_variable, DW_AT_name("dwBytesRead")
    1864                      .dwattr $C$DW$173, DW_AT_TI_symbol_name("_dwBytesRead")
    1865                      .dwattr $C$DW$173, DW_AT_type(*$C$DW$T$88)
    1866                      .dwattr $C$DW$173, DW_AT_location[DW_OP_bregx 0x24 8]
    1867              $C$DW$174       .dwtag  DW_TAG_variable, DW_AT_name("pwBuffer")
    1868                      .dwattr $C$DW$174, DW_AT_TI_symbol_name("_pwBuffer")
    1869                      .dwattr $C$DW$174, DW_AT_type(*$C$DW$T$87)
    1870                      .dwattr $C$DW$174, DW_AT_location[DW_OP_bregx 0x24 10]
    1871              $C$DW$175       .dwtag  DW_TAG_variable, DW_AT_name("pTransfer")
    1872                      .dwattr $C$DW$175, DW_AT_TI_symbol_name("_pTransfer")
    1873                      .dwattr $C$DW$175, DW_AT_type(*$C$DW$T$152)
    1874                      .dwattr $C$DW$175, DW_AT_location[DW_OP_bregx 0x24 12]
    1875              $C$DW$176       .dwtag  DW_TAG_variable, DW_AT_name("status")
    1876                      .dwattr $C$DW$176, DW_AT_TI_symbol_name("_status")
    1877                      .dwattr $C$DW$176, DW_AT_type(*$C$DW$T$80)
    1878                      .dwattr $C$DW$176, DW_AT_location[DW_OP_bregx 0x24 14]
    1879              $C$DW$177       .dwtag  DW_TAG_variable, DW_AT_name("saveIndex")
    1880                      .dwattr $C$DW$177, DW_AT_TI_symbol_name("_saveIndex")
    1881                      .dwattr $C$DW$177, DW_AT_type(*$C$DW$T$19)
    1882                      .dwattr $C$DW$177, DW_AT_location[DW_OP_bregx 0x24 15]
    1883              $C$DW$178       .dwtag  DW_TAG_variable, DW_AT_name("peps")
    1884                      .dwattr $C$DW$178, DW_AT_TI_symbol_name("_peps")
    1885                      .dwattr $C$DW$178, DW_AT_type(*$C$DW$T$150)
    1886                      .dwattr $C$DW$178, DW_AT_location[DW_OP_bregx 0x24 16]
    1887              $C$DW$179       .dwtag  DW_TAG_variable, DW_AT_name("count")
    1888                      .dwattr $C$DW$179, DW_AT_TI_symbol_name("_count")
    1889                      .dwattr $C$DW$179, DW_AT_type(*$C$DW$T$20)
    1890                      .dwattr $C$DW$179, DW_AT_location[DW_OP_bregx 0x24 18]
    1891              $C$DW$180       .dwtag  DW_TAG_variable, DW_AT_name("pFifoAddr")
    1892                      .dwattr $C$DW$180, DW_AT_TI_symbol_name("_pFifoAddr")
    1893                      .dwattr $C$DW$180, DW_AT_type(*$C$DW$T$194)
    1894                      .dwattr $C$DW$180, DW_AT_location[DW_OP_bregx 0x24 19]
    1895 0005e2 EB04          MOV AC0, dbl(*SP(#2)) ; |1109| 
         0005e4 08   
    1896 0005e5 EB00          MOV XAR0, dbl(*SP(#0))
         0005e7 85   
    1897                      .dwpsn  file "F:/eZDSP_5535_Files/ccsws2/test/c5535_bsl_revc/ezdsp5535_v1/c55xx_csl/inc/csl_usbAux.h"
    1898 0005e8 E61C          MOV #0, *SP(#14) ; |1121| 
         0005ea 00   
    1899                      .dwpsn  file "F:/eZDSP_5535_Files/ccsws2/test/c5535_bsl_revc/ezdsp5535_v1/c55xx_csl/inc/csl_usbAux.h"
    1900 0005eb 3C00          MOV #0, AC0 ; |1122| 
    1901 0005ed EB10          MOV AC0, dbl(*SP(#8)) ; |1122| 
         0005ef 08   
    1902                      .dwpsn  file "F:/eZDSP_5535_Files/ccsws2/test/c5535_bsl_revc/ezdsp5535_v1/c55xx_csl/inc/csl_usbAux.h"
    1903 0005f0 ED00          MOV dbl(*SP(#0)), XAR3
         0005f2 BF   
    1904 0005f3 90B0          MOV XAR3, AC0
TMS320C55x Assembler PC v4.4.1 Mon Aug 15 03:55:17 2016

Tools Copyright (c) 1996-2012 Texas Instruments Incorporated
usb.asm                                                              PAGE   44

    1905 0005f5 6D00          BCC $C$L48,AC0 == #0 ; |1124| 
         0005f7 0221 
    1906                                                      ; branchcc occurs ; |1124| 
    1907                      .dwpsn  file "F:/eZDSP_5535_Files/ccsws2/test/c5535_bsl_revc/ezdsp5535_v1/c55xx_csl/inc/csl_usbAux.h"
    1908 0005f9 ED6D          MOV dbl(*AR3(#98)), XAR3
         0005fb BF00 
         0005fd 62   
    1909 0005fe F806          MPYMK *SP(#3), #18, AC0 ; |1126| 
         000600 1200 
    1910 000602 2209          MOV AC0, AR1 ; |1126| 
    1911              
    1912 000604 8E20          MOV XAR3, dbl(*SP(#16))
         000606 BB10 
         000608 B590 
    1913              ||      AADD AR1, AR3 ; |1126| 
    1914              
    1915                      .dwpsn  file "F:/eZDSP_5535_Files/ccsws2/test/c5535_bsl_revc/ezdsp5535_v1/c55xx_csl/inc/csl_usbAux.h"
    1916 00060a ED6D          MOV dbl(*AR3(#10)), XAR3
         00060c BF00 
         00060e 0A   
    1917 00060f EB18          MOV XAR3, dbl(*SP(#12))
         000611 B5   
    1918                      .dwpsn  file "F:/eZDSP_5535_Files/ccsws2/test/c5535_bsl_revc/ezdsp5535_v1/c55xx_csl/inc/csl_usbAux.h"
    1919 000612 90B0          MOV XAR3, AC0
    1920 000614 6D00          BCC $C$L47,AC0 == #0 ; |1129| 
         000616 01FD 
    1921                                                      ; branchcc occurs ; |1129| 
    1922 000618 A96D          MOV *AR3(#12), AR1 ; |1129| 
         00061a 000C 
    1923 00061c 6D19          BCC $C$L47,AR1 != #0 ; |1129| 
         00061e 01F5 
    1924                                                      ; branchcc occurs ; |1129| 
    1925                      .dwpsn  file "F:/eZDSP_5535_Files/ccsws2/test/c5535_bsl_revc/ezdsp5535_v1/c55xx_csl/inc/csl_usbAux.h"
    1926 000620 ED6D          MOV dbl(*AR3(#8)), AC0 ; |1131| 
         000622 0800 
         000624 08   
    1927 000625 ED7D          SUB AC0, dbl(*AR3(short(#6))), AC0 ; |1131| 
         000627 04   
    1928 000628 EB0C          MOV AC0, dbl(*SP(#6)) ; |1131| 
         00062a 08   
    1929                      .dwpsn  file "F:/eZDSP_5535_Files/ccsws2/test/c5535_bsl_revc/ezdsp5535_v1/c55xx_csl/inc/csl_usbAux.h"
    1930 00062b ED18          MOV dbl(*SP(#12)), XAR3
         00062d BF   
    1931 00062e ED6D          MOV dbl(*AR3(#8)), AC0 ; |1132| 
         000630 0800 
         000632 08   
    1932 000633 5001          SFTL AC0, #-1 ; |1132| 
    1933 000635 2209          MOV AC0, AR1 ; |1132| 
    1934 000637 ED79          MOV dbl(*AR3(short(#4))), XAR3
         000639 BF   
    1935              
    1936 00063a 8E14          MOV XAR3, dbl(*SP(#10))
         00063c BB10 
         00063e B590 
    1937              ||      AADD AR1, AR3 ; |1132| 
TMS320C55x Assembler PC v4.4.1 Mon Aug 15 03:55:17 2016

Tools Copyright (c) 1996-2012 Texas Instruments Incorporated
usb.asm                                                              PAGE   45

    1938              
    1939                      .dwpsn  file "F:/eZDSP_5535_Files/ccsws2/test/c5535_bsl_revc/ezdsp5535_v1/c55xx_csl/inc/csl_usbAux.h"
    1940 000640 ED20          MOV dbl(*SP(#16)), XAR3
         000642 BF   
    1941 000643 A96D          MOV *AR3(#9), AR1 ; |1133| 
         000645 0009 
    1942 000647 C926          MOV AR1, *SP(#19) ; |1133| 
    1943                      .dwpsn  file "F:/eZDSP_5535_Files/ccsws2/test/c5535_bsl_revc/ezdsp5535_v1/c55xx_csl/inc/csl_usbAux.h"
    1944 000649 ED20          MOV dbl(*SP(#16)), XAR3
         00064b BF   
    1945 00064c ED0C          MOV dbl(*SP(#6)), AC1 ; |1136| 
         00064e 18   
    1946 00064f ED79          MOV dbl(*AR3(short(#4))), AC0 ; |1136| 
         000651 08   
    1947 000652 1218          CMPU AC1 >= AC0, TC1 ; |1136| 
         000654 04   
    1948 000655 62E4          BCC $C$L36,TC1 ; |1136| 
    1949                                                      ; branchcc occurs ; |1136| 
    1950 000657 ED0C          MOV dbl(*SP(#6)), AC0 ; |1136| 
         000659 08   
    1951 00065a 4A03          B $C$L37  ; |1136| 
    1952                                                      ; branch occurs ; |1136| 
    1953 00065c       $C$L36:    
    1954 00065c ED79          MOV dbl(*AR3(short(#4))), AC0 ; |1136| 
         00065e 08   
    1955 00065f       $C$L37:    
    1956 00065f EB08          MOV AC0, dbl(*SP(#4)) ; |1136| 
         000661 08   
    1957                      .dwpsn  file "F:/eZDSP_5535_Files/ccsws2/test/c5535_bsl_revc/ezdsp5535_v1/c55xx_csl/inc/csl_usbAux.h"
    1958 000662 7602          MOV #512, AC0 ; |1138| 
         000664 0008 
    1959 000666 ED08          MOV dbl(*SP(#4)), AC1 ; |1138| 
         000668 18   
    1960 000669 1210          CMPU AC1 == AC0, TC1 ; |1138| 
         00066b 04   
    1961 00066c 66E4          BCC $C$L38,TC1 ; |1138| 
    1962                                                      ; branchcc occurs ; |1138| 
    1963 00066e 7600          MOV #64, AC0 ; |1138| 
         000670 4008 
    1964 000672 ED08          MOV dbl(*SP(#4)), AC1 ; |1138| 
         000674 18   
    1965 000675 121C          CMPU AC1 != AC0, TC1 ; |1138| 
         000677 04   
    1966 000678 0464          BCC $C$L40,TC1 ; |1138| 
         00067a 5B   
    1967                                                      ; branchcc occurs ; |1138| 
    1968 00067b       $C$L38:    
    1969 00067b ED00          MOV dbl(*SP(#0)), XAR3
         00067d BF   
    1970 00067e F061          CMP *AR3 == #1, TC1 ; |1138| 
         000680 0001 
    1971 000682 0474          BCC $C$L40,!TC1 ; |1138| 
         000684 51   
    1972                                                      ; branchcc occurs ; |1138| 
    1973                      .dwpsn  file "F:/eZDSP_5535_Files/ccsws2/test/c5535_bsl_revc/ezdsp5535_v1/c55xx_csl/inc/csl_usbAux.h"
TMS320C55x Assembler PC v4.4.1 Mon Aug 15 03:55:17 2016

Tools Copyright (c) 1996-2012 Texas Instruments Incorporated
usb.asm                                                              PAGE   46

    1974 000685 ED18          MOV dbl(*SP(#12)), XAR3
         000687 BF   
    1975 000688 ED08          MOV dbl(*SP(#4)), AC0 ; |1141| 
         00068a 08   
    1976 00068b ED6D          ADD dbl(*AR3(#8)), AC0, AC0 ; |1141| 
         00068d 0000 
         00068f 08   
    1977 000690 EB6D          MOV AC0, dbl(*AR3(#8)) ; |1141| 
         000692 0800 
         000694 08   
    1978                      .dwpsn  file "F:/eZDSP_5535_Files/ccsws2/test/c5535_bsl_revc/ezdsp5535_v1/c55xx_csl/inc/csl_usbAux.h"
    1979 000695 ED18          MOV dbl(*SP(#12)), XAR3
         000697 BF   
    1980 000698 ED08          MOV dbl(*SP(#4)), AC0 ; |1142| 
         00069a 08   
    1981 00069b EB6D          MOV AC0, dbl(*AR3(#10)) ; |1142| 
         00069d 0800 
         00069f 0A   
    1982                      .dwpsn  file "F:/eZDSP_5535_Files/ccsws2/test/c5535_bsl_revc/ezdsp5535_v1/c55xx_csl/inc/csl_usbAux.h"
    1983 0006a0 ED04          MOV dbl(*SP(#2)), AC0 ; |1144| 
         0006a2 08   
    1984              $C$DW$181       .dwtag  DW_TAG_TI_branch
    1985                      .dwattr $C$DW$181, DW_AT_low_pc(0x00)
    1986                      .dwattr $C$DW$181, DW_AT_name("_USB_dmaRxStart")
    1987                      .dwattr $C$DW$181, DW_AT_TI_call
    1988 0006a3 08F9          CALL #_USB_dmaRxStart ; |1144| 
         0006a5 5A   
    1989                                                      ; call occurs [#_USB_dmaRxStart] ; |1144| 
    1990                      .dwpsn  file "F:/eZDSP_5535_Files/ccsws2/test/c5535_bsl_revc/ezdsp5535_v1/c55xx_csl/inc/csl_usbAux.h"
    1991 0006a6 ED18          MOV dbl(*SP(#12)), XAR3
         0006a8 BF   
    1992 0006a9 ED6D          MOV dbl(*AR3(#8)), AC1 ; |1146| 
         0006ab 1800 
         0006ad 08   
    1993 0006ae ED7D          MOV dbl(*AR3(short(#6))), AC0 ; |1146| 
         0006b0 08   
    1994 0006b1 121C          CMPU AC1 != AC0, TC1 ; |1146| 
         0006b3 04   
    1995 0006b4 65E4          BCC $C$L39,TC1 ; |1146| 
    1996                                                      ; branchcc occurs ; |1146| 
    1997                      .dwpsn  file "F:/eZDSP_5535_Files/ccsws2/test/c5535_bsl_revc/ezdsp5535_v1/c55xx_csl/inc/csl_usbAux.h"
    1998 0006b6 E66D          MOV #1, *AR3(#12) ; |1148| 
         0006b8 0100 
         0006ba 0C   
    1999                      .dwpsn  file "F:/eZDSP_5535_Files/ccsws2/test/c5535_bsl_revc/ezdsp5535_v1/c55xx_csl/inc/csl_usbAux.h"
    2000 0006bb ED00          MOV dbl(*SP(#0)), XAR3
         0006bd BF   
    2001 0006be E67D          MOV #0, *AR3(short(#6)) ; |1149| 
         0006c0 00   
    2002 0006c1       $C$L39:    
    2003                      .dwpsn  file "F:/eZDSP_5535_Files/ccsws2/test/c5535_bsl_revc/ezdsp5535_v1/c55xx_csl/inc/csl_usbAux.h"
    2004 0006c1 ED00          MOV dbl(*SP(#0)), XAR3
         0006c3 BF   
    2005 0006c4 ED00          MOV dbl(*SP(#0)), XAR0
         0006c6 8F   
TMS320C55x Assembler PC v4.4.1 Mon Aug 15 03:55:17 2016

Tools Copyright (c) 1996-2012 Texas Instruments Incorporated
usb.asm                                                              PAGE   47

    2006 0006c7 ED20          MOV dbl(*SP(#16)), XAR1
         0006c9 9F   
    2007 0006ca ED6D          MOV dbl(*AR3(#116)), AC0 ; |1152| 
         0006cc 0800 
         0006ce 74   
    2008              $C$DW$182       .dwtag  DW_TAG_TI_branch
    2009                      .dwattr $C$DW$182, DW_AT_low_pc(0x00)
    2010                      .dwattr $C$DW$182, DW_AT_TI_call
    2011                      .dwattr $C$DW$182, DW_AT_TI_indirect
    2012 0006cf 9200          CALL AC0  ; |1152| 
    2013                                                      ; call occurs [AC0] ; |1152| 
    2014 0006d1 C41C          MOV T0, *SP(#14) ; |1152| 
    2015                      .dwpsn  file "F:/eZDSP_5535_Files/ccsws2/test/c5535_bsl_revc/ezdsp5535_v1/c55xx_csl/inc/csl_usbAux.h"
    2016 0006d3 0601          B $C$L49  ; |1153| 
         0006d5 47   
    2017                                                      ; branch occurs ; |1153| 
    2018 0006d6       $C$L40:    
    2019                      .dwpsn  file "F:/eZDSP_5535_Files/ccsws2/test/c5535_bsl_revc/ezdsp5535_v1/c55xx_csl/inc/csl_usbAux.h"
    2020 0006d6 ED08          MOV dbl(*SP(#4)), AC0 ; |1166| 
         0006d8 08   
    2021 0006d9 0400          BCC $C$L43,AC0 == #0 ; |1166| 
         0006db 78   
    2022                                                      ; branchcc occurs ; |1166| 
    2023                      .dwpsn  file "F:/eZDSP_5535_Files/ccsws2/test/c5535_bsl_revc/ezdsp5535_v1/c55xx_csl/inc/csl_usbAux.h"
    2024 0006dc ED08          MOV dbl(*SP(#4)), AC0 ; |1169| 
         0006de 08   
    2025 0006df EB10          MOV AC0, dbl(*SP(#8)) ; |1169| 
         0006e1 08   
    2026                      .dwpsn  file "F:/eZDSP_5535_Files/ccsws2/test/c5535_bsl_revc/ezdsp5535_v1/c55xx_csl/inc/csl_usbAux.h"
    2027 0006e2 E624          MOV #0, *SP(#18) ; |1171| 
         0006e4 00   
    2028 0006e5 20            NOP
    2029 0006e6 20            NOP
    2030                      .dwpsn  file "F:/eZDSP_5535_Files/ccsws2/test/c5535_bsl_revc/ezdsp5535_v1/c55xx_csl/inc/csl_usbAux.h"
    2031 0006e7 ED08          MOV dbl(*SP(#4)), AC0 ; |1171| 
         0006e9 08   
    2032              
    2033 0006ed 5101          SFTL AC0, #-1 ; |1171| 
    2034 0006ea DF24  ||      MOV uns(*SP(#18)), AC1 ; |1171| 
         0006ec 15   
    2035              
    2036 0006ef 1218          CMPU AC1 >= AC0, TC1 ; |1171| 
         0006f1 04   
    2037 0006f2 0464          BCC $C$L42,TC1 ; |1171| 
         0006f4 26   
    2038                                                      ; branchcc occurs ; |1171| 
    2039 0006f5       $C$L41:    
    2040 0006f5       $C$DW$L$_USB_handleRx$15$B:
    2041                      .dwpsn  file "F:/eZDSP_5535_Files/ccsws2/test/c5535_bsl_revc/ezdsp5535_v1/c55xx_csl/inc/csl_usbAux.h"
    2042 0006f5 ED14          MOV dbl(*SP(#10)), XAR2
         0006f7 AF   
    2043 0006f8 EC41          AMAR *AR2, XAR3
         0006fa BE   
    2044 0006fb B463          AMAR *AR3+
    2045 0006fd EB14          MOV XAR3, dbl(*SP(#10))
TMS320C55x Assembler PC v4.4.1 Mon Aug 15 03:55:17 2016

Tools Copyright (c) 1996-2012 Texas Instruments Incorporated
usb.asm                                                              PAGE   48

         0006ff B5   
    2046 000700 AB26          MOV *SP(#19), AR3 ; |1173| 
    2047 000702 A961          MOV port(*AR3), AR1 ; |1173| 
         000704 99   
    2048 000705 C941          MOV AR1, *AR2 ; |1173| 
    2049                      .dwpsn  file "F:/eZDSP_5535_Files/ccsws2/test/c5535_bsl_revc/ezdsp5535_v1/c55xx_csl/inc/csl_usbAux.h"
    2050 000707 F724          ADD #1, *SP(#18) ; |1171| 
         000709 0001 
    2051 00070b 20            NOP
    2052 00070c 20            NOP
    2053                      .dwpsn  file "F:/eZDSP_5535_Files/ccsws2/test/c5535_bsl_revc/ezdsp5535_v1/c55xx_csl/inc/csl_usbAux.h"
    2054 00070d ED08          MOV dbl(*SP(#4)), AC0 ; |1171| 
         00070f 08   
    2055              
    2056 000713 5101          SFTL AC0, #-1 ; |1171| 
    2057 000710 DF24  ||      MOV uns(*SP(#18)), AC1 ; |1171| 
         000712 15   
    2058              
    2059 000715 1214          CMPU AC1 < AC0, TC1 ; |1171| 
         000717 04   
    2060 000718 0464          BCC $C$L41,TC1 ; |1171| 
         00071a DA   
    2061                                                      ; branchcc occurs ; |1171| 
    2062 00071b       $C$DW$L$_USB_handleRx$15$E:
    2063 00071b       $C$L42:    
    2064                      .dwpsn  file "F:/eZDSP_5535_Files/ccsws2/test/c5535_bsl_revc/ezdsp5535_v1/c55xx_csl/inc/csl_usbAux.h"
    2065 00071b ED08          MOV dbl(*SP(#4)), AC0 ; |1176| 
         00071d 08   
    2066 00071e 1801          AND #0x0001, AC0, AC0 ; |1176| 
         000720 00   
    2067 000721 0400          BCC $C$L43,AC0 == #0 ; |1176| 
         000723 30   
    2068                                                      ; branchcc occurs ; |1176| 
    2069                      .dwpsn  file "F:/eZDSP_5535_Files/ccsws2/test/c5535_bsl_revc/ezdsp5535_v1/c55xx_csl/inc/csl_usbAux.h"
    2070 000724 7600          MOV #50, T0 ; |1179| 
         000726 3248 
    2071 000728 AB31          MOV *(#_sysCtrlRegs), AR3 ; |1179| 
         00072a 0000 
         00072c 00!  
    2072 00072d A96B          MOV port(*AR3(T0)), AR1 ; |1179| 
         00072f 99   
    2073 000730 7DFF          AND #0xfffc, AR1, AC0 ; |1179| 
         000732 FC09 
    2074 000734 EC02          BSET @#1, AC0 ; |1179| 
         000736 00   
    2075 000737 C06B          MOV AC0, port(*AR3(T0)) ; |1179| 
         000739 9A   
    2076                      .dwpsn  file "F:/eZDSP_5535_Files/ccsws2/test/c5535_bsl_revc/ezdsp5535_v1/c55xx_csl/inc/csl_usbAux.h"
    2077 00073a AB26          MOV *SP(#19), AR3 ; |1181| 
    2078 00073c ED14          MOV dbl(*SP(#10)), XAR2
         00073e AF   
    2079 00073f DF61          MOV uns(low_byte(port(*AR3))), AR1 ; |1181| 
         000741 93   
         000742 99   
    2080 000743 C941          MOV AR1, *AR2 ; |1181| 
TMS320C55x Assembler PC v4.4.1 Mon Aug 15 03:55:17 2016

Tools Copyright (c) 1996-2012 Texas Instruments Incorporated
usb.asm                                                              PAGE   49

    2081                      .dwpsn  file "F:/eZDSP_5535_Files/ccsws2/test/c5535_bsl_revc/ezdsp5535_v1/c55xx_csl/inc/csl_usbAux.h"
    2082 000745 AB31          MOV *(#_sysCtrlRegs), AR3 ; |1184| 
         000747 0000 
         000749 00!  
    2083 00074a A96B          MOV port(*AR3(T0)), AR1 ; |1184| 
         00074c 99   
    2084 00074d 7DFF          AND #0xfffc, AR1, AC0 ; |1184| 
         00074f FC09 
    2085 000751 C06B          MOV AC0, port(*AR3(T0)) ; |1184| 
         000753 9A   
    2086 000754       $C$L43:    
    2087                      .dwpsn  file "F:/eZDSP_5535_Files/ccsws2/test/c5535_bsl_revc/ezdsp5535_v1/c55xx_csl/inc/csl_usbAux.h"
    2088 000754 ED18          MOV dbl(*SP(#12)), XAR3
         000756 BF   
    2089 000757 ED10          MOV dbl(*SP(#8)), AC0 ; |1189| 
         000759 08   
    2090 00075a ED6D          ADD dbl(*AR3(#8)), AC0, AC0 ; |1189| 
         00075c 0000 
         00075e 08   
    2091 00075f EB6D          MOV AC0, dbl(*AR3(#8)) ; |1189| 
         000761 0800 
         000763 08   
    2092                      .dwpsn  file "F:/eZDSP_5535_Files/ccsws2/test/c5535_bsl_revc/ezdsp5535_v1/c55xx_csl/inc/csl_usbAux.h"
    2093 000764 ED18          MOV dbl(*SP(#12)), XAR3
         000766 BF   
    2094 000767 ED10          MOV dbl(*SP(#8)), AC0 ; |1190| 
         000769 08   
    2095 00076a EB6D          MOV AC0, dbl(*AR3(#10)) ; |1190| 
         00076c 0800 
         00076e 0A   
    2096                      .dwpsn  file "F:/eZDSP_5535_Files/ccsws2/test/c5535_bsl_revc/ezdsp5535_v1/c55xx_csl/inc/csl_usbAux.h"
    2097 00076f ED18          MOV dbl(*SP(#12)), XAR3
         000771 BF   
    2098 000772 ED6D          MOV dbl(*AR3(#8)), AC1 ; |1192| 
         000774 1800 
         000776 08   
    2099 000777 ED7D          MOV dbl(*AR3(short(#6))), AC0 ; |1192| 
         000779 08   
    2100 00077a 1210          CMPU AC1 == AC0, TC1 ; |1192| 
         00077c 04   
    2101 00077d 62E4          BCC $C$L44,TC1 ; |1192| 
    2102                                                      ; branchcc occurs ; |1192| 
    2103 00077f ED10          MOV dbl(*SP(#8)), AC0 ; |1192| 
         000781 08   
    2104 000782 6290          BCC $C$L45,AC0 != #0 ; |1192| 
    2105                                                      ; branchcc occurs ; |1192| 
    2106 000784       $C$L44:    
    2107                      .dwpsn  file "F:/eZDSP_5535_Files/ccsws2/test/c5535_bsl_revc/ezdsp5535_v1/c55xx_csl/inc/csl_usbAux.h"
    2108 000784 E66D          MOV #1, *AR3(#12) ; |1195| 
         000786 0100 
         000788 0C   
    2109 000789       $C$L45:    
    2110                      .dwpsn  file "F:/eZDSP_5535_Files/ccsws2/test/c5535_bsl_revc/ezdsp5535_v1/c55xx_csl/inc/csl_usbAux.h"
    2111 000789 7604          MOV #1038, T0 ; |1199| 
         00078b 0E48 
TMS320C55x Assembler PC v4.4.1 Mon Aug 15 03:55:17 2016

Tools Copyright (c) 1996-2012 Texas Instruments Incorporated
usb.asm                                                              PAGE   50

    2112 00078d AB31          MOV *(#_usbRegisters), AR3 ; |1199| 
         00078f 0000 
         000791 00!  
    2113 000792 A96B          MOV port(*AR3(T0)), AR1 ; |1199| 
         000794 99   
    2114 000795 C91E          MOV AR1, *SP(#15) ; |1199| 
    2115                      .dwpsn  file "F:/eZDSP_5535_Files/ccsws2/test/c5535_bsl_revc/ezdsp5535_v1/c55xx_csl/inc/csl_usbAux.h"
    2116 000797 A96B          MOV port(*AR3(T0)), AR1 ; |1201| 
         000799 99   
    2117 00079a 7DFF          AND #0xfff0, AR1, AC0 ; |1201| 
         00079c F009 
    2118 00079e C06B          MOV AC0, port(*AR3(T0)) ; |1201| 
         0007a0 9A   
    2119                      .dwpsn  file "F:/eZDSP_5535_Files/ccsws2/test/c5535_bsl_revc/ezdsp5535_v1/c55xx_csl/inc/csl_usbAux.h"
    2120 0007a1 AB31          MOV *(#_usbRegisters), AR3 ; |1205| 
         0007a3 0000 
         0007a5 00!  
    2121 0007a6 ED04          MOV dbl(*SP(#2)), AC0 ; |1205| 
         0007a8 08   
    2122 0007a9 180F          AND #0x000f, AC0, AC0 ; |1205| 
         0007ab 00   
    2123 0007ac A96B          MOV port(*AR3(T0)), AR1 ; |1205| 
         0007ae 99   
    2124 0007af 7DFF          AND #0xfff0, AR1, AC1 ; |1205| 
         0007b1 F019 
    2125 0007b3 2A10          OR AC1, AC0 ; |1205| 
    2126 0007b5 C06B          MOV AC0, port(*AR3(T0)) ; |1205| 
         0007b7 9A   
    2127                      .dwpsn  file "F:/eZDSP_5535_Files/ccsws2/test/c5535_bsl_revc/ezdsp5535_v1/c55xx_csl/inc/csl_usbAux.h"
    2128 0007b8 ED20          MOV dbl(*SP(#16)), XAR3
         0007ba BF   
    2129 0007bb F075          CMP *AR3(short(#2)) == #3, TC1 ; |1208| 
         0007bd 0003 
    2130 0007bf 6774          BCC $C$L46,!TC1 ; |1208| 
    2131                                                      ; branchcc occurs ; |1208| 
    2132                      .dwpsn  file "F:/eZDSP_5535_Files/ccsws2/test/c5535_bsl_revc/ezdsp5535_v1/c55xx_csl/inc/csl_usbAux.h"
    2133 0007c1 7604          MOV #1046, T0 ; |1211| 
         0007c3 1648 
    2134 0007c5 AB31          MOV *(#_usbRegisters), AR3 ; |1211| 
         0007c7 0000 
         0007c9 00!  
    2135 0007ca F56B          OR #0x0080, port(*AR3(T0)) ; |1211| 
         0007cc 0080 
         0007ce 9A   
    2136 0007cf       $C$L46:    
    2137                      .dwpsn  file "F:/eZDSP_5535_Files/ccsws2/test/c5535_bsl_revc/ezdsp5535_v1/c55xx_csl/inc/csl_usbAux.h"
    2138 0007cf 7604          MOV #1046, T0 ; |1215| 
         0007d1 1648 
    2139 0007d3 AB31          MOV *(#_usbRegisters), AR3 ; |1215| 
         0007d5 0000 
         0007d7 00!  
    2140 0007d8 A96B          MOV port(*AR3(T0)), AR1 ; |1215| 
         0007da 99   
    2141 0007db EC00          BCLR @#0, AR1 ; |1215| 
         0007dd 92   
TMS320C55x Assembler PC v4.4.1 Mon Aug 15 03:55:17 2016

Tools Copyright (c) 1996-2012 Texas Instruments Incorporated
usb.asm                                                              PAGE   51

    2142 0007de C96B          MOV AR1, port(*AR3(T0)) ; |1215| 
         0007e0 9A   
    2143                      .dwpsn  file "F:/eZDSP_5535_Files/ccsws2/test/c5535_bsl_revc/ezdsp5535_v1/c55xx_csl/inc/csl_usbAux.h"
    2144 0007e1 7604          MOV #1038, T0 ; |1219| 
         0007e3 0E48 
    2145 0007e5 AB31          MOV *(#_usbRegisters), AR3 ; |1219| 
         0007e7 0000 
         0007e9 00!  
    2146 0007ea A91E          MOV *SP(#15), AR1 ; |1219| 
    2147 0007ec C96B          MOV AR1, port(*AR3(T0)) ; |1219| 
         0007ee 9A   
    2148                      .dwpsn  file "F:/eZDSP_5535_Files/ccsws2/test/c5535_bsl_revc/ezdsp5535_v1/c55xx_csl/inc/csl_usbAux.h"
    2149 0007ef ED18          MOV dbl(*SP(#12)), XAR3
         0007f1 BF   
    2150 0007f2 F06D          CMP *AR3(#12) == #1, TC1 ; |1221| 
         0007f4 0001 
         0007f6 000C 
    2151 0007f8 0474          BCC $C$L49,!TC1 ; |1221| 
         0007fa 22   
    2152                                                      ; branchcc occurs ; |1221| 
    2153                      .dwpsn  file "F:/eZDSP_5535_Files/ccsws2/test/c5535_bsl_revc/ezdsp5535_v1/c55xx_csl/inc/csl_usbAux.h"
    2154 0007fb ED00          MOV dbl(*SP(#0)), XAR3
         0007fd BF   
    2155 0007fe E67D          MOV #0, *AR3(short(#6)) ; |1223| 
         000800 00   
    2156                      .dwpsn  file "F:/eZDSP_5535_Files/ccsws2/test/c5535_bsl_revc/ezdsp5535_v1/c55xx_csl/inc/csl_usbAux.h"
    2157 000801 ED00          MOV dbl(*SP(#0)), XAR3
         000803 BF   
    2158 000804 ED00          MOV dbl(*SP(#0)), XAR0
         000806 8F   
    2159 000807 ED20          MOV dbl(*SP(#16)), XAR1
         000809 9F   
    2160 00080a ED6D          MOV dbl(*AR3(#116)), AC0 ; |1234| 
         00080c 0800 
         00080e 74   
    2161              $C$DW$183       .dwtag  DW_TAG_TI_branch
    2162                      .dwattr $C$DW$183, DW_AT_low_pc(0x00)
    2163                      .dwattr $C$DW$183, DW_AT_TI_call
    2164                      .dwattr $C$DW$183, DW_AT_TI_indirect
    2165 00080f 9200          CALL AC0  ; |1234| 
    2166                                                      ; call occurs [AC0] ; |1234| 
    2167 000811 C41C          MOV T0, *SP(#14) ; |1234| 
    2168                      .dwpsn  file "F:/eZDSP_5535_Files/ccsws2/test/c5535_bsl_revc/ezdsp5535_v1/c55xx_csl/inc/csl_usbAux.h"
    2169 000813 4A08          B $C$L49  ; |1237| 
    2170                                                      ; branch occurs ; |1237| 
    2171 000815       $C$L47:    
    2172                      .dwpsn  file "F:/eZDSP_5535_Files/ccsws2/test/c5535_bsl_revc/ezdsp5535_v1/c55xx_csl/inc/csl_usbAux.h"
    2173 000815 E61C          MOV #-6, *SP(#14) ; |1240| 
         000817 FA   
    2174                      .dwpsn  file "F:/eZDSP_5535_Files/ccsws2/test/c5535_bsl_revc/ezdsp5535_v1/c55xx_csl/inc/csl_usbAux.h"
    2175 000818 4A03          B $C$L49  ; |1242| 
    2176                                                      ; branch occurs ; |1242| 
    2177 00081a       $C$L48:    
    2178                      .dwpsn  file "F:/eZDSP_5535_Files/ccsws2/test/c5535_bsl_revc/ezdsp5535_v1/c55xx_csl/inc/csl_usbAux.h"
    2179 00081a E61C          MOV #-6, *SP(#14) ; |1245| 
TMS320C55x Assembler PC v4.4.1 Mon Aug 15 03:55:17 2016

Tools Copyright (c) 1996-2012 Texas Instruments Incorporated
usb.asm                                                              PAGE   52

         00081c FA   
    2180 00081d       $C$L49:    
    2181                      .dwpsn  file "F:/eZDSP_5535_Files/ccsws2/test/c5535_bsl_revc/ezdsp5535_v1/c55xx_csl/inc/csl_usbAux.h"
    2182 00081d A41C          MOV *SP(#14), T0 ; |1248| 
    2183                      .dwpsn  file "F:/eZDSP_5535_Files/ccsws2/test/c5535_bsl_revc/ezdsp5535_v1/c55xx_csl/inc/csl_usbAux.h"
    2184 00081f 4E15          AADD #21, SP
    2185                      .dwcfi  cfa_offset, 1
    2186              $C$DW$184       .dwtag  DW_TAG_TI_branch
    2187                      .dwattr $C$DW$184, DW_AT_low_pc(0x00)
    2188                      .dwattr $C$DW$184, DW_AT_TI_return
    2189 000821 4804          RET
    2190                                                      ; return occurs
    2191              
    2192              $C$DW$185       .dwtag  DW_TAG_TI_loop
    2193                      .dwattr $C$DW$185, DW_AT_name("F:\eZDSP_5535_Files\ccsws2\test\Debug\usb.asm:$C$L41:1:1471258514")
    2194                      .dwattr $C$DW$185, DW_AT_TI_begin_file("F:/eZDSP_5535_Files/ccsws2/test/c5535_bsl_revc/ezdsp5535_v1/c
    2195                      .dwattr $C$DW$185, DW_AT_TI_begin_line(0x493)
    2196                      .dwattr $C$DW$185, DW_AT_TI_end_line(0x496)
    2197              $C$DW$186       .dwtag  DW_TAG_TI_loop_range
    2198                      .dwattr $C$DW$186, DW_AT_low_pc($C$DW$L$_USB_handleRx$15$B)
    2199                      .dwattr $C$DW$186, DW_AT_high_pc($C$DW$L$_USB_handleRx$15$E)
    2200                      .dwendtag $C$DW$185
    2201              
    2202                      .dwattr $C$DW$166, DW_AT_TI_end_file("F:/eZDSP_5535_Files/ccsws2/test/c5535_bsl_revc/ezdsp5535_v1/c55
    2203                      .dwattr $C$DW$166, DW_AT_TI_end_line(0x4e1)
    2204                      .dwattr $C$DW$166, DW_AT_TI_end_column(0x01)
    2205                      .dwendentry
    2206                      .dwendtag $C$DW$166
    2207              
    2208 000823               .sect   ".text"
    2209                      .align 4
    2210                      .global _usb_test
    2211              
    2212              $C$DW$187       .dwtag  DW_TAG_subprogram, DW_AT_name("usb_test")
    2213                      .dwattr $C$DW$187, DW_AT_low_pc(_usb_test)
    2214                      .dwattr $C$DW$187, DW_AT_high_pc(0x00)
    2215                      .dwattr $C$DW$187, DW_AT_TI_symbol_name("_usb_test")
    2216                      .dwattr $C$DW$187, DW_AT_external
    2217                      .dwattr $C$DW$187, DW_AT_type(*$C$DW$T$80)
    2218                      .dwattr $C$DW$187, DW_AT_TI_begin_file("../c5535_bsl_revc/ezdsp5535_v1/boot_post_SDcard/boot_post/usb
    2219                      .dwattr $C$DW$187, DW_AT_TI_begin_line(0x9e)
    2220                      .dwattr $C$DW$187, DW_AT_TI_begin_column(0x0c)
    2221                      .dwattr $C$DW$187, DW_AT_TI_max_frame_size(0x0e)
    2222                      .dwpsn  file "../c5535_bsl_revc/ezdsp5535_v1/boot_post_SDcard/boot_post/usb.c",line 159,column 1,is_s
    2223              
    2224                      .dwfde $C$DW$CIE, _usb_test
    2225              ;*******************************************************************************
    2226              ;* FUNCTION NAME: usb_test                                                     *
    2227              ;*                                                                             *
    2228              ;*   Function Uses Regs : AC0,AC0,T0,T1,AR0,XAR0,AR1,AR2,AR3,XAR3,SP,TC1,M40,  *
    2229              ;*                        SATA,SATD,RDM,FRCT,SMUL                              *
    2230              ;*   Stack Frame        : Compact (No Frame Pointer, w/ debug)                 *
    2231              ;*   Total Frame Size   : 14 words                                             *
    2232              ;*                        (2 return address/alignment)                         *
    2233              ;*                        (2 function parameters)                              *
TMS320C55x Assembler PC v4.4.1 Mon Aug 15 03:55:17 2016

Tools Copyright (c) 1996-2012 Texas Instruments Incorporated
usb.asm                                                              PAGE   53

    2234              ;*                        (10 local values)                                    *
    2235              ;*   Min System Stack   : 1 word                                               *
    2236              ;*******************************************************************************
    2237 000824       _usb_test:
    2238                      .dwcfi  cfa_offset, 1
    2239                      .dwcfi  save_reg_to_mem, 91, -1
    2240 000824 4EF3          AADD #-13, SP
    2241                      .dwcfi  cfa_offset, 14
    2242              $C$DW$188       .dwtag  DW_TAG_variable, DW_AT_name("config")
    2243                      .dwattr $C$DW$188, DW_AT_TI_symbol_name("_config")
    2244                      .dwattr $C$DW$188, DW_AT_type(*$C$DW$T$141)
    2245                      .dwattr $C$DW$188, DW_AT_location[DW_OP_bregx 0x24 2]
    2246              $C$DW$189       .dwtag  DW_TAG_variable, DW_AT_name("result")
    2247                      .dwattr $C$DW$189, DW_AT_TI_symbol_name("_result")
    2248                      .dwattr $C$DW$189, DW_AT_type(*$C$DW$T$80)
    2249                      .dwattr $C$DW$189, DW_AT_location[DW_OP_bregx 0x24 10]
    2250              $C$DW$190       .dwtag  DW_TAG_variable, DW_AT_name("eventMask")
    2251                      .dwattr $C$DW$190, DW_AT_TI_symbol_name("_eventMask")
    2252                      .dwattr $C$DW$190, DW_AT_type(*$C$DW$T$19)
    2253                      .dwattr $C$DW$190, DW_AT_location[DW_OP_bregx 0x24 11]
    2254                      .dwpsn  file "../c5535_bsl_revc/ezdsp5535_v1/boot_post_SDcard/boot_post/usb.c",line 164,column 2,is_s
    2255 000826 E614          MOV #1, *SP(#10) ; |164| 
         000828 01   
    2256                      .dwpsn  file "../c5535_bsl_revc/ezdsp5535_v1/boot_post_SDcard/boot_post/usb.c",line 166,column 2,is_s
    2257 000829 E631          MOV #0, *(#(_usbConfig+1)) ; |166| 
         00082b 0000 
         00082d 0063-
    2258                      .dwpsn  file "../c5535_bsl_revc/ezdsp5535_v1/boot_post_SDcard/boot_post/usb.c",line 167,column 5,is_s
    2259 00082f E631          MOV #0, *(#_usbConfig) ; |167| 
         000831 0000 
         000833 0062-
    2260                      .dwpsn  file "../c5535_bsl_revc/ezdsp5535_v1/boot_post_SDcard/boot_post/usb.c",line 168,column 2,is_s
    2261 000835 E631          MOV #50, *(#(_usbConfig+2)) ; |168| 
         000837 3200 
         000839 0064-
    2262                      .dwpsn  file "../c5535_bsl_revc/ezdsp5535_v1/boot_post_SDcard/boot_post/usb.c",line 169,column 2,is_s
    2263 00083b 7A00          MOV #(_CSL_suspendCallBack >> 16) << #16, AC0 ; |169| 
         00083d 000A%
    2264 00083f 7E00          OR #(_CSL_suspendCallBack & 0xffff), AC0, AC0 ; |169| 
         000841 0000%
    2265 000843 EB31          MOV AC0, dbl(*(#(_usbConfig+4))) ; |169| 
         000845 0800 
         000847 0066-
    2266                      .dwpsn  file "../c5535_bsl_revc/ezdsp5535_v1/boot_post_SDcard/boot_post/usb.c",line 170,column 2,is_s
    2267 000849 7A00          MOV #(_CSL_selfWakeupCallBack >> 16) << #16, AC0 ; |170| 
         00084b 000A%
    2268 00084d 7E00          OR #(_CSL_selfWakeupCallBack & 0xffff), AC0, AC0 ; |170| 
         00084f 0000%
    2269 000851 EB31          MOV AC0, dbl(*(#(_usbConfig+6))) ; |170| 
         000853 0800 
         000855 0068-
    2270                      .dwpsn  file "../c5535_bsl_revc/ezdsp5535_v1/boot_post_SDcard/boot_post/usb.c",line 171,column 2,is_s
    2271 000857 7A00          MOV #(_CSL_startTransferCallback >> 16) << #16, AC0 ; |171| 
         000859 000A%
    2272 00085b 7E00          OR #(_CSL_startTransferCallback & 0xffff), AC0, AC0 ; |171| 
TMS320C55x Assembler PC v4.4.1 Mon Aug 15 03:55:17 2016

Tools Copyright (c) 1996-2012 Texas Instruments Incorporated
usb.asm                                                              PAGE   54

         00085d 0000%
    2273 00085f EB31          MOV AC0, dbl(*(#(_usbConfig+8))) ; |171| 
         000861 0800 
         000863 006A-
    2274                      .dwpsn  file "../c5535_bsl_revc/ezdsp5535_v1/boot_post_SDcard/boot_post/usb.c",line 172,column 2,is_s
    2275 000865 7A00          MOV #(_CSL_completeTransferCallback >> 16) << #16, AC0 ; |172| 
         000867 000A%
    2276 000869 7E00          OR #(_CSL_completeTransferCallback & 0xffff), AC0, AC0 ; |172| 
         00086b 0000%
    2277 00086d EB31          MOV AC0, dbl(*(#(_usbConfig+10))) ; |172| 
         00086f 0800 
         000871 006C-
    2278                      .dwpsn  file "../c5535_bsl_revc/ezdsp5535_v1/boot_post_SDcard/boot_post/usb.c",line 174,column 2,is_s
    2279 000873 EC31          AMOV #_usbCtrlOutEpObj, XAR3 ; |174| 
         000875 BE00 
         000877 0012-
    2280 000879 EB31          MOV XAR3, dbl(*(#_hEpObjArray))
         00087b B500 
         00087d 0000-
    2281                      .dwpsn  file "../c5535_bsl_revc/ezdsp5535_v1/boot_post_SDcard/boot_post/usb.c",line 175,column 2,is_s
    2282 00087f EC31          AMOV #_usbCtrlInEpObj, XAR3 ; |175| 
         000881 BE00 
         000883 0026-
    2283 000885 EB31          MOV XAR3, dbl(*(#(_hEpObjArray+2)))
         000887 B500 
         000889 0002-
    2284                      .dwpsn  file "../c5535_bsl_revc/ezdsp5535_v1/boot_post_SDcard/boot_post/usb.c",line 176,column 2,is_s
    2285 00088b EC31          AMOV #_usbBulkOutEpObj, XAR3 ; |176| 
         00088d BE00 
         00088f 003A-
    2286 000891 EB31          MOV XAR3, dbl(*(#(_hEpObjArray+4)))
         000893 B500 
         000895 0004-
    2287                      .dwpsn  file "../c5535_bsl_revc/ezdsp5535_v1/boot_post_SDcard/boot_post/usb.c",line 177,column 2,is_s
    2288 000897 EC31          AMOV #_usbBulkInEpObj, XAR3 ; |177| 
         000899 BE00 
         00089b 004E-
    2289 00089d EB31          MOV XAR3, dbl(*(#(_hEpObjArray+6)))
         00089f B500 
         0008a1 0006-
    2290                      .dwpsn  file "../c5535_bsl_revc/ezdsp5535_v1/boot_post_SDcard/boot_post/usb.c",line 180,column 2,is_s
    2291 0008a3 7A00          MOV #(_VECSTART >> 16) << #16, AC0 ; |180| 
         0008a5 000A%
    2292 0008a7 7E00          OR #(_VECSTART & 0xffff), AC0, AC0 ; |180| 
         0008a9 0000%
    2293              $C$DW$191       .dwtag  DW_TAG_TI_branch
    2294                      .dwattr $C$DW$191, DW_AT_low_pc(0x00)
    2295                      .dwattr $C$DW$191, DW_AT_name("_IRQ_setVecs")
    2296                      .dwattr $C$DW$191, DW_AT_TI_call
    2297 0008ab 6C00          CALL #_IRQ_setVecs ; |180| 
         0008ad 0000!
    2298                                                      ; call occurs [#_IRQ_setVecs] ; |180| 
    2299                      .dwpsn  file "../c5535_bsl_revc/ezdsp5535_v1/boot_post_SDcard/boot_post/usb.c",line 183,column 2,is_s
    2300 0008af 7A00          MOV #(_usb_isr >> 16) << #16, AC0 ; |183| 
         0008b1 000A%
TMS320C55x Assembler PC v4.4.1 Mon Aug 15 03:55:17 2016

Tools Copyright (c) 1996-2012 Texas Instruments Incorporated
usb.asm                                                              PAGE   55

    2301 0008b3 7E00          OR #(_usb_isr & 0xffff), AC0, AC0 ; |183| 
         0008b5 0000%
    2302 0008b7 EB04          MOV AC0, dbl(*SP(#2)) ; |183| 
         0008b9 08   
    2303                      .dwpsn  file "../c5535_bsl_revc/ezdsp5535_v1/boot_post_SDcard/boot_post/usb.c",line 184,column 2,is_s
    2304 0008ba 7600          MOV #20, T0 ; |184| 
         0008bc 1448 
    2305 0008be ED04          MOV dbl(*SP(#2)), AC0 ; |184| 
         0008c0 08   
    2306              $C$DW$192       .dwtag  DW_TAG_TI_branch
    2307                      .dwattr $C$DW$192, DW_AT_low_pc(0x00)
    2308                      .dwattr $C$DW$192, DW_AT_name("_IRQ_plug")
    2309                      .dwattr $C$DW$192, DW_AT_TI_call
    2310 0008c1 6C00          CALL #_IRQ_plug ; |184| 
         0008c3 0000!
    2311                                                      ; call occurs [#_IRQ_plug] ; |184| 
    2312                      .dwpsn  file "../c5535_bsl_revc/ezdsp5535_v1/boot_post_SDcard/boot_post/usb.c",line 187,column 2,is_s
    2313 0008c5 7600          MOV #20, T0 ; |187| 
         0008c7 1448 
    2314              $C$DW$193       .dwtag  DW_TAG_TI_branch
    2315                      .dwattr $C$DW$193, DW_AT_low_pc(0x00)
    2316                      .dwattr $C$DW$193, DW_AT_name("_IRQ_enable")
    2317                      .dwattr $C$DW$193, DW_AT_TI_call
    2318 0008c9 6C00          CALL #_IRQ_enable ; |187| 
         0008cb 0000!
    2319                                                      ; call occurs [#_IRQ_enable] ; |187| 
    2320                      .dwpsn  file "../c5535_bsl_revc/ezdsp5535_v1/boot_post_SDcard/boot_post/usb.c",line 189,column 2,is_s
    2321              $C$DW$194       .dwtag  DW_TAG_TI_branch
    2322                      .dwattr $C$DW$194, DW_AT_low_pc(0x00)
    2323                      .dwattr $C$DW$194, DW_AT_name("_IRQ_globalEnable")
    2324                      .dwattr $C$DW$194, DW_AT_TI_call
    2325 0008cd 6C00          CALL #_IRQ_globalEnable ; |189| 
         0008cf 0000!
    2326                                                      ; call occurs [#_IRQ_globalEnable] ; |189| 
    2327                      .dwpsn  file "../c5535_bsl_revc/ezdsp5535_v1/boot_post_SDcard/boot_post/usb.c",line 192,column 2,is_s
    2328 0008d1 EC31          AMOV #_usbConfig, XAR0 ; |192| 
         0008d3 8E00 
         0008d5 0062-
    2329              $C$DW$195       .dwtag  DW_TAG_TI_branch
    2330                      .dwattr $C$DW$195, DW_AT_low_pc(0x00)
    2331                      .dwattr $C$DW$195, DW_AT_name("_USB_init")
    2332                      .dwattr $C$DW$195, DW_AT_TI_call
    2333 0008d7 6C00          CALL #_USB_init ; |192| 
         0008d9 0000!
    2334                                                      ; call occurs [#_USB_init] ; |192| 
    2335 0008db C431          MOV T0, *(#_status) ; |192| 
         0008dd 0000 
         0008df 75-  
    2336                      .dwpsn  file "../c5535_bsl_revc/ezdsp5535_v1/boot_post_SDcard/boot_post/usb.c",line 193,column 2,is_s
    2337 0008e0 2249          MOV T0, AR1
    2338 0008e2 0409          BCC $C$L50,AR1 == #0 ; |193| 
         0008e4 12   
    2339                                                      ; branchcc occurs ; |193| 
    2340                      .dwpsn  file "../c5535_bsl_revc/ezdsp5535_v1/boot_post_SDcard/boot_post/usb.c",line 195,column 3,is_s
    2341 0008e5 EC31          AMOV #$C$FSL1, XAR3 ; |195| 
TMS320C55x Assembler PC v4.4.1 Mon Aug 15 03:55:17 2016

Tools Copyright (c) 1996-2012 Texas Instruments Incorporated
usb.asm                                                              PAGE   56

         0008e7 BE00 
         0008e9 0000+
    2342 0008eb EB00          MOV XAR3, dbl(*SP(#0))
         0008ed B5   
    2343              $C$DW$196       .dwtag  DW_TAG_TI_branch
    2344                      .dwattr $C$DW$196, DW_AT_low_pc(0x00)
    2345                      .dwattr $C$DW$196, DW_AT_name("_printf")
    2346                      .dwattr $C$DW$196, DW_AT_TI_call
    2347 0008ee 6C00          CALL #_printf ; |195| 
         0008f0 0000!
    2348                                                      ; call occurs [#_printf] ; |195| 
    2349                      .dwpsn  file "../c5535_bsl_revc/ezdsp5535_v1/boot_post_SDcard/boot_post/usb.c",line 196,column 3,is_s
    2350 0008f2 A414          MOV *SP(#10), T0 ; |196| 
    2351 0008f4 0601          B $C$L60  ; |196| 
         0008f6 9C   
    2352                                                      ; branch occurs ; |196| 
    2353 0008f7       $C$L50:    
    2354                      .dwpsn  file "../c5535_bsl_revc/ezdsp5535_v1/boot_post_SDcard/boot_post/usb.c",line 200,column 2,is_s
    2355              $C$DW$197       .dwtag  DW_TAG_TI_branch
    2356                      .dwattr $C$DW$197, DW_AT_low_pc(0x00)
    2357                      .dwattr $C$DW$197, DW_AT_name("_USB_resetDev")
    2358                      .dwattr $C$DW$197, DW_AT_TI_call
    2359              
    2360 0008f7 6C00          CALL #_USB_resetDev ; |200| 
         0008f9 0000!
    2361 0008fb 3D04  ||      MOV #0, T0
    2362              
    2363                                                      ; call occurs [#_USB_resetDev] ; |200| 
    2364 0008fd C431          MOV T0, *(#_status) ; |200| 
         0008ff 0000 
         000901 75-  
    2365                      .dwpsn  file "../c5535_bsl_revc/ezdsp5535_v1/boot_post_SDcard/boot_post/usb.c",line 201,column 2,is_s
    2366 000902 2249          MOV T0, AR1
    2367 000904 0409          BCC $C$L51,AR1 == #0 ; |201| 
         000906 12   
    2368                                                      ; branchcc occurs ; |201| 
    2369                      .dwpsn  file "../c5535_bsl_revc/ezdsp5535_v1/boot_post_SDcard/boot_post/usb.c",line 203,column 3,is_s
    2370 000907 EC31          AMOV #$C$FSL2, XAR3 ; |203| 
         000909 BE00 
         00090b 0012+
    2371 00090d EB00          MOV XAR3, dbl(*SP(#0))
         00090f B5   
    2372              $C$DW$198       .dwtag  DW_TAG_TI_branch
    2373                      .dwattr $C$DW$198, DW_AT_low_pc(0x00)
    2374                      .dwattr $C$DW$198, DW_AT_name("_printf")
    2375                      .dwattr $C$DW$198, DW_AT_TI_call
    2376 000910 6C00          CALL #_printf ; |203| 
         000912 0000!
    2377                                                      ; call occurs [#_printf] ; |203| 
    2378                      .dwpsn  file "../c5535_bsl_revc/ezdsp5535_v1/boot_post_SDcard/boot_post/usb.c",line 204,column 3,is_s
    2379 000914 A414          MOV *SP(#10), T0 ; |204| 
    2380 000916 0601          B $C$L60  ; |204| 
         000918 7A   
    2381                                                      ; branch occurs ; |204| 
    2382 000919       $C$L51:    
TMS320C55x Assembler PC v4.4.1 Mon Aug 15 03:55:17 2016

Tools Copyright (c) 1996-2012 Texas Instruments Incorporated
usb.asm                                                              PAGE   57

    2383                      .dwpsn  file "../c5535_bsl_revc/ezdsp5535_v1/boot_post_SDcard/boot_post/usb.c",line 208,column 2,is_s
    2384 000919 E616          MOV #61, *SP(#11) ; |208| 
         00091b 3D   
    2385                      .dwpsn  file "../c5535_bsl_revc/ezdsp5535_v1/boot_post_SDcard/boot_post/usb.c",line 212,column 2,is_s
    2386 00091c ED31          MOV dbl(*(#_hEpObjArray)), XAR0
         00091e 8F00 
         000920 0000-
    2387 000922 3C05          MOV #0, T1
    2388              
    2389 000928 3D04          MOV #0, T0
    2390 000924 7600  ||      MOV #64, AR2 ; |212| 
         000926 40A8 
    2391              
    2392 00092a AB16          MOV *SP(#11), AR3 ; |212| 
    2393 00092c 3D09  ||      MOV #0, AR1
    2394              
    2395              $C$DW$199       .dwtag  DW_TAG_TI_branch
    2396                      .dwattr $C$DW$199, DW_AT_low_pc(0x00)
    2397                      .dwattr $C$DW$199, DW_AT_name("_USB_initEndptObj")
    2398                      .dwattr $C$DW$199, DW_AT_TI_call
    2399              
    2400 00092e 6C00          CALL #_USB_initEndptObj ; |212| 
         000930 0000!
    2401 000932 3D00  ||      MOV #0, AC0 ; |212| 
    2402              
    2403                                                      ; call occurs [#_USB_initEndptObj] ; |212| 
    2404 000934 C431          MOV T0, *(#_status) ; |212| 
         000936 0000 
         000938 75-  
    2405                      .dwpsn  file "../c5535_bsl_revc/ezdsp5535_v1/boot_post_SDcard/boot_post/usb.c",line 215,column 2,is_s
    2406 000939 2249          MOV T0, AR1
    2407 00093b 0409          BCC $C$L52,AR1 == #0 ; |215| 
         00093d 12   
    2408                                                      ; branchcc occurs ; |215| 
    2409                      .dwpsn  file "../c5535_bsl_revc/ezdsp5535_v1/boot_post_SDcard/boot_post/usb.c",line 217,column 3,is_s
    2410 00093e EC31          AMOV #$C$FSL3, XAR3 ; |217| 
         000940 BE00 
         000942 0024+
    2411 000944 EB00          MOV XAR3, dbl(*SP(#0))
         000946 B5   
    2412              $C$DW$200       .dwtag  DW_TAG_TI_branch
    2413                      .dwattr $C$DW$200, DW_AT_low_pc(0x00)
    2414                      .dwattr $C$DW$200, DW_AT_name("_printf")
    2415                      .dwattr $C$DW$200, DW_AT_TI_call
    2416 000947 6C00          CALL #_printf ; |217| 
         000949 0000!
    2417                                                      ; call occurs [#_printf] ; |217| 
    2418                      .dwpsn  file "../c5535_bsl_revc/ezdsp5535_v1/boot_post_SDcard/boot_post/usb.c",line 218,column 3,is_s
    2419 00094b A414          MOV *SP(#10), T0 ; |218| 
    2420 00094d 0601          B $C$L60  ; |218| 
         00094f 43   
    2421                                                      ; branch occurs ; |218| 
    2422 000950       $C$L52:    
    2423                      .dwpsn  file "../c5535_bsl_revc/ezdsp5535_v1/boot_post_SDcard/boot_post/usb.c",line 222,column 2,is_s
    2424 000950 ED31          MOV dbl(*(#(_hEpObjArray+2))), XAR0
TMS320C55x Assembler PC v4.4.1 Mon Aug 15 03:55:17 2016

Tools Copyright (c) 1996-2012 Texas Instruments Incorporated
usb.asm                                                              PAGE   58

         000952 8F00 
         000954 0002-
    2425 000956 3C09          MOV #0, AR1
    2426              
    2427 00095c 3D85          MOV #8, T1
    2428 000958 7600  ||      MOV #64, AR2 ; |222| 
         00095a 40A8 
    2429              
    2430 000962 3D04          MOV #0, T0
    2431 00095e 7600  ||      MOV #32, AR3 ; |222| 
         000960 20B8 
    2432              
    2433              $C$DW$201       .dwtag  DW_TAG_TI_branch
    2434                      .dwattr $C$DW$201, DW_AT_low_pc(0x00)
    2435                      .dwattr $C$DW$201, DW_AT_name("_USB_initEndptObj")
    2436                      .dwattr $C$DW$201, DW_AT_TI_call
    2437              
    2438 000964 6C00          CALL #_USB_initEndptObj ; |222| 
         000966 0000!
    2439 000968 3D00  ||      MOV #0, AC0 ; |222| 
    2440              
    2441                                                      ; call occurs [#_USB_initEndptObj] ; |222| 
    2442 00096a C431          MOV T0, *(#_status) ; |222| 
         00096c 0000 
         00096e 75-  
    2443                      .dwpsn  file "../c5535_bsl_revc/ezdsp5535_v1/boot_post_SDcard/boot_post/usb.c",line 225,column 2,is_s
    2444 00096f 2249          MOV T0, AR1
    2445 000971 0409          BCC $C$L53,AR1 == #0 ; |225| 
         000973 12   
    2446                                                      ; branchcc occurs ; |225| 
    2447                      .dwpsn  file "../c5535_bsl_revc/ezdsp5535_v1/boot_post_SDcard/boot_post/usb.c",line 227,column 3,is_s
    2448 000974 EC31          AMOV #$C$FSL3, XAR3 ; |227| 
         000976 BE00 
         000978 0024+
    2449 00097a EB00          MOV XAR3, dbl(*SP(#0))
         00097c B5   
    2450              $C$DW$202       .dwtag  DW_TAG_TI_branch
    2451                      .dwattr $C$DW$202, DW_AT_low_pc(0x00)
    2452                      .dwattr $C$DW$202, DW_AT_name("_printf")
    2453                      .dwattr $C$DW$202, DW_AT_TI_call
    2454 00097d 6C00          CALL #_printf ; |227| 
         00097f 0000!
    2455                                                      ; call occurs [#_printf] ; |227| 
    2456                      .dwpsn  file "../c5535_bsl_revc/ezdsp5535_v1/boot_post_SDcard/boot_post/usb.c",line 228,column 3,is_s
    2457 000981 A414          MOV *SP(#10), T0 ; |228| 
    2458 000983 0601          B $C$L60  ; |228| 
         000985 0D   
    2459                                                      ; branch occurs ; |228| 
    2460 000986       $C$L53:    
    2461                      .dwpsn  file "../c5535_bsl_revc/ezdsp5535_v1/boot_post_SDcard/boot_post/usb.c",line 232,column 2,is_s
    2462 000986 E616          MOV #33, *SP(#11) ; |232| 
         000988 21   
    2463                      .dwpsn  file "../c5535_bsl_revc/ezdsp5535_v1/boot_post_SDcard/boot_post/usb.c",line 233,column 2,is_s
    2464 000989 ED31          MOV dbl(*(#(_hEpObjArray+4))), XAR0
         00098b 8F00 
TMS320C55x Assembler PC v4.4.1 Mon Aug 15 03:55:17 2016

Tools Copyright (c) 1996-2012 Texas Instruments Incorporated
usb.asm                                                              PAGE   59

         00098d 0004-
    2465 00098f 3C95          MOV #9, T1
    2466              
    2467 000995 3D04          MOV #0, T0
    2468 000991 7600  ||      MOV #64, AR2 ; |233| 
         000993 40A8 
    2469              
    2470 000997 AB16          MOV *SP(#11), AR3 ; |233| 
    2471 000999 3D19  ||      MOV #1, AR1
    2472              
    2473              $C$DW$203       .dwtag  DW_TAG_TI_branch
    2474                      .dwattr $C$DW$203, DW_AT_low_pc(0x00)
    2475                      .dwattr $C$DW$203, DW_AT_name("_USB_initEndptObj")
    2476                      .dwattr $C$DW$203, DW_AT_TI_call
    2477              
    2478 00099b 6C00          CALL #_USB_initEndptObj ; |233| 
         00099d 0000!
    2479 00099f 3D00  ||      MOV #0, AC0 ; |233| 
    2480              
    2481                                                      ; call occurs [#_USB_initEndptObj] ; |233| 
    2482 0009a1 C431          MOV T0, *(#_status) ; |233| 
         0009a3 0000 
         0009a5 75-  
    2483                      .dwpsn  file "../c5535_bsl_revc/ezdsp5535_v1/boot_post_SDcard/boot_post/usb.c",line 236,column 2,is_s
    2484 0009a6 2249          MOV T0, AR1
    2485 0009a8 0409          BCC $C$L54,AR1 == #0 ; |236| 
         0009aa 12   
    2486                                                      ; branchcc occurs ; |236| 
    2487                      .dwpsn  file "../c5535_bsl_revc/ezdsp5535_v1/boot_post_SDcard/boot_post/usb.c",line 238,column 3,is_s
    2488 0009ab EC31          AMOV #$C$FSL3, XAR3 ; |238| 
         0009ad BE00 
         0009af 0024+
    2489 0009b1 EB00          MOV XAR3, dbl(*SP(#0))
         0009b3 B5   
    2490              $C$DW$204       .dwtag  DW_TAG_TI_branch
    2491                      .dwattr $C$DW$204, DW_AT_low_pc(0x00)
    2492                      .dwattr $C$DW$204, DW_AT_name("_printf")
    2493                      .dwattr $C$DW$204, DW_AT_TI_call
    2494 0009b4 6C00          CALL #_printf ; |238| 
         0009b6 0000!
    2495                                                      ; call occurs [#_printf] ; |238| 
    2496                      .dwpsn  file "../c5535_bsl_revc/ezdsp5535_v1/boot_post_SDcard/boot_post/usb.c",line 239,column 3,is_s
    2497 0009b8 A414          MOV *SP(#10), T0 ; |239| 
    2498 0009ba 0600          B $C$L60  ; |239| 
         0009bc D6   
    2499                                                      ; branch occurs ; |239| 
    2500 0009bd       $C$L54:    
    2501                      .dwpsn  file "../c5535_bsl_revc/ezdsp5535_v1/boot_post_SDcard/boot_post/usb.c",line 243,column 2,is_s
    2502 0009bd ED31          MOV dbl(*(#(_hEpObjArray+6))), XAR0
         0009bf 8F00 
         0009c1 0006-
    2503 0009c3 3C19          MOV #1, AR1
    2504              
    2505 0009c9 3D15          MOV #1, T1
    2506 0009c5 7600  ||      MOV #64, AR2 ; |243| 
TMS320C55x Assembler PC v4.4.1 Mon Aug 15 03:55:17 2016

Tools Copyright (c) 1996-2012 Texas Instruments Incorporated
usb.asm                                                              PAGE   60

         0009c7 40A8 
    2507              
    2508 0009cf 3D04          MOV #0, T0
    2509 0009cb 7600  ||      MOV #32, AR3 ; |243| 
         0009cd 20B8 
    2510              
    2511              $C$DW$205       .dwtag  DW_TAG_TI_branch
    2512                      .dwattr $C$DW$205, DW_AT_low_pc(0x00)
    2513                      .dwattr $C$DW$205, DW_AT_name("_USB_initEndptObj")
    2514                      .dwattr $C$DW$205, DW_AT_TI_call
    2515              
    2516 0009d1 6C00          CALL #_USB_initEndptObj ; |243| 
         0009d3 0000!
    2517 0009d5 3D00  ||      MOV #0, AC0 ; |243| 
    2518              
    2519                                                      ; call occurs [#_USB_initEndptObj] ; |243| 
    2520 0009d7 C431          MOV T0, *(#_status) ; |243| 
         0009d9 0000 
         0009db 75-  
    2521                      .dwpsn  file "../c5535_bsl_revc/ezdsp5535_v1/boot_post_SDcard/boot_post/usb.c",line 246,column 2,is_s
    2522 0009dc 2249          MOV T0, AR1
    2523 0009de 0409          BCC $C$L55,AR1 == #0 ; |246| 
         0009e0 12   
    2524                                                      ; branchcc occurs ; |246| 
    2525                      .dwpsn  file "../c5535_bsl_revc/ezdsp5535_v1/boot_post_SDcard/boot_post/usb.c",line 248,column 3,is_s
    2526 0009e1 EC31          AMOV #$C$FSL3, XAR3 ; |248| 
         0009e3 BE00 
         0009e5 0024+
    2527 0009e7 EB00          MOV XAR3, dbl(*SP(#0))
         0009e9 B5   
    2528              $C$DW$206       .dwtag  DW_TAG_TI_branch
    2529                      .dwattr $C$DW$206, DW_AT_low_pc(0x00)
    2530                      .dwattr $C$DW$206, DW_AT_name("_printf")
    2531                      .dwattr $C$DW$206, DW_AT_TI_call
    2532 0009ea 6C00          CALL #_printf ; |248| 
         0009ec 0000!
    2533                                                      ; call occurs [#_printf] ; |248| 
    2534                      .dwpsn  file "../c5535_bsl_revc/ezdsp5535_v1/boot_post_SDcard/boot_post/usb.c",line 249,column 3,is_s
    2535 0009ee A414          MOV *SP(#10), T0 ; |249| 
    2536 0009f0 0600          B $C$L60  ; |249| 
         0009f2 A0   
    2537                                                      ; branch occurs ; |249| 
    2538 0009f3       $C$L55:    
    2539                      .dwpsn  file "../c5535_bsl_revc/ezdsp5535_v1/boot_post_SDcard/boot_post/usb.c",line 253,column 2,is_s
    2540 0009f3 EC31          AMOV #_hEpObjArray, XAR0 ; |253| 
         0009f5 8E00 
         0009f7 0000-
    2541 0009f9 3C04          MOV #0, T0
    2542              $C$DW$207       .dwtag  DW_TAG_TI_branch
    2543                      .dwattr $C$DW$207, DW_AT_low_pc(0x00)
    2544                      .dwattr $C$DW$207, DW_AT_name("_USB_setParams")
    2545                      .dwattr $C$DW$207, DW_AT_TI_call
    2546              
    2547 0009fb 6C00          CALL #_USB_setParams ; |253| 
         0009fd 0000!
TMS320C55x Assembler PC v4.4.1 Mon Aug 15 03:55:17 2016

Tools Copyright (c) 1996-2012 Texas Instruments Incorporated
usb.asm                                                              PAGE   61

    2548 0009ff 3D05  ||      MOV #0, T1
    2549              
    2550                                                      ; call occurs [#_USB_setParams] ; |253| 
    2551 000a01 C431          MOV T0, *(#_status) ; |253| 
         000a03 0000 
         000a05 75-  
    2552                      .dwpsn  file "../c5535_bsl_revc/ezdsp5535_v1/boot_post_SDcard/boot_post/usb.c",line 254,column 2,is_s
    2553 000a06 2249          MOV T0, AR1
    2554 000a08 0409          BCC $C$L56,AR1 == #0 ; |254| 
         000a0a 12   
    2555                                                      ; branchcc occurs ; |254| 
    2556                      .dwpsn  file "../c5535_bsl_revc/ezdsp5535_v1/boot_post_SDcard/boot_post/usb.c",line 256,column 3,is_s
    2557 000a0b EC31          AMOV #$C$FSL4, XAR3 ; |256| 
         000a0d BE00 
         000a0f 0040+
    2558 000a11 EB00          MOV XAR3, dbl(*SP(#0))
         000a13 B5   
    2559              $C$DW$208       .dwtag  DW_TAG_TI_branch
    2560                      .dwattr $C$DW$208, DW_AT_low_pc(0x00)
    2561                      .dwattr $C$DW$208, DW_AT_name("_printf")
    2562                      .dwattr $C$DW$208, DW_AT_TI_call
    2563 000a14 6C00          CALL #_printf ; |256| 
         000a16 0000!
    2564                                                      ; call occurs [#_printf] ; |256| 
    2565                      .dwpsn  file "../c5535_bsl_revc/ezdsp5535_v1/boot_post_SDcard/boot_post/usb.c",line 257,column 3,is_s
    2566 000a18 A414          MOV *SP(#10), T0 ; |257| 
    2567 000a1a 0600          B $C$L60  ; |257| 
         000a1c 76   
    2568                                                      ; branch occurs ; |257| 
    2569 000a1d       $C$L56:    
    2570                      .dwpsn  file "../c5535_bsl_revc/ezdsp5535_v1/boot_post_SDcard/boot_post/usb.c",line 261,column 2,is_s
    2571              $C$DW$209       .dwtag  DW_TAG_TI_branch
    2572                      .dwattr $C$DW$209, DW_AT_low_pc(0x00)
    2573                      .dwattr $C$DW$209, DW_AT_name("_USB_connectDev")
    2574                      .dwattr $C$DW$209, DW_AT_TI_call
    2575              
    2576 000a1d 6C00          CALL #_USB_connectDev ; |261| 
         000a1f 0000!
    2577 000a21 3D04  ||      MOV #0, T0
    2578              
    2579                                                      ; call occurs [#_USB_connectDev] ; |261| 
    2580 000a23 C431          MOV T0, *(#_status) ; |261| 
         000a25 0000 
         000a27 75-  
    2581                      .dwpsn  file "../c5535_bsl_revc/ezdsp5535_v1/boot_post_SDcard/boot_post/usb.c",line 262,column 2,is_s
    2582 000a28 2249          MOV T0, AR1
    2583 000a2a 0409          BCC $C$L57,AR1 == #0 ; |262| 
         000a2c 12   
    2584                                                      ; branchcc occurs ; |262| 
    2585                      .dwpsn  file "../c5535_bsl_revc/ezdsp5535_v1/boot_post_SDcard/boot_post/usb.c",line 264,column 3,is_s
    2586 000a2d EC31          AMOV #$C$FSL5, XAR3 ; |264| 
         000a2f BE00 
         000a31 0058+
    2587 000a33 EB00          MOV XAR3, dbl(*SP(#0))
         000a35 B5   
TMS320C55x Assembler PC v4.4.1 Mon Aug 15 03:55:17 2016

Tools Copyright (c) 1996-2012 Texas Instruments Incorporated
usb.asm                                                              PAGE   62

    2588              $C$DW$210       .dwtag  DW_TAG_TI_branch
    2589                      .dwattr $C$DW$210, DW_AT_low_pc(0x00)
    2590                      .dwattr $C$DW$210, DW_AT_name("_printf")
    2591                      .dwattr $C$DW$210, DW_AT_TI_call
    2592 000a36 6C00          CALL #_printf ; |264| 
         000a38 0000!
    2593                                                      ; call occurs [#_printf] ; |264| 
    2594                      .dwpsn  file "../c5535_bsl_revc/ezdsp5535_v1/boot_post_SDcard/boot_post/usb.c",line 265,column 3,is_s
    2595 000a3a A414          MOV *SP(#10), T0 ; |265| 
    2596 000a3c 0600          B $C$L60  ; |265| 
         000a3e 54   
    2597                                                      ; branch occurs ; |265| 
    2598 000a3f       $C$L57:    
    2599                      .dwpsn  file "../c5535_bsl_revc/ezdsp5535_v1/boot_post_SDcard/boot_post/usb.c",line 268,column 2,is_s
    2600 000a3f EC31          AMOV #_deviceDesc, XAR3 ; |268| 
         000a41 BE00 
         000a43 0289-
    2601 000a45 EB31          MOV XAR3, dbl(*(#_deviceDescPtr))
         000a47 B500 
         000a49 027C-
    2602                      .dwpsn  file "../c5535_bsl_revc/ezdsp5535_v1/boot_post_SDcard/boot_post/usb.c",line 269,column 2,is_s
    2603 000a4b EC31          AMOV #_cfgDesc, XAR3 ; |269| 
         000a4d BE00 
         000a4f 0292-
    2604 000a51 EB31          MOV XAR3, dbl(*(#_cfgDescPtr))
         000a53 B500 
         000a55 027E-
    2605                      .dwpsn  file "../c5535_bsl_revc/ezdsp5535_v1/boot_post_SDcard/boot_post/usb.c",line 270,column 2,is_s
    2606 000a57 EC31          AMOV #_strDesc, XAR3 ; |270| 
         000a59 BE00 
         000a5b 02A2-
    2607 000a5d EB31          MOV XAR3, dbl(*(#_strDescPtr))
         000a5f B500 
         000a61 0280-
    2608                      .dwpsn  file "../c5535_bsl_revc/ezdsp5535_v1/boot_post_SDcard/boot_post/usb.c",line 271,column 2,is_s
    2609 000a63 EC31          AMOV #_dataReadBuff, XAR3 ; |271| 
         000a65 BE00 
         000a67 0078-
    2610 000a69 EB31          MOV XAR3, dbl(*(#_dataReadBuffPtr))
         000a6b B500 
         000a6d 0278-
    2611                      .dwpsn  file "../c5535_bsl_revc/ezdsp5535_v1/boot_post_SDcard/boot_post/usb.c",line 272,column 2,is_s
    2612 000a6f EC31          AMOV #_dataWriteBuff, XAR3 ; |272| 
         000a71 BE00 
         000a73 0178-
    2613 000a75 EB31          MOV XAR3, dbl(*(#_dataWriteBuffPtr))
         000a77 B500 
         000a79 027A-
    2614                      .dwpsn  file "../c5535_bsl_revc/ezdsp5535_v1/boot_post_SDcard/boot_post/usb.c",line 274,column 8,is_s
    2615 000a7b F031          CMP *(#_stopRunning) == #1, TC1 ; |274| 
         000a7d 0001 
         000a7f 0002 
         000a81 88-  
    2616 000a82 6564          BCC $C$L59,TC1 ; |274| 
    2617                                                      ; branchcc occurs ; |274| 
TMS320C55x Assembler PC v4.4.1 Mon Aug 15 03:55:17 2016

Tools Copyright (c) 1996-2012 Texas Instruments Incorporated
usb.asm                                                              PAGE   63

    2618 000a84       $C$L58:    
    2619 000a84       $C$DW$L$_usb_test$18$B:
    2620 000a84 F031          CMP *(#_stopRunning) == #1, TC1 ; |274| 
         000a86 0001 
         000a88 0002 
         000a8a 88-  
    2621 000a8b 0474          BCC $C$L58,!TC1 ; |274| 
         000a8d F6   
    2622                                                      ; branchcc occurs ; |274| 
    2623 000a8e       $C$DW$L$_usb_test$18$E:
    2624 000a8e       $C$L59:    
    2625                      .dwpsn  file "../c5535_bsl_revc/ezdsp5535_v1/boot_post_SDcard/boot_post/usb.c",line 276,column 2,is_s
    2626 000a8e E614          MOV #0, *SP(#10) ; |276| 
         000a90 00   
    2627                      .dwpsn  file "../c5535_bsl_revc/ezdsp5535_v1/boot_post_SDcard/boot_post/usb.c",line 277,column 2,is_s
    2628 000a91 A414          MOV *SP(#10), T0 ; |277| 
    2629 000a93       $C$L60:    
    2630                      .dwpsn  file "../c5535_bsl_revc/ezdsp5535_v1/boot_post_SDcard/boot_post/usb.c",line 278,column 1,is_s
    2631 000a93 4E0D          AADD #13, SP
    2632                      .dwcfi  cfa_offset, 1
    2633              $C$DW$211       .dwtag  DW_TAG_TI_branch
    2634                      .dwattr $C$DW$211, DW_AT_low_pc(0x00)
    2635                      .dwattr $C$DW$211, DW_AT_TI_return
    2636 000a95 4804          RET
    2637                                                      ; return occurs
    2638              
    2639              $C$DW$212       .dwtag  DW_TAG_TI_loop
    2640                      .dwattr $C$DW$212, DW_AT_name("F:\eZDSP_5535_Files\ccsws2\test\Debug\usb.asm:$C$L58:1:1471258514")
    2641                      .dwattr $C$DW$212, DW_AT_TI_begin_file("../c5535_bsl_revc/ezdsp5535_v1/boot_post_SDcard/boot_post/usb
    2642                      .dwattr $C$DW$212, DW_AT_TI_begin_line(0x112)
    2643                      .dwattr $C$DW$212, DW_AT_TI_end_line(0x112)
    2644              $C$DW$213       .dwtag  DW_TAG_TI_loop_range
    2645                      .dwattr $C$DW$213, DW_AT_low_pc($C$DW$L$_usb_test$18$B)
    2646                      .dwattr $C$DW$213, DW_AT_high_pc($C$DW$L$_usb_test$18$E)
    2647                      .dwendtag $C$DW$212
    2648              
    2649                      .dwattr $C$DW$187, DW_AT_TI_end_file("../c5535_bsl_revc/ezdsp5535_v1/boot_post_SDcard/boot_post/usb.c
    2650                      .dwattr $C$DW$187, DW_AT_TI_end_line(0x116)
    2651                      .dwattr $C$DW$187, DW_AT_TI_end_column(0x01)
    2652                      .dwendentry
    2653                      .dwendtag $C$DW$187
    2654              
    2655 000000               .sect   ".text:retain"
    2656                      .align 4
    2657                      .global _usb_isr
    2658              
    2659              $C$DW$214       .dwtag  DW_TAG_subprogram, DW_AT_name("usb_isr")
    2660                      .dwattr $C$DW$214, DW_AT_low_pc(_usb_isr)
    2661                      .dwattr $C$DW$214, DW_AT_high_pc(0x00)
    2662                      .dwattr $C$DW$214, DW_AT_TI_symbol_name("_usb_isr")
    2663                      .dwattr $C$DW$214, DW_AT_external
    2664                      .dwattr $C$DW$214, DW_AT_TI_begin_file("../c5535_bsl_revc/ezdsp5535_v1/boot_post_SDcard/boot_post/usb
    2665                      .dwattr $C$DW$214, DW_AT_TI_begin_line(0x11d)
    2666                      .dwattr $C$DW$214, DW_AT_TI_begin_column(0x10)
    2667                      .dwattr $C$DW$214, DW_AT_TI_interrupt
TMS320C55x Assembler PC v4.4.1 Mon Aug 15 03:55:17 2016

Tools Copyright (c) 1996-2012 Texas Instruments Incorporated
usb.asm                                                              PAGE   64

    2668                      .dwattr $C$DW$214, DW_AT_TI_max_frame_size(0x31)
    2669                      .dwpsn  file "../c5535_bsl_revc/ezdsp5535_v1/boot_post_SDcard/boot_post/usb.c",line 286,column 1,is_s
    2670              
    2671                      .dwfde $C$DW$CIE, _usb_isr
    2672              ;*******************************************************************************
    2673              ;* INTERRUPT NAME: usb_isr                                                     *
    2674              ;*                                                                             *
    2675              ;*   Function Uses Regs : AC0,AC0,AC1,AC1,AC2,AC2,AC3,AC3,T0,T1,AR0,XAR0,AR1,  *
    2676              ;*                        XAR1,AR2,AR3,XAR3,AR4,SP,BKC,BK03,BK47,ST1,ST2,ST3,  *
    2677              ;*                        BRC0,RSA0,REA0,BRS1,BRC1,RSA1,REA1,CSR,RPTC,CDP,TRN0,*
    2678              ;*                        TRN1,BSA01,BSA23,BSA45,BSA67,BSAC,TC1,M40,SATA,SATD, *
    2679              ;*                        RDM,FRCT,SMUL                                        *
    2680              ;*   Save On Entry Regs : AC0,AC0,AC1,AC1,AC2,AC2,AC3,AC3,T0,T1,AR0,AR1,AR2,   *
    2681              ;*                        AR3,AR4,BKC,BK03,BK47,BRC0,RSA0,REA0,BRS1,BRC1,RSA1, *
    2682              ;*                        REA1,CSR,RPTC,CDP,TRN0,TRN1,BSA01,BSA23,BSA45,BSA67, *
    2683              ;*                        BSAC                                                 *
    2684              ;*******************************************************************************
    2685 000000       _usb_isr:
    2686                      .dwcfi  cfa_offset, 3
    2687                      .dwcfi  save_reg_to_mem, 91, -3
    2688 000000 F406          AND #0xf91f, mmap(ST1_55)
         000002 F91F 
         000004 98   
    2689 000005 F506          OR #0x4100, mmap(ST1_55)
         000007 4100 
         000009 98   
    2690 00000a F496          AND #0xfa00, mmap(ST2_55)
         00000c FA00 
         00000e 98   
    2691 00000f F596          OR #0x8000, mmap(ST2_55)
         000011 8000 
         000013 98   
    2692 000014 B508          PSH mmap(ST3_55)
         000016 98   
    2693                      .dwcfi  cfa_offset, 4
    2694                      .dwcfi  save_reg_to_mem, 42, -4
    2695 000017 5007          PSH dbl(AC0)
    2696                      .dwcfi  cfa_offset, 5
    2697                      .dwcfi  save_reg_to_mem, 0, -5
    2698                      .dwcfi  cfa_offset, 6
    2699                      .dwcfi  save_reg_to_mem, 1, -6
    2700 000019 B514          PSH mmap(AC0G)
         00001b 98   
    2701                      .dwcfi  cfa_offset, 7
    2702                      .dwcfi  save_reg_to_mem, 2, -7
    2703 00001c 5017          PSH dbl(AC1)
    2704                      .dwcfi  cfa_offset, 8
    2705                      .dwcfi  save_reg_to_mem, 3, -8
    2706                      .dwcfi  cfa_offset, 9
    2707                      .dwcfi  save_reg_to_mem, 4, -9
    2708 00001e B51A          PSH mmap(AC1G)
         000020 98   
    2709                      .dwcfi  cfa_offset, 10
    2710                      .dwcfi  save_reg_to_mem, 5, -10
    2711 000021 5027          PSH dbl(AC2)
TMS320C55x Assembler PC v4.4.1 Mon Aug 15 03:55:17 2016

Tools Copyright (c) 1996-2012 Texas Instruments Incorporated
usb.asm                                                              PAGE   65

    2712                      .dwcfi  cfa_offset, 11
    2713                      .dwcfi  save_reg_to_mem, 6, -11
    2714                      .dwcfi  cfa_offset, 12
    2715                      .dwcfi  save_reg_to_mem, 7, -12
    2716 000023 B54C          PSH mmap(AC2G)
         000025 98   
    2717                      .dwcfi  cfa_offset, 13
    2718                      .dwcfi  save_reg_to_mem, 8, -13
    2719 000026 5037          PSH dbl(AC3)
    2720                      .dwcfi  cfa_offset, 14
    2721                      .dwcfi  save_reg_to_mem, 9, -14
    2722                      .dwcfi  cfa_offset, 15
    2723                      .dwcfi  save_reg_to_mem, 10, -15
    2724 000028 B554          PSH mmap(AC3G)
         00002a 98   
    2725                      .dwcfi  cfa_offset, 16
    2726                      .dwcfi  save_reg_to_mem, 11, -16
    2727 00002b 5046          PSH T0
    2728                      .dwcfi  cfa_offset, 17
    2729                      .dwcfi  save_reg_to_mem, 12, -17
    2730 00002d 5056          PSH T1
    2731                      .dwcfi  cfa_offset, 18
    2732                      .dwcfi  save_reg_to_mem, 13, -18
    2733 00002f 5085          PSHBOTH XAR0
    2734                      .dwcfi  cfa_offset, 19
    2735                      .dwcfi  save_reg_to_mem, 16, -19
    2736 000031 5095          PSHBOTH XAR1
    2737                      .dwcfi  cfa_offset, 20
    2738                      .dwcfi  save_reg_to_mem, 18, -20
    2739 000033 50A5          PSHBOTH XAR2
    2740                      .dwcfi  cfa_offset, 21
    2741                      .dwcfi  save_reg_to_mem, 20, -21
    2742 000035 50B5          PSHBOTH XAR3
    2743                      .dwcfi  cfa_offset, 22
    2744                      .dwcfi  save_reg_to_mem, 22, -22
    2745 000037 50C5          PSHBOTH XAR4
    2746                      .dwcfi  cfa_offset, 23
    2747                      .dwcfi  save_reg_to_mem, 24, -23
    2748 000039 B562          PSH mmap(BKC)
         00003b 98   
    2749                      .dwcfi  cfa_offset, 24
    2750                      .dwcfi  save_reg_to_mem, 37, -24
    2751 00003c B532          PSH mmap(BK03)
         00003e 98   
    2752                      .dwcfi  cfa_offset, 25
    2753                      .dwcfi  save_reg_to_mem, 38, -25
    2754 00003f B560          PSH mmap(BK47)
         000041 98   
    2755                      .dwcfi  cfa_offset, 26
    2756                      .dwcfi  save_reg_to_mem, 39, -26
    2757 000042 B534          PSH mmap(BRC0)
         000044 98   
    2758                      .dwcfi  cfa_offset, 27
    2759                      .dwcfi  save_reg_to_mem, 47, -27
    2760 000045 B57A          PSH mmap(RSA0L)
TMS320C55x Assembler PC v4.4.1 Mon Aug 15 03:55:17 2016

Tools Copyright (c) 1996-2012 Texas Instruments Incorporated
usb.asm                                                              PAGE   66

         000047 98   
    2761                      .dwcfi  cfa_offset, 28
    2762                      .dwcfi  save_reg_to_mem, 48, -28
    2763 000048 B578          PSH mmap(RSA0H)
         00004a 98   
    2764                      .dwcfi  cfa_offset, 29
    2765                      .dwcfi  save_reg_to_mem, 49, -29
    2766 00004b B57E          PSH mmap(REA0L)
         00004d 98   
    2767                      .dwcfi  cfa_offset, 30
    2768                      .dwcfi  save_reg_to_mem, 50, -30
    2769 00004e B57C          PSH mmap(REA0H)
         000050 98   
    2770                      .dwcfi  cfa_offset, 31
    2771                      .dwcfi  save_reg_to_mem, 51, -31
    2772 000051 B574          PSH mmap(BRS1)
         000053 98   
    2773                      .dwcfi  cfa_offset, 32
    2774                      .dwcfi  save_reg_to_mem, 52, -32
    2775 000054 B572          PSH mmap(BRC1)
         000056 98   
    2776                      .dwcfi  cfa_offset, 33
    2777                      .dwcfi  save_reg_to_mem, 53, -33
    2778 000057 B582          PSH mmap(RSA1L)
         000059 98   
    2779                      .dwcfi  cfa_offset, 34
    2780                      .dwcfi  save_reg_to_mem, 54, -34
    2781 00005a B580          PSH mmap(RSA1H)
         00005c 98   
    2782                      .dwcfi  cfa_offset, 35
    2783                      .dwcfi  save_reg_to_mem, 55, -35
    2784 00005d B586          PSH mmap(REA1L)
         00005f 98   
    2785                      .dwcfi  cfa_offset, 36
    2786                      .dwcfi  save_reg_to_mem, 56, -36
    2787 000060 B584          PSH mmap(REA1H)
         000062 98   
    2788                      .dwcfi  cfa_offset, 37
    2789                      .dwcfi  save_reg_to_mem, 57, -37
    2790 000063 B576          PSH mmap(CSR)
         000065 98   
    2791                      .dwcfi  cfa_offset, 38
    2792                      .dwcfi  save_reg_to_mem, 58, -38
    2793 000066 B588          PSH mmap(RPTC)
         000068 98   
    2794                      .dwcfi  cfa_offset, 39
    2795                      .dwcfi  save_reg_to_mem, 59, -39
    2796 000069 5075          PSHBOTH XCDP
    2797                      .dwcfi  cfa_offset, 40
    2798                      .dwcfi  save_reg_to_mem, 60, -40
    2799 00006b B51E          PSH mmap(TRN0)
         00006d 98   
    2800                      .dwcfi  cfa_offset, 41
    2801                      .dwcfi  save_reg_to_mem, 62, -41
    2802 00006e B570          PSH mmap(TRN1)
TMS320C55x Assembler PC v4.4.1 Mon Aug 15 03:55:17 2016

Tools Copyright (c) 1996-2012 Texas Instruments Incorporated
usb.asm                                                              PAGE   67

         000070 98   
    2803                      .dwcfi  cfa_offset, 42
    2804                      .dwcfi  save_reg_to_mem, 63, -42
    2805 000071 B564          PSH mmap(BSA01)
         000073 98   
    2806                      .dwcfi  cfa_offset, 43
    2807                      .dwcfi  save_reg_to_mem, 64, -43
    2808 000074 B566          PSH mmap(BSA23)
         000076 98   
    2809                      .dwcfi  cfa_offset, 44
    2810                      .dwcfi  save_reg_to_mem, 65, -44
    2811 000077 B568          PSH mmap(BSA45)
         000079 98   
    2812                      .dwcfi  cfa_offset, 45
    2813                      .dwcfi  save_reg_to_mem, 66, -45
    2814 00007a B56A          PSH mmap(BSA67)
         00007c 98   
    2815                      .dwcfi  cfa_offset, 46
    2816                      .dwcfi  save_reg_to_mem, 67, -46
    2817 00007d B56C          PSH mmap(BSAC)
         00007f 98   
    2818                      .dwcfi  cfa_offset, 47
    2819                      .dwcfi  save_reg_to_mem, 68, -47
    2820 000080 EC00          AMAR *SP(#0), XAR1
         000082 9E   
    2821 000083 F49A          AND #0xfffe, mmap(SP)
         000085 FFFE 
         000087 98   
    2822 000088 5096          PSH AR1
    2823 00008a 4EFD          AADD #-3, SP
    2824                      .dwcfi  cfa_offset, 49
    2825                      .dwpsn  file "../c5535_bsl_revc/ezdsp5535_v1/boot_post_SDcard/boot_post/usb.c",line 288,column 2,is_s
    2826 00008c 7600          MOV #56, T0 ; |288| 
         00008e 3848 
    2827 000090 AB31          MOV *(#_usbRegisters), AR3 ; |288| 
         000092 0000 
         000094 00!  
    2828 000095 A96B          MOV port(*AR3(T0)), AR1 ; |288| 
         000097 99   
    2829 000098 ED31          MOV dbl(*(#_pContext)), XAR3
         00009a BF00 
         00009c 0076-
    2830 00009e C96D          MOV AR1, *AR3(#94) ; |288| 
         0000a0 005E 
    2831                      .dwpsn  file "../c5535_bsl_revc/ezdsp5535_v1/boot_post_SDcard/boot_post/usb.c",line 289,column 2,is_s
    2832 0000a2 7600          MOV #57, T0 ; |289| 
         0000a4 3948 
    2833 0000a6 AB31          MOV *(#_usbRegisters), AR3 ; |289| 
         0000a8 0000 
         0000aa 00!  
    2834 0000ab A96B          MOV port(*AR3(T0)), AR1 ; |289| 
         0000ad 99   
    2835 0000ae ED31          MOV dbl(*(#_pContext)), XAR3
         0000b0 BF00 
         0000b2 0076-
TMS320C55x Assembler PC v4.4.1 Mon Aug 15 03:55:17 2016

Tools Copyright (c) 1996-2012 Texas Instruments Incorporated
usb.asm                                                              PAGE   68

    2836 0000b4 C96D          MOV AR1, *AR3(#95) ; |289| 
         0000b6 005F 
    2837                      .dwpsn  file "../c5535_bsl_revc/ezdsp5535_v1/boot_post_SDcard/boot_post/usb.c",line 292,column 2,is_s
    2838 0000b8 ED31          MOV dbl(*(#_pContext)), XAR3
         0000ba BF00 
         0000bc 0076-
    2839 0000be A96D          MOV *AR3(#94), AR1 ; |292| 
         0000c0 005E 
    2840 0000c2 0409          BCC $C$L61,AR1 == #0 ; |292| 
         0000c4 10   
    2841                                                      ; branchcc occurs ; |292| 
    2842                      .dwpsn  file "../c5535_bsl_revc/ezdsp5535_v1/boot_post_SDcard/boot_post/usb.c",line 294,column 3,is_s
    2843 0000c5 7600          MOV #40, T0 ; |294| 
         0000c7 2848 
    2844 0000c9 A96D          MOV *AR3(#94), AR1 ; |294| 
         0000cb 005E 
    2845 0000cd AB31          MOV *(#_usbRegisters), AR3 ; |294| 
         0000cf 0000 
         0000d1 00!  
    2846 0000d2 C96B          MOV AR1, port(*AR3(T0)) ; |294| 
         0000d4 9A   
    2847 0000d5       $C$L61:    
    2848                      .dwpsn  file "../c5535_bsl_revc/ezdsp5535_v1/boot_post_SDcard/boot_post/usb.c",line 297,column 2,is_s
    2849 0000d5 ED31          MOV dbl(*(#_pContext)), XAR3
         0000d7 BF00 
         0000d9 0076-
    2850 0000db A96D          MOV *AR3(#95), AR1 ; |297| 
         0000dd 005F 
    2851 0000df 0409          BCC $C$L62,AR1 == #0 ; |297| 
         0000e1 10   
    2852                                                      ; branchcc occurs ; |297| 
    2853                      .dwpsn  file "../c5535_bsl_revc/ezdsp5535_v1/boot_post_SDcard/boot_post/usb.c",line 299,column 3,is_s
    2854 0000e2 7600          MOV #41, T0 ; |299| 
         0000e4 2948 
    2855 0000e6 A96D          MOV *AR3(#95), AR1 ; |299| 
         0000e8 005F 
    2856 0000ea AB31          MOV *(#_usbRegisters), AR3 ; |299| 
         0000ec 0000 
         0000ee 00!  
    2857 0000ef C96B          MOV AR1, port(*AR3(T0)) ; |299| 
         0000f1 9A   
    2858 0000f2       $C$L62:    
    2859                      .dwpsn  file "../c5535_bsl_revc/ezdsp5535_v1/boot_post_SDcard/boot_post/usb.c",line 302,column 2,is_s
    2860 0000f2 ED31          MOV dbl(*(#_pContext)), XAR3
         0000f4 BF00 
         0000f6 0076-
    2861 0000f8 A96D          MOV *AR3(#94), AR1 ; |302| 
         0000fa 005E 
    2862 0000fc 6419          BCC $C$L63,AR1 != #0 ; |302| 
    2863                                                      ; branchcc occurs ; |302| 
    2864 0000fe A96D          MOV *AR3(#95), AR1 ; |302| 
         000100 005F 
    2865 000102 6D09          BCC $C$L98,AR1 == #0 ; |302| 
         000104 0620 
    2866                                                      ; branchcc occurs ; |302| 
TMS320C55x Assembler PC v4.4.1 Mon Aug 15 03:55:17 2016

Tools Copyright (c) 1996-2012 Texas Instruments Incorporated
usb.asm                                                              PAGE   69

    2867 000106       $C$L63:    
    2868                      .dwpsn  file "../c5535_bsl_revc/ezdsp5535_v1/boot_post_SDcard/boot_post/usb.c",line 305,column 3,is_s
    2869 000106 DC6D          BTST #2, *AR3(#95), TC1 ; |305| 
         000108 2000 
         00010a 5F   
    2870 00010b 0474          BCC $C$L65,!TC1 ; |305| 
         00010d 6A   
    2871                                                      ; branchcc occurs ; |305| 
    2872                      .dwpsn  file "../c5535_bsl_revc/ezdsp5535_v1/boot_post_SDcard/boot_post/usb.c",line 307,column 4,is_s
    2873 00010e 7604          MOV #1038, T0 ; |307| 
         000110 0E48 
    2874 000112 AB31          MOV *(#_usbRegisters), AR3 ; |307| 
         000114 0000 
         000116 00!  
    2875 000117 DF6B          MOV uns(low_byte(port(*AR3(T0)))), AR1 ; |307| 
         000119 93   
         00011a 99   
    2876 00011b C96B          MOV AR1, port(*AR3(T0)) ; |307| 
         00011d 9A   
    2877                      .dwpsn  file "../c5535_bsl_revc/ezdsp5535_v1/boot_post_SDcard/boot_post/usb.c",line 309,column 4,is_s
    2878 00011e F031          CMP *(#_usbBulkOutEpObj) == #9, TC1 ; |309| 
         000120 0009 
         000122 0000 
         000124 3A-  
    2879 000125 0474          BCC $C$L64,!TC1 ; |309| 
         000127 29   
    2880                                                      ; branchcc occurs ; |309| 
    2881                      .dwpsn  file "../c5535_bsl_revc/ezdsp5535_v1/boot_post_SDcard/boot_post/usb.c",line 311,column 5,is_s
    2882 000128 AB31          MOV *(#_usbRegisters), AR3 ; |311| 
         00012a 0000 
         00012c 00!  
    2883 00012d A96B          MOV port(*AR3(T0)), AR1 ; |311| 
         00012f 99   
    2884 000130 7DFF          AND #0xfff0, AR1, AC0 ; |311| 
         000132 F009 
    2885 000134 EC00          BSET @#0, AC0 ; |311| 
         000136 00   
    2886 000137 C06B          MOV AC0, port(*AR3(T0)) ; |311| 
         000139 9A   
    2887                      .dwpsn  file "../c5535_bsl_revc/ezdsp5535_v1/boot_post_SDcard/boot_post/usb.c",line 313,column 5,is_s
    2888 00013a 7604          MOV #1042, T0 ; |313| 
         00013c 1248 
    2889 00013e AB31          MOV *(#_usbRegisters), AR3 ; |313| 
         000140 0000 
         000142 00!  
    2890 000143 A96B          MOV port(*AR3(T0)), AR1 ; |313| 
         000145 99   
    2891 000146 EC00          BCLR @#0, AR1 ; |313| 
         000148 92   
    2892 000149 EC00          BSET @#0, AR1 ; |313| 
         00014b 90   
    2893 00014c C96B          MOV AR1, port(*AR3(T0)) ; |313| 
         00014e 9A   
    2894                      .dwpsn  file "../c5535_bsl_revc/ezdsp5535_v1/boot_post_SDcard/boot_post/usb.c",line 315,column 4,is_s
    2895 00014f 4A27          B $C$L65  ; |315| 
TMS320C55x Assembler PC v4.4.1 Mon Aug 15 03:55:17 2016

Tools Copyright (c) 1996-2012 Texas Instruments Incorporated
usb.asm                                                              PAGE   70

    2896                                                      ; branch occurs ; |315| 
    2897 000151       $C$L64:    
    2898                      .dwpsn  file "../c5535_bsl_revc/ezdsp5535_v1/boot_post_SDcard/boot_post/usb.c",line 318,column 5,is_s
    2899 000151 AB31          MOV *(#_usbRegisters), AR3 ; |318| 
         000153 0000 
         000155 00!  
    2900 000156 A96B          MOV port(*AR3(T0)), AR1 ; |318| 
         000158 99   
    2901 000159 7DFF          AND #0xfff0, AR1, AC0 ; |318| 
         00015b F009 
    2902 00015d EC02          BSET @#1, AC0 ; |318| 
         00015f 00   
    2903 000160 C06B          MOV AC0, port(*AR3(T0)) ; |318| 
         000162 9A   
    2904                      .dwpsn  file "../c5535_bsl_revc/ezdsp5535_v1/boot_post_SDcard/boot_post/usb.c",line 320,column 5,is_s
    2905 000163 7604          MOV #1042, T0 ; |320| 
         000165 1248 
    2906 000167 AB31          MOV *(#_usbRegisters), AR3 ; |320| 
         000169 0000 
         00016b 00!  
    2907 00016c A96B          MOV port(*AR3(T0)), AR1 ; |320| 
         00016e 99   
    2908 00016f EC00          BCLR @#0, AR1 ; |320| 
         000171 92   
    2909 000172 EC00          BSET @#0, AR1 ; |320| 
         000174 90   
    2910 000175 C96B          MOV AR1, port(*AR3(T0)) ; |320| 
         000177 9A   
    2911 000178       $C$L65:    
    2912                      .dwpsn  file "../c5535_bsl_revc/ezdsp5535_v1/boot_post_SDcard/boot_post/usb.c",line 326,column 3,is_s
    2913 000178 ED31          MOV dbl(*(#_pContext)), XAR3
         00017a BF00 
         00017c 0076-
    2914 00017e DC6D          BTST #1, *AR3(#95), TC1 ; |326| 
         000180 1000 
         000182 5F   
    2915 000183 0474          BCC $C$L66,!TC1 ; |326| 
         000185 3D   
    2916                                                      ; branchcc occurs ; |326| 
    2917                      .dwpsn  file "../c5535_bsl_revc/ezdsp5535_v1/boot_post_SDcard/boot_post/usb.c",line 328,column 4,is_s
    2918 000186 4617          BSET ST3_SMUL
    2919              
    2920 000188 3C04          MOV #0, T0
    2921 00018a 4756  ||      BCLR ST3_SATA
    2922              
    2923              $C$DW$215       .dwtag  DW_TAG_TI_branch
    2924                      .dwattr $C$DW$215, DW_AT_low_pc(0x00)
    2925                      .dwattr $C$DW$215, DW_AT_name("_USB_setRemoteWakeup")
    2926                      .dwattr $C$DW$215, DW_AT_TI_call
    2927              
    2928 00018c 6C00          CALL #_USB_setRemoteWakeup ; |328| 
         00018e 0000!
    2929 000190 3D15  ||      MOV #1, T1
    2930              
    2931                                                      ; call occurs [#_USB_setRemoteWakeup] ; |328| 
TMS320C55x Assembler PC v4.4.1 Mon Aug 15 03:55:17 2016

Tools Copyright (c) 1996-2012 Texas Instruments Incorporated
usb.asm                                                              PAGE   71

    2932                      .dwpsn  file "../c5535_bsl_revc/ezdsp5535_v1/boot_post_SDcard/boot_post/usb.c",line 329,column 4,is_s
    2933 000192 3C15          MOV #1, T1
    2934              $C$DW$216       .dwtag  DW_TAG_TI_branch
    2935                      .dwattr $C$DW$216, DW_AT_low_pc(0x00)
    2936                      .dwattr $C$DW$216, DW_AT_name("_USB_issueRemoteWakeup")
    2937                      .dwattr $C$DW$216, DW_AT_TI_call
    2938              
    2939 000194 6C00          CALL #_USB_issueRemoteWakeup ; |329| 
         000196 0000!
    2940 000198 3D04  ||      MOV #0, T0
    2941              
    2942                                                      ; call occurs [#_USB_issueRemoteWakeup] ; |329| 
    2943 00019a C431          MOV T0, *(#_status) ; |329| 
         00019c 0000 
         00019e 75-  
    2944                      .dwpsn  file "../c5535_bsl_revc/ezdsp5535_v1/boot_post_SDcard/boot_post/usb.c",line 331,column 4,is_s
    2945              $C$DW$217       .dwtag  DW_TAG_TI_branch
    2946                      .dwattr $C$DW$217, DW_AT_low_pc(0x00)
    2947                      .dwattr $C$DW$217, DW_AT_name("_USB_delay")
    2948                      .dwattr $C$DW$217, DW_AT_TI_call
    2949              
    2950 00019f 6C00          CALL #_USB_delay ; |331| 
         0001a1 0AC8'
    2951 0001a3 3DA0  ||      MOV #10, AC0 ; |331| 
    2952              
    2953                                                      ; call occurs [#_USB_delay] ; |331| 
    2954                      .dwpsn  file "../c5535_bsl_revc/ezdsp5535_v1/boot_post_SDcard/boot_post/usb.c",line 332,column 4,is_s
    2955 0001a5 3C04          MOV #0, T0
    2956              $C$DW$218       .dwtag  DW_TAG_TI_branch
    2957                      .dwattr $C$DW$218, DW_AT_low_pc(0x00)
    2958                      .dwattr $C$DW$218, DW_AT_name("_USB_issueRemoteWakeup")
    2959                      .dwattr $C$DW$218, DW_AT_TI_call
    2960              
    2961 0001a7 6C00          CALL #_USB_issueRemoteWakeup ; |332| 
         0001a9 0000!
    2962 0001ab 3D05  ||      MOV #0, T1
    2963              
    2964                                                      ; call occurs [#_USB_issueRemoteWakeup] ; |332| 
    2965 0001ad C431          MOV T0, *(#_status) ; |332| 
         0001af 0000 
         0001b1 75-  
    2966                      .dwpsn  file "../c5535_bsl_revc/ezdsp5535_v1/boot_post_SDcard/boot_post/usb.c",line 333,column 4,is_s
    2967 0001b2 2249          MOV T0, AR1
    2968 0001b4 6689          BCC $C$L66,AR1 == #0 ; |333| 
    2969                                                      ; branchcc occurs ; |333| 
    2970                      .dwpsn  file "../c5535_bsl_revc/ezdsp5535_v1/boot_post_SDcard/boot_post/usb.c",line 335,column 5,is_s
    2971 0001b6 EC31          AMOV #$C$FSL6, XAR3 ; |335| 
         0001b8 BE00 
         0001ba 006C+
    2972 0001bc EB00          MOV XAR3, dbl(*SP(#0))
         0001be B5   
    2973              $C$DW$219       .dwtag  DW_TAG_TI_branch
    2974                      .dwattr $C$DW$219, DW_AT_low_pc(0x00)
    2975                      .dwattr $C$DW$219, DW_AT_name("_printf")
    2976                      .dwattr $C$DW$219, DW_AT_TI_call
TMS320C55x Assembler PC v4.4.1 Mon Aug 15 03:55:17 2016

Tools Copyright (c) 1996-2012 Texas Instruments Incorporated
usb.asm                                                              PAGE   72

    2977 0001bf 6C00          CALL #_printf ; |335| 
         0001c1 0000!
    2978                                                      ; call occurs [#_printf] ; |335| 
    2979 0001c3       $C$L66:    
    2980                      .dwpsn  file "../c5535_bsl_revc/ezdsp5535_v1/boot_post_SDcard/boot_post/usb.c",line 340,column 3,is_s
    2981 0001c3 ED31          MOV dbl(*(#_pContext)), XAR3
         0001c5 BF00 
         0001c7 0076-
    2982 0001c9 DC6D          BTST #0, *AR3(#94), TC1 ; |340| 
         0001cb 0000 
         0001cd 5E   
    2983 0001ce 6D74          BCC $C$L91,!TC1 ; |340| 
         0001d0 0448 
    2984                                                      ; branchcc occurs ; |340| 
    2985                      .dwpsn  file "../c5535_bsl_revc/ezdsp5535_v1/boot_post_SDcard/boot_post/usb.c",line 342,column 4,is_s
    2986 0001d2 7604          MOV #1038, T0 ; |342| 
         0001d4 0E48 
    2987 0001d6 AB31          MOV *(#_usbRegisters), AR3 ; |342| 
         0001d8 0000 
         0001da 00!  
    2988 0001db A96B          MOV port(*AR3(T0)), AR1 ; |342| 
         0001dd 99   
    2989 0001de C931          MOV AR1, *(#_saveIndex) ; |342| 
         0001e0 0002 
         0001e2 84-  
    2990                      .dwpsn  file "../c5535_bsl_revc/ezdsp5535_v1/boot_post_SDcard/boot_post/usb.c",line 343,column 5,is_s
    2991 0001e3 A96B          MOV port(*AR3(T0)), AR1 ; |343| 
         0001e5 99   
    2992 0001e6 7DFF          AND #0xfff0, AR1, AC0 ; |343| 
         0001e8 F009 
    2993 0001ea C06B          MOV AC0, port(*AR3(T0)) ; |343| 
         0001ec 9A   
    2994                      .dwpsn  file "../c5535_bsl_revc/ezdsp5535_v1/boot_post_SDcard/boot_post/usb.c",line 346,column 4,is_s
    2995 0001ed 4617          BSET ST3_SMUL
    2996 0001ef EC31          AMOV #_usbSetup, XAR0 ; |346| 
         0001f1 8E00 
         0001f3 006E-
    2997              
    2998 0001f5 3C15          MOV #1, T1
    2999 0001f7 4756  ||      BCLR ST3_SATA
    3000              
    3001              $C$DW$220       .dwtag  DW_TAG_TI_branch
    3002                      .dwattr $C$DW$220, DW_AT_low_pc(0x00)
    3003                      .dwattr $C$DW$220, DW_AT_name("_USB_getSetupPacket")
    3004                      .dwattr $C$DW$220, DW_AT_TI_call
    3005              
    3006 0001f9 6C00          CALL #_USB_getSetupPacket ; |346| 
         0001fb 0000!
    3007 0001fd 3D04  ||      MOV #0, T0
    3008              
    3009                                                      ; call occurs [#_USB_getSetupPacket] ; |346| 
    3010                      .dwpsn  file "../c5535_bsl_revc/ezdsp5535_v1/boot_post_SDcard/boot_post/usb.c",line 348,column 4,is_s
    3011 0001ff 7604          MOV #1042, T0 ; |348| 
         000201 1248 
    3012 000203 AB31          MOV *(#_usbRegisters), AR3 ; |348| 
TMS320C55x Assembler PC v4.4.1 Mon Aug 15 03:55:17 2016

Tools Copyright (c) 1996-2012 Texas Instruments Incorporated
usb.asm                                                              PAGE   73

         000205 0000 
         000207 00!  
    3013 000208 A96B          MOV port(*AR3(T0)), AR1 ; |348| 
         00020a 99   
    3014              
    3015 00020b 1801          AND #0x0001, AR1, AR1 ; |348| 
         00020d 99   
    3016 00020e 3D1A  ||      MOV #1, AR2
    3017              
    3018 000210 129C          CMPU AR1 != AR2, TC1 ; |348| 
         000212 A4   
    3019 000213 6D64          BCC $C$L89,TC1 ; |348| 
         000215 03DE 
    3020                                                      ; branchcc occurs ; |348| 
    3021                      .dwpsn  file "../c5535_bsl_revc/ezdsp5535_v1/boot_post_SDcard/boot_post/usb.c",line 352,column 5,is_s
    3022 000217 A96B          MOV port(*AR3(T0)), AR1 ; |352| 
         000219 99   
    3023 00021a EC0C          BCLR @#6, AR1 ; |352| 
         00021c 92   
    3024 00021d EC0C          BSET @#6, AR1 ; |352| 
         00021f 90   
    3025 000220 C96B          MOV AR1, port(*AR3(T0)) ; |352| 
         000222 9A   
    3026                      .dwpsn  file "../c5535_bsl_revc/ezdsp5535_v1/boot_post_SDcard/boot_post/usb.c",line 356,column 5,is_s
    3027 000223 0603          B $C$L87  ; |356| 
         000225 82   
    3028                                                      ; branch occurs ; |356| 
    3029 000226       $C$L67:    
    3030                      .dwpsn  file "../c5535_bsl_revc/ezdsp5535_v1/boot_post_SDcard/boot_post/usb.c",line 366,column 9,is_s
    3031 000226 DF31          MOV uns(low_byte(*(#(_usbSetup+4)))), AR1 ; |366| 
         000228 9300 
         00022a 0072-
    3032 00022c C931          MOV AR1, *(#_endpt) ; |366| 
         00022e 0002 
         000230 85-  
    3033                      .dwpsn  file "../c5535_bsl_revc/ezdsp5535_v1/boot_post_SDcard/boot_post/usb.c",line 367,column 9,is_s
    3034 000231 2295          MOV AR1, T1
    3035              $C$DW$221       .dwtag  DW_TAG_TI_branch
    3036                      .dwattr $C$DW$221, DW_AT_low_pc(0x00)
    3037                      .dwattr $C$DW$221, DW_AT_name("_USB_epNumToHandle")
    3038                      .dwattr $C$DW$221, DW_AT_TI_call
    3039              
    3040 000233 6C00          CALL #_USB_epNumToHandle ; |367| 
         000235 0000!
    3041 000237 3D04  ||      MOV #0, T0
    3042              
    3043                                                      ; call occurs [#_USB_epNumToHandle] ; |367| 
    3044 000239 EB31          MOV XAR0, dbl(*(#_hEPx))
         00023b 8500 
         00023d 0010-
    3045                      .dwpsn  file "../c5535_bsl_revc/ezdsp5535_v1/boot_post_SDcard/boot_post/usb.c",line 368,column 9,is_s
    3046 00023f EC31          AMOV #_status, XAR1 ; |368| 
         000241 9E00 
         000243 0075-
    3047              $C$DW$222       .dwtag  DW_TAG_TI_branch
TMS320C55x Assembler PC v4.4.1 Mon Aug 15 03:55:17 2016

Tools Copyright (c) 1996-2012 Texas Instruments Incorporated
usb.asm                                                              PAGE   74

    3048                      .dwattr $C$DW$222, DW_AT_low_pc(0x00)
    3049                      .dwattr $C$DW$222, DW_AT_name("_USB_getEndptStall")
    3050                      .dwattr $C$DW$222, DW_AT_TI_call
    3051 000245 6C00          CALL #_USB_getEndptStall ; |368| 
         000247 0000!
    3052                                                      ; call occurs [#_USB_getEndptStall] ; |368| 
    3053 000249 0414          BCC $C$L70,T0 != #0 ; |368| 
         00024b 2F   
    3054                                                      ; branchcc occurs ; |368| 
    3055                      .dwpsn  file "../c5535_bsl_revc/ezdsp5535_v1/boot_post_SDcard/boot_post/usb.c",line 370,column 10,is_
    3056 00024c ED31          MOV dbl(*(#_hEPx)), XAR0
         00024e 8F00 
         000250 0010-
    3057              $C$DW$223       .dwtag  DW_TAG_TI_branch
    3058                      .dwattr $C$DW$223, DW_AT_low_pc(0x00)
    3059                      .dwattr $C$DW$223, DW_AT_name("_USB_stallEndpt")
    3060                      .dwattr $C$DW$223, DW_AT_TI_call
    3061 000252 6C00          CALL #_USB_stallEndpt ; |370| 
         000254 0000!
    3062                                                      ; call occurs [#_USB_stallEndpt] ; |370| 
    3063                      .dwpsn  file "../c5535_bsl_revc/ezdsp5535_v1/boot_post_SDcard/boot_post/usb.c",line 372,column 14,is_
    3064 000256 4A23          B $C$L70  ; |372| 
    3065                                                      ; branch occurs ; |372| 
    3066 000258       $C$L68:    
    3067                      .dwpsn  file "../c5535_bsl_revc/ezdsp5535_v1/boot_post_SDcard/boot_post/usb.c",line 375,column 9,is_s
    3068              $C$DW$224       .dwtag  DW_TAG_TI_branch
    3069                      .dwattr $C$DW$224, DW_AT_low_pc(0x00)
    3070                      .dwattr $C$DW$224, DW_AT_name("_USB_getRemoteWakeupStat")
    3071                      .dwattr $C$DW$224, DW_AT_TI_call
    3072              
    3073 000258 6C00          CALL #_USB_getRemoteWakeupStat ; |375| 
         00025a 0000!
    3074 00025c 3D04  ||      MOV #0, T0
    3075              
    3076                                                      ; call occurs [#_USB_getRemoteWakeupStat] ; |375| 
    3077 00025e 0414          BCC $C$L70,T0 != #0 ; |375| 
         000260 1A   
    3078                                                      ; branchcc occurs ; |375| 
    3079                      .dwpsn  file "../c5535_bsl_revc/ezdsp5535_v1/boot_post_SDcard/boot_post/usb.c",line 377,column 10,is_
    3080 000261 3C04          MOV #0, T0
    3081              $C$DW$225       .dwtag  DW_TAG_TI_branch
    3082                      .dwattr $C$DW$225, DW_AT_low_pc(0x00)
    3083                      .dwattr $C$DW$225, DW_AT_name("_USB_setRemoteWakeup")
    3084                      .dwattr $C$DW$225, DW_AT_TI_call
    3085              
    3086 000263 6C00          CALL #_USB_setRemoteWakeup ; |377| 
         000265 0000!
    3087 000267 3D15  ||      MOV #1, T1
    3088              
    3089                                                      ; call occurs [#_USB_setRemoteWakeup] ; |377| 
    3090                      .dwpsn  file "../c5535_bsl_revc/ezdsp5535_v1/boot_post_SDcard/boot_post/usb.c",line 379,column 14,is_
    3091 000269 4A10          B $C$L70  ; |379| 
    3092                                                      ; branch occurs ; |379| 
    3093 00026b       $C$L69:    
    3094                      .dwpsn  file "../c5535_bsl_revc/ezdsp5535_v1/boot_post_SDcard/boot_post/usb.c",line 360,column 7,is_s
TMS320C55x Assembler PC v4.4.1 Mon Aug 15 03:55:17 2016

Tools Copyright (c) 1996-2012 Texas Instruments Incorporated
usb.asm                                                              PAGE   75

    3095 00026b A931          MOV *(#(_usbSetup+3)), AR1 ; |360| 
         00026d 0000 
         00026f 71-  
    3096 000270 0409          BCC $C$L67,AR1 == #0 ; |360| 
         000272 B3   
    3097                                                      ; branchcc occurs ; |360| 
    3098 000273 3C1A          MOV #1, AR2
    3099 000275 1290          CMPU AR1 == AR2, TC1 ; |360| 
         000277 A4   
    3100 000278 0464          BCC $C$L68,TC1 ; |360| 
         00027a DD   
    3101                                                      ; branchcc occurs ; |360| 
    3102 00027b       $C$L70:    
    3103                      .dwpsn  file "../c5535_bsl_revc/ezdsp5535_v1/boot_post_SDcard/boot_post/usb.c",line 385,column 7,is_s
    3104 00027b 7604          MOV #1042, T0 ; |385| 
         00027d 1248 
    3105 00027f AB31          MOV *(#_usbRegisters), AR3 ; |385| 
         000281 0000 
         000283 00!  
    3106 000284 A96B          MOV port(*AR3(T0)), AR1 ; |385| 
         000286 99   
    3107 000287 EC0C          BCLR @#6, AR1 ; |385| 
         000289 92   
    3108 00028a EC0C          BSET @#6, AR1 ; |385| 
         00028c 90   
    3109 00028d C96B          MOV AR1, port(*AR3(T0)) ; |385| 
         00028f 9A   
    3110                      .dwpsn  file "../c5535_bsl_revc/ezdsp5535_v1/boot_post_SDcard/boot_post/usb.c",line 387,column 7,is_s
    3111 000290 AB31          MOV *(#_usbRegisters), AR3 ; |387| 
         000292 0000 
         000294 00!  
    3112 000295 A96B          MOV port(*AR3(T0)), AR1 ; |387| 
         000297 99   
    3113 000298 EC06          BCLR @#3, AR1 ; |387| 
         00029a 92   
    3114 00029b EC06          BSET @#3, AR1 ; |387| 
         00029d 90   
    3115 00029e C96B          MOV AR1, port(*AR3(T0)) ; |387| 
         0002a0 9A   
    3116                      .dwpsn  file "../c5535_bsl_revc/ezdsp5535_v1/boot_post_SDcard/boot_post/usb.c",line 389,column 12,is_
    3117 0002a1 0603          B $C$L90  ; |389| 
         0002a3 65   
    3118                                                      ; branch occurs ; |389| 
    3119 0002a4       $C$L71:    
    3120                      .dwpsn  file "../c5535_bsl_revc/ezdsp5535_v1/boot_post_SDcard/boot_post/usb.c",line 395,column 9,is_s
    3121 0002a4 DF31          MOV uns(low_byte(*(#(_usbSetup+4)))), AR1 ; |395| 
         0002a6 9300 
         0002a8 0072-
    3122 0002aa C931          MOV AR1, *(#_endpt) ; |395| 
         0002ac 0002 
         0002ae 85-  
    3123                      .dwpsn  file "../c5535_bsl_revc/ezdsp5535_v1/boot_post_SDcard/boot_post/usb.c",line 396,column 9,is_s
    3124 0002af 2295          MOV AR1, T1
    3125              $C$DW$226       .dwtag  DW_TAG_TI_branch
    3126                      .dwattr $C$DW$226, DW_AT_low_pc(0x00)
TMS320C55x Assembler PC v4.4.1 Mon Aug 15 03:55:17 2016

Tools Copyright (c) 1996-2012 Texas Instruments Incorporated
usb.asm                                                              PAGE   76

    3127                      .dwattr $C$DW$226, DW_AT_name("_USB_epNumToHandle")
    3128                      .dwattr $C$DW$226, DW_AT_TI_call
    3129              
    3130 0002b1 6C00          CALL #_USB_epNumToHandle ; |396| 
         0002b3 0000!
    3131 0002b5 3D04  ||      MOV #0, T0
    3132              
    3133                                                      ; call occurs [#_USB_epNumToHandle] ; |396| 
    3134 0002b7 EB31          MOV XAR0, dbl(*(#_hEPx))
         0002b9 8500 
         0002bb 0010-
    3135                      .dwpsn  file "../c5535_bsl_revc/ezdsp5535_v1/boot_post_SDcard/boot_post/usb.c",line 397,column 9,is_s
    3136 0002bd EC31          AMOV #_status, XAR1 ; |397| 
         0002bf 9E00 
         0002c1 0075-
    3137              $C$DW$227       .dwtag  DW_TAG_TI_branch
    3138                      .dwattr $C$DW$227, DW_AT_low_pc(0x00)
    3139                      .dwattr $C$DW$227, DW_AT_name("_USB_getEndptStall")
    3140                      .dwattr $C$DW$227, DW_AT_TI_call
    3141 0002c3 6C00          CALL #_USB_getEndptStall ; |397| 
         0002c5 0000!
    3142                                                      ; call occurs [#_USB_getEndptStall] ; |397| 
    3143 0002c7 6D04          BCC $C$L90,T0 == #0 ; |397| 
         0002c9 033E 
    3144                                                      ; branchcc occurs ; |397| 
    3145                      .dwpsn  file "../c5535_bsl_revc/ezdsp5535_v1/boot_post_SDcard/boot_post/usb.c",line 399,column 10,is_
    3146 0002cb ED31          MOV dbl(*(#_hEPx)), XAR0
         0002cd 8F00 
         0002cf 0010-
    3147              $C$DW$228       .dwtag  DW_TAG_TI_branch
    3148                      .dwattr $C$DW$228, DW_AT_low_pc(0x00)
    3149                      .dwattr $C$DW$228, DW_AT_name("_USB_clearEndptStall")
    3150                      .dwattr $C$DW$228, DW_AT_TI_call
    3151 0002d1 6C00          CALL #_USB_clearEndptStall ; |399| 
         0002d3 0000!
    3152                                                      ; call occurs [#_USB_clearEndptStall] ; |399| 
    3153                      .dwpsn  file "../c5535_bsl_revc/ezdsp5535_v1/boot_post_SDcard/boot_post/usb.c",line 401,column 14,is_
    3154 0002d5 0603          B $C$L90  ; |401| 
         0002d7 31   
    3155                                                      ; branch occurs ; |401| 
    3156 0002d8       $C$L72:    
    3157                      .dwpsn  file "../c5535_bsl_revc/ezdsp5535_v1/boot_post_SDcard/boot_post/usb.c",line 404,column 9,is_s
    3158              $C$DW$229       .dwtag  DW_TAG_TI_branch
    3159                      .dwattr $C$DW$229, DW_AT_low_pc(0x00)
    3160                      .dwattr $C$DW$229, DW_AT_name("_USB_getRemoteWakeupStat")
    3161                      .dwattr $C$DW$229, DW_AT_TI_call
    3162              
    3163 0002d8 6C00          CALL #_USB_getRemoteWakeupStat ; |404| 
         0002da 0000!
    3164 0002dc 3D04  ||      MOV #0, T0
    3165              
    3166                                                      ; call occurs [#_USB_getRemoteWakeupStat] ; |404| 
    3167 0002de 6D04          BCC $C$L90,T0 == #0 ; |404| 
         0002e0 0327 
    3168                                                      ; branchcc occurs ; |404| 
TMS320C55x Assembler PC v4.4.1 Mon Aug 15 03:55:17 2016

Tools Copyright (c) 1996-2012 Texas Instruments Incorporated
usb.asm                                                              PAGE   77

    3169                      .dwpsn  file "../c5535_bsl_revc/ezdsp5535_v1/boot_post_SDcard/boot_post/usb.c",line 406,column 10,is_
    3170 0002e2 3C04          MOV #0, T0
    3171              $C$DW$230       .dwtag  DW_TAG_TI_branch
    3172                      .dwattr $C$DW$230, DW_AT_low_pc(0x00)
    3173                      .dwattr $C$DW$230, DW_AT_name("_USB_setRemoteWakeup")
    3174                      .dwattr $C$DW$230, DW_AT_TI_call
    3175              
    3176 0002e4 6C00          CALL #_USB_setRemoteWakeup ; |406| 
         0002e6 0000!
    3177 0002e8 3D05  ||      MOV #0, T1
    3178              
    3179                                                      ; call occurs [#_USB_setRemoteWakeup] ; |406| 
    3180                      .dwpsn  file "../c5535_bsl_revc/ezdsp5535_v1/boot_post_SDcard/boot_post/usb.c",line 409,column 14,is_
    3181 0002ea 0603          B $C$L90  ; |409| 
         0002ec 1C   
    3182                                                      ; branch occurs ; |409| 
    3183 0002ed       $C$L73:    
    3184                      .dwpsn  file "../c5535_bsl_revc/ezdsp5535_v1/boot_post_SDcard/boot_post/usb.c",line 392,column 7,is_s
    3185 0002ed A931          MOV *(#(_usbSetup+3)), AR1 ; |392| 
         0002ef 0000 
         0002f1 71-  
    3186 0002f2 0409          BCC $C$L71,AR1 == #0 ; |392| 
         0002f4 AF   
    3187                                                      ; branchcc occurs ; |392| 
    3188 0002f5 1290          CMPU AR1 == AR2, TC1 ; |392| 
         0002f7 A4   
    3189 0002f8 0464          BCC $C$L72,TC1 ; |392| 
         0002fa DD   
    3190                                                      ; branchcc occurs ; |392| 
    3191 0002fb 0603          B $C$L90  ; |392| 
         0002fd 0B   
    3192                                                      ; branch occurs ; |392| 
    3193 0002fe       $C$L74:    
    3194                      .dwpsn  file "../c5535_bsl_revc/ezdsp5535_v1/boot_post_SDcard/boot_post/usb.c",line 417,column 6,is_s
    3195 0002fe ED31          MOV dbl(*(#(_hEpObjArray+2))), XAR0
         000300 8F00 
         000302 0002-
    3196 000304 EC31          AMOV #_curCfg, XAR1 ; |417| 
         000306 9E00 
         000308 0287-
    3197 00030a 7600          MOV #128, T1 ; |417| 
         00030c 8058 
    3198              $C$DW$231       .dwtag  DW_TAG_TI_branch
    3199                      .dwattr $C$DW$231, DW_AT_low_pc(0x00)
    3200                      .dwattr $C$DW$231, DW_AT_name("_USB_postTransaction")
    3201                      .dwattr $C$DW$231, DW_AT_TI_call
    3202              
    3203 00030e 6C00          CALL #_USB_postTransaction ; |417| 
         000310 0000!
    3204 000312 3D14  ||      MOV #1, T0
    3205              
    3206                                                      ; call occurs [#_USB_postTransaction] ; |417| 
    3207 000314 C431          MOV T0, *(#_status) ; |417| 
         000316 0000 
         000318 75-  
TMS320C55x Assembler PC v4.4.1 Mon Aug 15 03:55:17 2016

Tools Copyright (c) 1996-2012 Texas Instruments Incorporated
usb.asm                                                              PAGE   78

    3208                      .dwpsn  file "../c5535_bsl_revc/ezdsp5535_v1/boot_post_SDcard/boot_post/usb.c",line 418,column 11,is_
    3209 000319 0602          B $C$L90  ; |418| 
         00031b ED   
    3210                                                      ; branch occurs ; |418| 
    3211 00031c       $C$L75:    
    3212                      .dwpsn  file "../c5535_bsl_revc/ezdsp5535_v1/boot_post_SDcard/boot_post/usb.c",line 421,column 6,is_s
    3213 00031c A931          MOV *(#(_usbSetup+3)), AR1 ; |421| 
         00031e 0000 
         000320 71-  
    3214 000321 C931          MOV AR1, *(#_curCfg) ; |421| 
         000323 0002 
         000325 87-  
    3215                      .dwpsn  file "../c5535_bsl_revc/ezdsp5535_v1/boot_post_SDcard/boot_post/usb.c",line 422,column 6,is_s
    3216 000326 AB31          MOV *(#_usbRegisters), AR3 ; |422| 
         000328 0000 
         00032a 00!  
    3217 00032b A96B          MOV port(*AR3(T0)), AR1 ; |422| 
         00032d 99   
    3218 00032e EC0C          BCLR @#6, AR1 ; |422| 
         000330 92   
    3219 000331 EC0C          BSET @#6, AR1 ; |422| 
         000333 90   
    3220 000334 C96B          MOV AR1, port(*AR3(T0)) ; |422| 
         000336 9A   
    3221                      .dwpsn  file "../c5535_bsl_revc/ezdsp5535_v1/boot_post_SDcard/boot_post/usb.c",line 423,column 6,is_s
    3222 000337 AB31          MOV *(#_usbRegisters), AR3 ; |423| 
         000339 0000 
         00033b 00!  
    3223 00033c A96B          MOV port(*AR3(T0)), AR1 ; |423| 
         00033e 99   
    3224 00033f EC06          BCLR @#3, AR1 ; |423| 
         000341 92   
    3225 000342 EC06          BSET @#3, AR1 ; |423| 
         000344 90   
    3226 000345 C96B          MOV AR1, port(*AR3(T0)) ; |423| 
         000347 9A   
    3227                      .dwpsn  file "../c5535_bsl_revc/ezdsp5535_v1/boot_post_SDcard/boot_post/usb.c",line 424,column 11,is_
    3228 000348 0602          B $C$L90  ; |424| 
         00034a BE   
    3229                                                      ; branch occurs ; |424| 
    3230 00034b       $C$L76:    
    3231                      .dwpsn  file "../c5535_bsl_revc/ezdsp5535_v1/boot_post_SDcard/boot_post/usb.c",line 427,column 7,is_s
    3232 00034b DF31          MOV uns(low_byte(*(#(_usbSetup+4)))), AR1 ; |427| 
         00034d 9300 
         00034f 0072-
    3233 000351 C931          MOV AR1, *(#_endpt) ; |427| 
         000353 0002 
         000355 85-  
    3234                      .dwpsn  file "../c5535_bsl_revc/ezdsp5535_v1/boot_post_SDcard/boot_post/usb.c",line 428,column 7,is_s
    3235 000356 3C04          MOV #0, T0
    3236              $C$DW$232       .dwtag  DW_TAG_TI_branch
    3237                      .dwattr $C$DW$232, DW_AT_low_pc(0x00)
    3238                      .dwattr $C$DW$232, DW_AT_name("_USB_epNumToHandle")
    3239                      .dwattr $C$DW$232, DW_AT_TI_call
    3240              
TMS320C55x Assembler PC v4.4.1 Mon Aug 15 03:55:17 2016

Tools Copyright (c) 1996-2012 Texas Instruments Incorporated
usb.asm                                                              PAGE   79

    3241 000358 6C00          CALL #_USB_epNumToHandle ; |428| 
         00035a 0000!
    3242 00035c 2395  ||      MOV AR1, T1
    3243              
    3244                                                      ; call occurs [#_USB_epNumToHandle] ; |428| 
    3245 00035e EB31          MOV XAR0, dbl(*(#_hEPx))
         000360 8500 
         000362 0010-
    3246                      .dwpsn  file "../c5535_bsl_revc/ezdsp5535_v1/boot_post_SDcard/boot_post/usb.c",line 429,column 7,is_s
    3247 000364 3C04          MOV #0, T0
    3248 000366 EC31          AMOV #0, XAR1 ; |429| 
         000368 9E00 
         00036a 0000 
    3249              $C$DW$233       .dwtag  DW_TAG_TI_branch
    3250                      .dwattr $C$DW$233, DW_AT_low_pc(0x00)
    3251                      .dwattr $C$DW$233, DW_AT_name("_USB_postTransaction")
    3252                      .dwattr $C$DW$233, DW_AT_TI_call
    3253              
    3254 00036c 6C00          CALL #_USB_postTransaction ; |429| 
         00036e 0000!
    3255 000370 3D05  ||      MOV #0, T1
    3256              
    3257                                                      ; call occurs [#_USB_postTransaction] ; |429| 
    3258                      .dwpsn  file "../c5535_bsl_revc/ezdsp5535_v1/boot_post_SDcard/boot_post/usb.c",line 433,column 7,is_s
    3259 000372 7604          MOV #1042, T0 ; |433| 
         000374 1248 
    3260 000376 AB31          MOV *(#_usbRegisters), AR3 ; |433| 
         000378 0000 
         00037a 00!  
    3261 00037b A96B          MOV port(*AR3(T0)), AR1 ; |433| 
         00037d 99   
    3262 00037e EC0C          BCLR @#6, AR1 ; |433| 
         000380 92   
    3263 000381 EC0C          BSET @#6, AR1 ; |433| 
         000383 90   
    3264 000384 C96B          MOV AR1, port(*AR3(T0)) ; |433| 
         000386 9A   
    3265                      .dwpsn  file "../c5535_bsl_revc/ezdsp5535_v1/boot_post_SDcard/boot_post/usb.c",line 435,column 7,is_s
    3266 000387 AB31          MOV *(#_usbRegisters), AR3 ; |435| 
         000389 0000 
         00038b 00!  
    3267 00038c A96B          MOV port(*AR3(T0)), AR1 ; |435| 
         00038e 99   
    3268 00038f EC06          BCLR @#3, AR1 ; |435| 
         000391 92   
    3269 000392 EC06          BSET @#3, AR1 ; |435| 
         000394 90   
    3270 000395 C96B          MOV AR1, port(*AR3(T0)) ; |435| 
         000397 9A   
    3271                      .dwpsn  file "../c5535_bsl_revc/ezdsp5535_v1/boot_post_SDcard/boot_post/usb.c",line 437,column 12,is_
    3272 000398 0602          B $C$L90  ; |437| 
         00039a 6E   
    3273                                                      ; branch occurs ; |437| 
    3274 00039b       $C$L77:    
    3275                      .dwpsn  file "../c5535_bsl_revc/ezdsp5535_v1/boot_post_SDcard/boot_post/usb.c",line 444,column 9,is_s
TMS320C55x Assembler PC v4.4.1 Mon Aug 15 03:55:17 2016

Tools Copyright (c) 1996-2012 Texas Instruments Incorporated
usb.asm                                                              PAGE   80

    3276 00039b EC31          AMOV #_deviceDesc, XAR3 ; |444| 
         00039d BE00 
         00039f 0289-
    3277 0003a1 EB31          MOV XAR3, dbl(*(#_deviceDescPtr))
         0003a3 B500 
         0003a5 027C-
    3278                      .dwpsn  file "../c5535_bsl_revc/ezdsp5535_v1/boot_post_SDcard/boot_post/usb.c",line 445,column 9,is_s
    3279 0003a7 ED31          MOV dbl(*(#(_hEpObjArray+2))), XAR0
         0003a9 8F00 
         0003ab 0002-
    3280 0003ad DF31          MOV uns(low_byte(*(#_deviceDesc))), T0 ; |445| 
         0003af 4300 
         0003b1 0289-
    3281 0003b3 7600          MOV #128, T1 ; |445| 
         0003b5 8058 
    3282 0003b7 ED31          MOV dbl(*(#_deviceDescPtr)), XAR1
         0003b9 9F00 
         0003bb 027C-
    3283              $C$DW$234       .dwtag  DW_TAG_TI_branch
    3284                      .dwattr $C$DW$234, DW_AT_low_pc(0x00)
    3285                      .dwattr $C$DW$234, DW_AT_name("_USB_postTransaction")
    3286                      .dwattr $C$DW$234, DW_AT_TI_call
    3287 0003bd 6C00          CALL #_USB_postTransaction ; |445| 
         0003bf 0000!
    3288                                                      ; call occurs [#_USB_postTransaction] ; |445| 
    3289 0003c1 C431          MOV T0, *(#_status) ; |445| 
         0003c3 0000 
         0003c5 75-  
    3290                      .dwpsn  file "../c5535_bsl_revc/ezdsp5535_v1/boot_post_SDcard/boot_post/usb.c",line 448,column 14,is_
    3291 0003c6 0601          B $C$L85  ; |448| 
         0003c8 63   
    3292                                                      ; branch occurs ; |448| 
    3293 0003c9       $C$L78:    
    3294                      .dwpsn  file "../c5535_bsl_revc/ezdsp5535_v1/boot_post_SDcard/boot_post/usb.c",line 451,column 9,is_s
    3295 0003c9 F031          CMP *(#(_usbSetup+5)) == #9, TC1 ; |451| 
         0003cb 0009 
         0003cd 0000 
         0003cf 73-  
    3296 0003d0 0474          BCC $C$L79,!TC1 ; |451| 
         0003d2 2A   
    3297                                                      ; branchcc occurs ; |451| 
    3298                      .dwpsn  file "../c5535_bsl_revc/ezdsp5535_v1/boot_post_SDcard/boot_post/usb.c",line 453,column 10,is_
    3299 0003d3 EC31          AMOV #_cfgDesc, XAR3 ; |453| 
         0003d5 BE00 
         0003d7 0292-
    3300 0003d9 EB31          MOV XAR3, dbl(*(#_cfgDescPtr))
         0003db B500 
         0003dd 027E-
    3301                      .dwpsn  file "../c5535_bsl_revc/ezdsp5535_v1/boot_post_SDcard/boot_post/usb.c",line 454,column 10,is_
    3302 0003df ED31          MOV dbl(*(#(_hEpObjArray+2))), XAR0
         0003e1 8F00 
         0003e3 0002-
    3303 0003e5 7600          MOV #128, T1 ; |454| 
         0003e7 8058 
    3304 0003e9 ED31          MOV dbl(*(#_cfgDescPtr)), XAR1
TMS320C55x Assembler PC v4.4.1 Mon Aug 15 03:55:17 2016

Tools Copyright (c) 1996-2012 Texas Instruments Incorporated
usb.asm                                                              PAGE   81

         0003eb 9F00 
         0003ed 027E-
    3305              $C$DW$235       .dwtag  DW_TAG_TI_branch
    3306                      .dwattr $C$DW$235, DW_AT_low_pc(0x00)
    3307                      .dwattr $C$DW$235, DW_AT_name("_USB_postTransaction")
    3308                      .dwattr $C$DW$235, DW_AT_TI_call
    3309              
    3310 0003ef 6C00          CALL #_USB_postTransaction ; |454| 
         0003f1 0000!
    3311 0003f3 3D94  ||      MOV #9, T0
    3312              
    3313                                                      ; call occurs [#_USB_postTransaction] ; |454| 
    3314 0003f5 C431          MOV T0, *(#_status) ; |454| 
         0003f7 0000 
         0003f9 75-  
    3315                      .dwpsn  file "../c5535_bsl_revc/ezdsp5535_v1/boot_post_SDcard/boot_post/usb.c",line 457,column 9,is_s
    3316 0003fa 0601          B $C$L85  ; |457| 
         0003fc 2F   
    3317                                                      ; branch occurs ; |457| 
    3318 0003fd       $C$L79:    
    3319                      .dwpsn  file "../c5535_bsl_revc/ezdsp5535_v1/boot_post_SDcard/boot_post/usb.c",line 460,column 10,is_
    3320 0003fd EC31          AMOV #_cfgDesc, XAR3 ; |460| 
         0003ff BE00 
         000401 0292-
    3321 000403 EB31          MOV XAR3, dbl(*(#_cfgDescPtr))
         000405 B500 
         000407 027E-
    3322                      .dwpsn  file "../c5535_bsl_revc/ezdsp5535_v1/boot_post_SDcard/boot_post/usb.c",line 461,column 10,is_
    3323 000409 ED31          MOV dbl(*(#(_hEpObjArray+2))), XAR0
         00040b 8F00 
         00040d 0002-
    3324 00040f A431          MOV *(#(_cfgDesc+1)), T0 ; |461| 
         000411 0002 
         000413 93-  
    3325 000414 7600          MOV #128, T1 ; |461| 
         000416 8058 
    3326 000418 ED31          MOV dbl(*(#_cfgDescPtr)), XAR1
         00041a 9F00 
         00041c 027E-
    3327              $C$DW$236       .dwtag  DW_TAG_TI_branch
    3328                      .dwattr $C$DW$236, DW_AT_low_pc(0x00)
    3329                      .dwattr $C$DW$236, DW_AT_name("_USB_postTransaction")
    3330                      .dwattr $C$DW$236, DW_AT_TI_call
    3331 00041e 6C00          CALL #_USB_postTransaction ; |461| 
         000420 0000!
    3332                                                      ; call occurs [#_USB_postTransaction] ; |461| 
    3333 000422 C431          MOV T0, *(#_status) ; |461| 
         000424 0000 
         000426 75-  
    3334                      .dwpsn  file "../c5535_bsl_revc/ezdsp5535_v1/boot_post_SDcard/boot_post/usb.c",line 466,column 14,is_
    3335 000427 0601          B $C$L85  ; |466| 
         000429 02   
    3336                                                      ; branch occurs ; |466| 
    3337 00042a       $C$L80:    
    3338                      .dwpsn  file "../c5535_bsl_revc/ezdsp5535_v1/boot_post_SDcard/boot_post/usb.c",line 469,column 9,is_s
TMS320C55x Assembler PC v4.4.1 Mon Aug 15 03:55:17 2016

Tools Copyright (c) 1996-2012 Texas Instruments Incorporated
usb.asm                                                              PAGE   82

    3339 00042a DF31          MOV uns(low_byte(*(#(_usbSetup+3)))), AR1 ; |469| 
         00042c 9300 
         00042e 0071-
    3340 000430 0419          BCC $C$L81,AR1 != #0 ; |469| 
         000432 2B   
    3341                                                      ; branchcc occurs ; |469| 
    3342                      .dwpsn  file "../c5535_bsl_revc/ezdsp5535_v1/boot_post_SDcard/boot_post/usb.c",line 471,column 10,is_
    3343 000433 EC31          AMOV #_strDesc, XAR3 ; |471| 
         000435 BE00 
         000437 02A2-
    3344 000439 EB31          MOV XAR3, dbl(*(#_strDescPtr))
         00043b B500 
         00043d 0280-
    3345                      .dwpsn  file "../c5535_bsl_revc/ezdsp5535_v1/boot_post_SDcard/boot_post/usb.c",line 472,column 10,is_
    3346 00043f ED31          MOV dbl(*(#(_hEpObjArray+2))), XAR0
         000441 8F00 
         000443 0002-
    3347 000445 DF31          MOV uns(low_byte(*(#_strDesc))), T0 ; |472| 
         000447 4300 
         000449 02A2-
    3348 00044b 7600          MOV #128, T1 ; |472| 
         00044d 8058 
    3349 00044f ED31          MOV dbl(*(#_strDescPtr)), XAR1
         000451 9F00 
         000453 0280-
    3350              $C$DW$237       .dwtag  DW_TAG_TI_branch
    3351                      .dwattr $C$DW$237, DW_AT_low_pc(0x00)
    3352                      .dwattr $C$DW$237, DW_AT_name("_USB_postTransaction")
    3353                      .dwattr $C$DW$237, DW_AT_TI_call
    3354 000455 6C00          CALL #_USB_postTransaction ; |472| 
         000457 0000!
    3355                                                      ; call occurs [#_USB_postTransaction] ; |472| 
    3356 000459 C431          MOV T0, *(#_status) ; |472| 
         00045b 0000 
         00045d 75-  
    3357 00045e       $C$L81:    
    3358                      .dwpsn  file "../c5535_bsl_revc/ezdsp5535_v1/boot_post_SDcard/boot_post/usb.c",line 476,column 9,is_s
    3359 00045e 3C1A          MOV #1, AR2
    3360 000460 DF31          MOV uns(low_byte(*(#(_usbSetup+3)))), AR1 ; |476| 
         000462 9300 
         000464 0071-
    3361 000466 129C          CMPU AR1 != AR2, TC1 ; |476| 
         000468 A4   
    3362 000469 0464          BCC $C$L82,TC1 ; |476| 
         00046b 2B   
    3363                                                      ; branchcc occurs ; |476| 
    3364                      .dwpsn  file "../c5535_bsl_revc/ezdsp5535_v1/boot_post_SDcard/boot_post/usb.c",line 478,column 10,is_
    3365 00046c EC31          AMOV #(_strDesc+36), XAR3 ; |478| 
         00046e BE00 
         000470 02C6-
    3366 000472 EB31          MOV XAR3, dbl(*(#_strDescPtr))
         000474 B500 
         000476 0280-
    3367                      .dwpsn  file "../c5535_bsl_revc/ezdsp5535_v1/boot_post_SDcard/boot_post/usb.c",line 479,column 10,is_
    3368 000478 ED31          MOV dbl(*(#(_hEpObjArray+2))), XAR0
TMS320C55x Assembler PC v4.4.1 Mon Aug 15 03:55:17 2016

Tools Copyright (c) 1996-2012 Texas Instruments Incorporated
usb.asm                                                              PAGE   83

         00047a 8F00 
         00047c 0002-
    3369 00047e DF31          MOV uns(low_byte(*(#(_strDesc+36)))), T0 ; |479| 
         000480 4300 
         000482 02C6-
    3370 000484 7600          MOV #128, T1 ; |479| 
         000486 8058 
    3371 000488 ED31          MOV dbl(*(#_strDescPtr)), XAR1
         00048a 9F00 
         00048c 0280-
    3372              $C$DW$238       .dwtag  DW_TAG_TI_branch
    3373                      .dwattr $C$DW$238, DW_AT_low_pc(0x00)
    3374                      .dwattr $C$DW$238, DW_AT_name("_USB_postTransaction")
    3375                      .dwattr $C$DW$238, DW_AT_TI_call
    3376 00048e 6C00          CALL #_USB_postTransaction ; |479| 
         000490 0000!
    3377                                                      ; call occurs [#_USB_postTransaction] ; |479| 
    3378 000492 C431          MOV T0, *(#_status) ; |479| 
         000494 0000 
         000496 75-  
    3379 000497       $C$L82:    
    3380                      .dwpsn  file "../c5535_bsl_revc/ezdsp5535_v1/boot_post_SDcard/boot_post/usb.c",line 483,column 9,is_s
    3381 000497 3C2A          MOV #2, AR2
    3382 000499 DF31          MOV uns(low_byte(*(#(_usbSetup+3)))), AR1 ; |483| 
         00049b 9300 
         00049d 0071-
    3383 00049f 129C          CMPU AR1 != AR2, TC1 ; |483| 
         0004a1 A4   
    3384 0004a2 0464          BCC $C$L83,TC1 ; |483| 
         0004a4 2B   
    3385                                                      ; branchcc occurs ; |483| 
    3386                      .dwpsn  file "../c5535_bsl_revc/ezdsp5535_v1/boot_post_SDcard/boot_post/usb.c",line 485,column 10,is_
    3387 0004a5 EC31          AMOV #(_strDesc+72), XAR3 ; |485| 
         0004a7 BE00 
         0004a9 02EA-
    3388 0004ab EB31          MOV XAR3, dbl(*(#_strDescPtr))
         0004ad B500 
         0004af 0280-
    3389                      .dwpsn  file "../c5535_bsl_revc/ezdsp5535_v1/boot_post_SDcard/boot_post/usb.c",line 486,column 10,is_
    3390 0004b1 ED31          MOV dbl(*(#(_hEpObjArray+2))), XAR0
         0004b3 8F00 
         0004b5 0002-
    3391 0004b7 DF31          MOV uns(low_byte(*(#(_strDesc+72)))), T0 ; |486| 
         0004b9 4300 
         0004bb 02EA-
    3392 0004bd 7600          MOV #128, T1 ; |486| 
         0004bf 8058 
    3393 0004c1 ED31          MOV dbl(*(#_strDescPtr)), XAR1
         0004c3 9F00 
         0004c5 0280-
    3394              $C$DW$239       .dwtag  DW_TAG_TI_branch
    3395                      .dwattr $C$DW$239, DW_AT_low_pc(0x00)
    3396                      .dwattr $C$DW$239, DW_AT_name("_USB_postTransaction")
    3397                      .dwattr $C$DW$239, DW_AT_TI_call
    3398 0004c7 6C00          CALL #_USB_postTransaction ; |486| 
TMS320C55x Assembler PC v4.4.1 Mon Aug 15 03:55:17 2016

Tools Copyright (c) 1996-2012 Texas Instruments Incorporated
usb.asm                                                              PAGE   84

         0004c9 0000!
    3399                                                      ; call occurs [#_USB_postTransaction] ; |486| 
    3400 0004cb C431          MOV T0, *(#_status) ; |486| 
         0004cd 0000 
         0004cf 75-  
    3401 0004d0       $C$L83:    
    3402                      .dwpsn  file "../c5535_bsl_revc/ezdsp5535_v1/boot_post_SDcard/boot_post/usb.c",line 490,column 9,is_s
    3403 0004d0 3C3A          MOV #3, AR2
    3404 0004d2 DF31          MOV uns(low_byte(*(#(_usbSetup+3)))), AR1 ; |490| 
         0004d4 9300 
         0004d6 0071-
    3405 0004d8 129C          CMPU AR1 != AR2, TC1 ; |490| 
         0004da A4   
    3406 0004db 0464          BCC $C$L85,TC1 ; |490| 
         0004dd 4E   
    3407                                                      ; branchcc occurs ; |490| 
    3408                      .dwpsn  file "../c5535_bsl_revc/ezdsp5535_v1/boot_post_SDcard/boot_post/usb.c",line 492,column 10,is_
    3409 0004de EC31          AMOV #(_strDesc+108), XAR3 ; |492| 
         0004e0 BE00 
         0004e2 030E-
    3410 0004e4 EB31          MOV XAR3, dbl(*(#_strDescPtr))
         0004e6 B500 
         0004e8 0280-
    3411                      .dwpsn  file "../c5535_bsl_revc/ezdsp5535_v1/boot_post_SDcard/boot_post/usb.c",line 493,column 10,is_
    3412 0004ea ED31          MOV dbl(*(#(_hEpObjArray+2))), XAR0
         0004ec 8F00 
         0004ee 0002-
    3413 0004f0 DF31          MOV uns(low_byte(*(#(_strDesc+108)))), T0 ; |493| 
         0004f2 4300 
         0004f4 030E-
    3414 0004f6 7600          MOV #128, T1 ; |493| 
         0004f8 8058 
    3415 0004fa ED31          MOV dbl(*(#_strDescPtr)), XAR1
         0004fc 9F00 
         0004fe 0280-
    3416              $C$DW$240       .dwtag  DW_TAG_TI_branch
    3417                      .dwattr $C$DW$240, DW_AT_low_pc(0x00)
    3418                      .dwattr $C$DW$240, DW_AT_name("_USB_postTransaction")
    3419                      .dwattr $C$DW$240, DW_AT_TI_call
    3420 000500 6C00          CALL #_USB_postTransaction ; |493| 
         000502 0000!
    3421                                                      ; call occurs [#_USB_postTransaction] ; |493| 
    3422 000504 C431          MOV T0, *(#_status) ; |493| 
         000506 0000 
         000508 75-  
    3423                      .dwpsn  file "../c5535_bsl_revc/ezdsp5535_v1/boot_post_SDcard/boot_post/usb.c",line 497,column 14,is_
    3424 000509 4A21          B $C$L85  ; |497| 
    3425                                                      ; branch occurs ; |497| 
    3426 00050b       $C$L84:    
    3427                      .dwpsn  file "../c5535_bsl_revc/ezdsp5535_v1/boot_post_SDcard/boot_post/usb.c",line 441,column 7,is_s
    3428 00050b 3C1A          MOV #1, AR2
    3429 00050d DF31          MOV uns(high_byte(*(#(_usbSetup+3)))), AR1 ; |441| 
         00050f 9100 
         000511 0071-
    3430 000513 1290          CMPU AR1 == AR2, TC1 ; |441| 
TMS320C55x Assembler PC v4.4.1 Mon Aug 15 03:55:17 2016

Tools Copyright (c) 1996-2012 Texas Instruments Incorporated
usb.asm                                                              PAGE   85

         000515 A4   
    3431 000516 6D64          BCC $C$L77,TC1 ; |441| 
         000518 FE81 
    3432                                                      ; branchcc occurs ; |441| 
    3433 00051a 3C2A          MOV #2, AR2
    3434 00051c 1290          CMPU AR1 == AR2, TC1 ; |441| 
         00051e A4   
    3435 00051f 6D64          BCC $C$L78,TC1 ; |441| 
         000521 FEA6 
    3436                                                      ; branchcc occurs ; |441| 
    3437 000523 3C3A          MOV #3, AR2
    3438 000525 1290          CMPU AR1 == AR2, TC1 ; |441| 
         000527 A4   
    3439 000528 6D64          BCC $C$L80,TC1 ; |441| 
         00052a FEFE 
    3440                                                      ; branchcc occurs ; |441| 
    3441 00052c       $C$L85:    
    3442                      .dwpsn  file "../c5535_bsl_revc/ezdsp5535_v1/boot_post_SDcard/boot_post/usb.c",line 503,column 7,is_s
    3443 00052c EC31          AMOV #_deviceDesc, XAR3 ; |503| 
         00052e BE00 
         000530 0289-
    3444 000532 EB31          MOV XAR3, dbl(*(#_deviceDescPtr))
         000534 B500 
         000536 027C-
    3445                      .dwpsn  file "../c5535_bsl_revc/ezdsp5535_v1/boot_post_SDcard/boot_post/usb.c",line 504,column 7,is_s
    3446 000538 EC31          AMOV #_cfgDesc, XAR3 ; |504| 
         00053a BE00 
         00053c 0292-
    3447 00053e EB31          MOV XAR3, dbl(*(#_cfgDescPtr))
         000540 B500 
         000542 027E-
    3448                      .dwpsn  file "../c5535_bsl_revc/ezdsp5535_v1/boot_post_SDcard/boot_post/usb.c",line 505,column 7,is_s
    3449 000544 EC31          AMOV #_strDesc, XAR3 ; |505| 
         000546 BE00 
         000548 02A2-
    3450 00054a EB31          MOV XAR3, dbl(*(#_strDescPtr))
         00054c B500 
         00054e 0280-
    3451                      .dwpsn  file "../c5535_bsl_revc/ezdsp5535_v1/boot_post_SDcard/boot_post/usb.c",line 507,column 7,is_s
    3452 000550 7604          MOV #1042, T0 ; |507| 
         000552 1248 
    3453 000554 AB31          MOV *(#_usbRegisters), AR3 ; |507| 
         000556 0000 
         000558 00!  
    3454 000559 A96B          MOV port(*AR3(T0)), AR1 ; |507| 
         00055b 99   
    3455 00055c EC02          BCLR @#1, AR1 ; |507| 
         00055e 92   
    3456 00055f EC02          BSET @#1, AR1 ; |507| 
         000561 90   
    3457 000562 C96B          MOV AR1, port(*AR3(T0)) ; |507| 
         000564 9A   
    3458                      .dwpsn  file "../c5535_bsl_revc/ezdsp5535_v1/boot_post_SDcard/boot_post/usb.c",line 509,column 7,is_s
    3459 000565 AB31          MOV *(#_usbRegisters), AR3 ; |509| 
         000567 0000 
TMS320C55x Assembler PC v4.4.1 Mon Aug 15 03:55:17 2016

Tools Copyright (c) 1996-2012 Texas Instruments Incorporated
usb.asm                                                              PAGE   86

         000569 00!  
    3460 00056a A96B          MOV port(*AR3(T0)), AR1 ; |509| 
         00056c 99   
    3461 00056d EC06          BCLR @#3, AR1 ; |509| 
         00056f 92   
    3462 000570 EC06          BSET @#3, AR1 ; |509| 
         000572 90   
    3463 000573 C96B          MOV AR1, port(*AR3(T0)) ; |509| 
         000575 9A   
    3464                      .dwpsn  file "../c5535_bsl_revc/ezdsp5535_v1/boot_post_SDcard/boot_post/usb.c",line 511,column 12,is_
    3465 000576 0600          B $C$L90  ; |511| 
         000578 90   
    3466                                                      ; branch occurs ; |511| 
    3467 000579       $C$L86:    
    3468                      .dwpsn  file "../c5535_bsl_revc/ezdsp5535_v1/boot_post_SDcard/boot_post/usb.c",line 514,column 7,is_s
    3469 000579 A931          MOV *(#(_usbSetup+3)), AR1 ; |514| 
         00057b 0000 
         00057d 71-  
    3470 00057e C931          MOV AR1, *(#_devAddr) ; |514| 
         000580 0002 
         000582 83-  
    3471                      .dwpsn  file "../c5535_bsl_revc/ezdsp5535_v1/boot_post_SDcard/boot_post/usb.c",line 515,column 7,is_s
    3472 000583 AB31          MOV *(#_usbRegisters), AR3 ; |515| 
         000585 0000 
         000587 00!  
    3473 000588 A96B          MOV port(*AR3(T0)), AR1 ; |515| 
         00058a 99   
    3474 00058b EC0C          BCLR @#6, AR1 ; |515| 
         00058d 92   
    3475 00058e EC0C          BSET @#6, AR1 ; |515| 
         000590 90   
    3476 000591 C96B          MOV AR1, port(*AR3(T0)) ; |515| 
         000593 9A   
    3477                      .dwpsn  file "../c5535_bsl_revc/ezdsp5535_v1/boot_post_SDcard/boot_post/usb.c",line 517,column 7,is_s
    3478 000594 AB31          MOV *(#_usbRegisters), AR3 ; |517| 
         000596 0000 
         000598 00!  
    3479 000599 A96B          MOV port(*AR3(T0)), AR1 ; |517| 
         00059b 99   
    3480 00059c EC06          BCLR @#3, AR1 ; |517| 
         00059e 92   
    3481 00059f EC06          BSET @#3, AR1 ; |517| 
         0005a1 90   
    3482 0005a2 C96B          MOV AR1, port(*AR3(T0)) ; |517| 
         0005a4 9A   
    3483                      .dwpsn  file "../c5535_bsl_revc/ezdsp5535_v1/boot_post_SDcard/boot_post/usb.c",line 519,column 12,is_
    3484 0005a5 0600          B $C$L90  ; |519| 
         0005a7 61   
    3485                                                      ; branch occurs ; |519| 
    3486 0005a8       $C$L87:    
    3487                      .dwpsn  file "../c5535_bsl_revc/ezdsp5535_v1/boot_post_SDcard/boot_post/usb.c",line 356,column 5,is_s
    3488 0005a8 3C6A          MOV #6, AR2
    3489 0005aa A931          MOV *(#(_usbSetup+2)), AR1 ; |356| 
         0005ac 0000 
         0005ae 70-  
TMS320C55x Assembler PC v4.4.1 Mon Aug 15 03:55:17 2016

Tools Copyright (c) 1996-2012 Texas Instruments Incorporated
usb.asm                                                              PAGE   87

    3490 0005af 12A4          CMP AR1 > AR2, TC1 ; |356| 
         0005b1 90   
    3491 0005b2 0464          BCC $C$L88,TC1 ; |356| 
         0005b4 23   
    3492                                                      ; branchcc occurs ; |356| 
    3493 0005b5 1290          CMP AR1 == AR2, TC1 ; |356| 
         0005b7 A0   
    3494 0005b8 6D64          BCC $C$L84,TC1 ; |356| 
         0005ba FF4F 
    3495                                                      ; branchcc occurs ; |356| 
    3496 0005bc 3C1A          MOV #1, AR2
    3497 0005be 1290          CMPU AR1 == AR2, TC1 ; |356| 
         0005c0 A4   
    3498 0005c1 6D64          BCC $C$L73,TC1 ; |356| 
         0005c3 FD28 
    3499                                                      ; branchcc occurs ; |356| 
    3500 0005c5 3C3A          MOV #3, AR2
    3501 0005c7 1290          CMPU AR1 == AR2, TC1 ; |356| 
         0005c9 A4   
    3502 0005ca 6D64          BCC $C$L69,TC1 ; |356| 
         0005cc FC9D 
    3503                                                      ; branchcc occurs ; |356| 
    3504 0005ce 3C5A          MOV #5, AR2
    3505 0005d0 1290          CMPU AR1 == AR2, TC1 ; |356| 
         0005d2 A4   
    3506 0005d3 0464          BCC $C$L86,TC1 ; |356| 
         0005d5 A3   
    3507                                                      ; branchcc occurs ; |356| 
    3508 0005d6 4A31          B $C$L90  ; |356| 
    3509                                                      ; branch occurs ; |356| 
    3510 0005d8       $C$L88:    
    3511 0005d8 3C8A          MOV #8, AR2
    3512 0005da 1290          CMPU AR1 == AR2, TC1 ; |356| 
         0005dc A4   
    3513 0005dd 6D64          BCC $C$L74,TC1 ; |356| 
         0005df FD1D 
    3514                                                      ; branchcc occurs ; |356| 
    3515 0005e1 3C9A          MOV #9, AR2
    3516 0005e3 1290          CMPU AR1 == AR2, TC1 ; |356| 
         0005e5 A4   
    3517 0005e6 6D64          BCC $C$L75,TC1 ; |356| 
         0005e8 FD32 
    3518                                                      ; branchcc occurs ; |356| 
    3519 0005ea 3CBA          MOV #11, AR2
    3520 0005ec 1290          CMPU AR1 == AR2, TC1 ; |356| 
         0005ee A4   
    3521 0005ef 6D64          BCC $C$L76,TC1 ; |356| 
         0005f1 FD58 
    3522                                                      ; branchcc occurs ; |356| 
    3523 0005f3 4A14          B $C$L90  ; |356| 
    3524                                                      ; branch occurs ; |356| 
    3525 0005f5       $C$L89:    
    3526                      .dwpsn  file "../c5535_bsl_revc/ezdsp5535_v1/boot_post_SDcard/boot_post/usb.c",line 527,column 5,is_s
    3527 0005f5 F031          CMP *(#(_usbSetup+2)) == #5, TC1 ; |527| 
         0005f7 0005 
TMS320C55x Assembler PC v4.4.1 Mon Aug 15 03:55:17 2016

Tools Copyright (c) 1996-2012 Texas Instruments Incorporated
usb.asm                                                              PAGE   88

         0005f9 0000 
         0005fb 70-  
    3528 0005fc 65F4          BCC $C$L90,!TC1 ; |527| 
    3529                                                      ; branchcc occurs ; |527| 
    3530                      .dwpsn  file "../c5535_bsl_revc/ezdsp5535_v1/boot_post_SDcard/boot_post/usb.c",line 529,column 6,is_s
    3531 0005fe A531          MOV *(#_devAddr), T1 ; |529| 
         000600 0002 
         000602 83-  
    3532              $C$DW$241       .dwtag  DW_TAG_TI_branch
    3533                      .dwattr $C$DW$241, DW_AT_low_pc(0x00)
    3534                      .dwattr $C$DW$241, DW_AT_name("_USB_setDevAddr")
    3535                      .dwattr $C$DW$241, DW_AT_TI_call
    3536              
    3537 000603 6C00          CALL #_USB_setDevAddr ; |529| 
         000605 0000!
    3538 000607 3D04  ||      MOV #0, T0
    3539              
    3540                                                      ; call occurs [#_USB_setDevAddr] ; |529| 
    3541 000609       $C$L90:    
    3542                      .dwpsn  file "../c5535_bsl_revc/ezdsp5535_v1/boot_post_SDcard/boot_post/usb.c",line 533,column 4,is_s
    3543 000609 AB31          MOV *(#_usbRegisters), AR3 ; |533| 
         00060b 0000 
         00060d 00!  
    3544 00060e 7604          MOV #1038, T0 ; |533| 
         000610 0E48 
    3545 000612 A931          MOV *(#_saveIndex), AR1 ; |533| 
         000614 0002 
         000616 84-  
    3546 000617 C96B          MOV AR1, port(*AR3(T0)) ; |533| 
         000619 9A   
    3547 00061a       $C$L91:    
    3548                      .dwpsn  file "../c5535_bsl_revc/ezdsp5535_v1/boot_post_SDcard/boot_post/usb.c",line 537,column 3,is_s
    3549 00061a ED31          MOV dbl(*(#_pContext)), XAR3
         00061c BF00 
         00061e 0076-
    3550 000620 DC6D          BTST #9, *AR3(#94), TC1 ; |537| 
         000622 9000 
         000624 5E   
    3551 000625 0474          BCC $C$L93,!TC1 ; |537| 
         000627 45   
    3552                                                      ; branchcc occurs ; |537| 
    3553                      .dwpsn  file "../c5535_bsl_revc/ezdsp5535_v1/boot_post_SDcard/boot_post/usb.c",line 539,column 4,is_s
    3554 000628 7604          MOV #1049, T0 ; |539| 
         00062a 1948 
    3555 00062c AB31          MOV *(#_usbRegisters), AR3 ; |539| 
         00062e 0000 
         000630 00!  
    3556 000631 A96B          MOV port(*AR3(T0)), AR1 ; |539| 
         000633 99   
    3557 000634 C931          MOV AR1, *(#_dataCount) ; |539| 
         000636 0002 
         000638 86-  
    3558                      .dwpsn  file "../c5535_bsl_revc/ezdsp5535_v1/boot_post_SDcard/boot_post/usb.c",line 540,column 4,is_s
    3559 000639 ED31          MOV dbl(*(#(_hEpObjArray+6))), XAR0
         00063b 8F00 
TMS320C55x Assembler PC v4.4.1 Mon Aug 15 03:55:17 2016

Tools Copyright (c) 1996-2012 Texas Instruments Incorporated
usb.asm                                                              PAGE   89

         00063d 0006-
    3560 00063f 4617          BSET ST3_SMUL
    3561              
    3562 000641 7600          MOV #64, T0 ; |540| 
         000643 4048 
    3563 000645 4756  ||      BCLR ST3_SATA
    3564              
    3565 000647 EC31          AMOV #_dataWriteBuff, XAR1 ; |540| 
         000649 9E00 
         00064b 0178-
    3566              $C$DW$242       .dwtag  DW_TAG_TI_branch
    3567                      .dwattr $C$DW$242, DW_AT_low_pc(0x00)
    3568                      .dwattr $C$DW$242, DW_AT_name("_USB_postTransaction")
    3569                      .dwattr $C$DW$242, DW_AT_TI_call
    3570              
    3571 00064d 6C00          CALL #_USB_postTransaction ; |540| 
         00064f 0000!
    3572 000651 3D05  ||      MOV #0, T1
    3573              
    3574                                                      ; call occurs [#_USB_postTransaction] ; |540| 
    3575 000653 C431          MOV T0, *(#_status) ; |540| 
         000655 0000 
         000657 75-  
    3576                      .dwpsn  file "../c5535_bsl_revc/ezdsp5535_v1/boot_post_SDcard/boot_post/usb.c",line 541,column 4,is_s
    3577 000658 2249          MOV T0, AR1
    3578 00065a 6689          BCC $C$L92,AR1 == #0 ; |541| 
    3579                                                      ; branchcc occurs ; |541| 
    3580                      .dwpsn  file "../c5535_bsl_revc/ezdsp5535_v1/boot_post_SDcard/boot_post/usb.c",line 543,column 5,is_s
    3581 00065c EC31          AMOV #$C$FSL7, XAR3 ; |543| 
         00065e BE00 
         000660 0080+
    3582 000662 EB00          MOV XAR3, dbl(*SP(#0))
         000664 B5   
    3583              $C$DW$243       .dwtag  DW_TAG_TI_branch
    3584                      .dwattr $C$DW$243, DW_AT_low_pc(0x00)
    3585                      .dwattr $C$DW$243, DW_AT_name("_printf")
    3586                      .dwattr $C$DW$243, DW_AT_TI_call
    3587 000665 6C00          CALL #_printf ; |543| 
         000667 0000!
    3588                                                      ; call occurs [#_printf] ; |543| 
    3589 000669       $C$L92:    
    3590                      .dwpsn  file "../c5535_bsl_revc/ezdsp5535_v1/boot_post_SDcard/boot_post/usb.c",line 545,column 4,is_s
    3591              $C$DW$244       .dwtag  DW_TAG_TI_branch
    3592                      .dwattr $C$DW$244, DW_AT_low_pc(0x00)
    3593                      .dwattr $C$DW$244, DW_AT_name("_processOut")
    3594                      .dwattr $C$DW$244, DW_AT_TI_call
    3595 000669 6C00          CALL #_processOut ; |545| 
         00066b 0BF0'
    3596                                                      ; call occurs [#_processOut] ; |545| 
    3597 00066d       $C$L93:    
    3598                      .dwpsn  file "../c5535_bsl_revc/ezdsp5535_v1/boot_post_SDcard/boot_post/usb.c",line 549,column 3,is_s
    3599 00066d ED31          MOV dbl(*(#_pContext)), XAR3
         00066f BF00 
         000671 0076-
    3600 000673 DC6D          BTST #1, *AR3(#94), TC1 ; |549| 
TMS320C55x Assembler PC v4.4.1 Mon Aug 15 03:55:17 2016

Tools Copyright (c) 1996-2012 Texas Instruments Incorporated
usb.asm                                                              PAGE   90

         000675 1000 
         000677 5E   
    3601 000678 67F4          BCC $C$L94,!TC1 ; |549| 
    3602                                                      ; branchcc occurs ; |549| 
    3603                      .dwpsn  file "../c5535_bsl_revc/ezdsp5535_v1/boot_post_SDcard/boot_post/usb.c",line 551,column 4,is_s
    3604 00067a A931          MOV *(#_len), AR1 ; |551| 
         00067c 0003 
         00067e 33-  
    3605 00067f 6409          BCC $C$L94,AR1 == #0 ; |551| 
    3606                                                      ; branchcc occurs ; |551| 
    3607                      .dwpsn  file "../c5535_bsl_revc/ezdsp5535_v1/boot_post_SDcard/boot_post/usb.c",line 552,column 17,is_
    3608 000681 4617          BSET ST3_SMUL
    3609 000683 4656          BCLR ST3_SATA
    3610              $C$DW$245       .dwtag  DW_TAG_TI_branch
    3611                      .dwattr $C$DW$245, DW_AT_low_pc(0x00)
    3612                      .dwattr $C$DW$245, DW_AT_name("_processIn")
    3613                      .dwattr $C$DW$245, DW_AT_TI_call
    3614 000685 6C00          CALL #_processIn ; |552| 
         000687 0D8C'
    3615                                                      ; call occurs [#_processIn] ; |552| 
    3616 000689       $C$L94:    
    3617                      .dwpsn  file "../c5535_bsl_revc/ezdsp5535_v1/boot_post_SDcard/boot_post/usb.c",line 556,column 3,is_s
    3618 000689 ED31          MOV dbl(*(#_pContext)), XAR3
         00068b BF00 
         00068d 0076-
    3619 00068f DC6D          BTST #4, *AR3(#95), TC1 ; |556| 
         000691 4000 
         000693 5F   
    3620 000694 0474          BCC $C$L95,!TC1 ; |556| 
         000696 20   
    3621                                                      ; branchcc occurs ; |556| 
    3622                      .dwpsn  file "../c5535_bsl_revc/ezdsp5535_v1/boot_post_SDcard/boot_post/usb.c",line 558,column 4,is_s
    3623 000697 4656          BCLR ST3_SATA
    3624 000699 4617          BSET ST3_SMUL
    3625              $C$DW$246       .dwtag  DW_TAG_TI_branch
    3626                      .dwattr $C$DW$246, DW_AT_low_pc(0x00)
    3627                      .dwattr $C$DW$246, DW_AT_name("_USB_connectDev")
    3628                      .dwattr $C$DW$246, DW_AT_TI_call
    3629              
    3630 00069b 6C00          CALL #_USB_connectDev ; |558| 
         00069d 0000!
    3631 00069f 3D04  ||      MOV #0, T0
    3632              
    3633                                                      ; call occurs [#_USB_connectDev] ; |558| 
    3634 0006a1 C431          MOV T0, *(#_status) ; |558| 
         0006a3 0000 
         0006a5 75-  
    3635                      .dwpsn  file "../c5535_bsl_revc/ezdsp5535_v1/boot_post_SDcard/boot_post/usb.c",line 559,column 4,is_s
    3636 0006a6 2249          MOV T0, AR1
    3637 0006a8 6689          BCC $C$L95,AR1 == #0 ; |559| 
    3638                                                      ; branchcc occurs ; |559| 
    3639                      .dwpsn  file "../c5535_bsl_revc/ezdsp5535_v1/boot_post_SDcard/boot_post/usb.c",line 561,column 5,is_s
    3640 0006aa EC31          AMOV #$C$FSL5, XAR3 ; |561| 
         0006ac BE00 
         0006ae 0058+
TMS320C55x Assembler PC v4.4.1 Mon Aug 15 03:55:17 2016

Tools Copyright (c) 1996-2012 Texas Instruments Incorporated
usb.asm                                                              PAGE   91

    3641 0006b0 EB00          MOV XAR3, dbl(*SP(#0))
         0006b2 B5   
    3642              $C$DW$247       .dwtag  DW_TAG_TI_branch
    3643                      .dwattr $C$DW$247, DW_AT_low_pc(0x00)
    3644                      .dwattr $C$DW$247, DW_AT_name("_printf")
    3645                      .dwattr $C$DW$247, DW_AT_TI_call
    3646 0006b3 6C00          CALL #_printf ; |561| 
         0006b5 0000!
    3647                                                      ; call occurs [#_printf] ; |561| 
    3648 0006b7       $C$L95:    
    3649                      .dwpsn  file "../c5535_bsl_revc/ezdsp5535_v1/boot_post_SDcard/boot_post/usb.c",line 566,column 3,is_s
    3650 0006b7 ED31          MOV dbl(*(#_pContext)), XAR3
         0006b9 BF00 
         0006bb 0076-
    3651 0006bd DC6D          BTST #5, *AR3(#95), TC1 ; |566| 
         0006bf 5000 
         0006c1 5F   
    3652 0006c2 0474          BCC $C$L96,!TC1 ; |566| 
         0006c4 20   
    3653                                                      ; branchcc occurs ; |566| 
    3654                      .dwpsn  file "../c5535_bsl_revc/ezdsp5535_v1/boot_post_SDcard/boot_post/usb.c",line 568,column 4,is_s
    3655 0006c5 4656          BCLR ST3_SATA
    3656 0006c7 4617          BSET ST3_SMUL
    3657              $C$DW$248       .dwtag  DW_TAG_TI_branch
    3658                      .dwattr $C$DW$248, DW_AT_low_pc(0x00)
    3659                      .dwattr $C$DW$248, DW_AT_name("_USB_disconnectDev")
    3660                      .dwattr $C$DW$248, DW_AT_TI_call
    3661              
    3662 0006c9 6C00          CALL #_USB_disconnectDev ; |568| 
         0006cb 0000!
    3663 0006cd 3D04  ||      MOV #0, T0
    3664              
    3665                                                      ; call occurs [#_USB_disconnectDev] ; |568| 
    3666 0006cf C431          MOV T0, *(#_status) ; |568| 
         0006d1 0000 
         0006d3 75-  
    3667                      .dwpsn  file "../c5535_bsl_revc/ezdsp5535_v1/boot_post_SDcard/boot_post/usb.c",line 569,column 4,is_s
    3668 0006d4 2249          MOV T0, AR1
    3669 0006d6 6689          BCC $C$L96,AR1 == #0 ; |569| 
    3670                                                      ; branchcc occurs ; |569| 
    3671                      .dwpsn  file "../c5535_bsl_revc/ezdsp5535_v1/boot_post_SDcard/boot_post/usb.c",line 571,column 5,is_s
    3672 0006d8 EC31          AMOV #$C$FSL8, XAR3 ; |571| 
         0006da BE00 
         0006dc 0098+
    3673 0006de EB00          MOV XAR3, dbl(*SP(#0))
         0006e0 B5   
    3674              $C$DW$249       .dwtag  DW_TAG_TI_branch
    3675                      .dwattr $C$DW$249, DW_AT_low_pc(0x00)
    3676                      .dwattr $C$DW$249, DW_AT_name("_printf")
    3677                      .dwattr $C$DW$249, DW_AT_TI_call
    3678 0006e1 6C00          CALL #_printf ; |571| 
         0006e3 0000!
    3679                                                      ; call occurs [#_printf] ; |571| 
    3680 0006e5       $C$L96:    
    3681                      .dwpsn  file "../c5535_bsl_revc/ezdsp5535_v1/boot_post_SDcard/boot_post/usb.c",line 576,column 3,is_s
TMS320C55x Assembler PC v4.4.1 Mon Aug 15 03:55:17 2016

Tools Copyright (c) 1996-2012 Texas Instruments Incorporated
usb.asm                                                              PAGE   92

    3682 0006e5 ED31          MOV dbl(*(#_pContext)), XAR3
         0006e7 BF00 
         0006e9 0076-
    3683 0006eb DC6D          BTST #0, *AR3(#95), TC1 ; |576| 
         0006ed 0000 
         0006ef 5F   
    3684 0006f0 0474          BCC $C$L97,!TC1 ; |576| 
         0006f2 20   
    3685                                                      ; branchcc occurs ; |576| 
    3686                      .dwpsn  file "../c5535_bsl_revc/ezdsp5535_v1/boot_post_SDcard/boot_post/usb.c",line 578,column 4,is_s
    3687 0006f3 4656          BCLR ST3_SATA
    3688 0006f5 4617          BSET ST3_SMUL
    3689              $C$DW$250       .dwtag  DW_TAG_TI_branch
    3690                      .dwattr $C$DW$250, DW_AT_low_pc(0x00)
    3691                      .dwattr $C$DW$250, DW_AT_name("_USB_suspendDevice")
    3692                      .dwattr $C$DW$250, DW_AT_TI_call
    3693              
    3694 0006f7 6C00          CALL #_USB_suspendDevice ; |578| 
         0006f9 0000!
    3695 0006fb 3D04  ||      MOV #0, T0
    3696              
    3697                                                      ; call occurs [#_USB_suspendDevice] ; |578| 
    3698 0006fd C431          MOV T0, *(#_status) ; |578| 
         0006ff 0000 
         000701 75-  
    3699                      .dwpsn  file "../c5535_bsl_revc/ezdsp5535_v1/boot_post_SDcard/boot_post/usb.c",line 579,column 4,is_s
    3700 000702 2249          MOV T0, AR1
    3701 000704 6689          BCC $C$L97,AR1 == #0 ; |579| 
    3702                                                      ; branchcc occurs ; |579| 
    3703                      .dwpsn  file "../c5535_bsl_revc/ezdsp5535_v1/boot_post_SDcard/boot_post/usb.c",line 581,column 5,is_s
    3704 000706 EC31          AMOV #$C$FSL9, XAR3 ; |581| 
         000708 BE00 
         00070a 00B0+
    3705 00070c EB00          MOV XAR3, dbl(*SP(#0))
         00070e B5   
    3706              $C$DW$251       .dwtag  DW_TAG_TI_branch
    3707                      .dwattr $C$DW$251, DW_AT_low_pc(0x00)
    3708                      .dwattr $C$DW$251, DW_AT_name("_printf")
    3709                      .dwattr $C$DW$251, DW_AT_TI_call
    3710 00070f 6C00          CALL #_printf ; |581| 
         000711 0000!
    3711                                                      ; call occurs [#_printf] ; |581| 
    3712 000713       $C$L97:    
    3713                      .dwpsn  file "../c5535_bsl_revc/ezdsp5535_v1/boot_post_SDcard/boot_post/usb.c",line 585,column 3,is_s
    3714 000713 7600          MOV #60, T0 ; |585| 
         000715 3C48 
    3715 000717 AB31          MOV *(#_usbRegisters), AR3 ; |585| 
         000719 0000 
         00071b 00!  
    3716 00071c A96B          MOV port(*AR3(T0)), AR1 ; |585| 
         00071e 99   
    3717 00071f 7DFF          AND #0xff00, AR1, AC0 ; |585| 
         000721 0009 
    3718 000723 C06B          MOV AC0, port(*AR3(T0)) ; |585| 
         000725 9A   
TMS320C55x Assembler PC v4.4.1 Mon Aug 15 03:55:17 2016

Tools Copyright (c) 1996-2012 Texas Instruments Incorporated
usb.asm                                                              PAGE   93

    3719                      .dwpsn  file "../c5535_bsl_revc/ezdsp5535_v1/boot_post_SDcard/boot_post/usb.c",line 587,column 1,is_s
    3720 000726       $C$L98:    
    3721 000726 4E03          AADD #3, SP
    3722                      .dwcfi  cfa_offset, 47
    3723 000728 BB9A          POP mmap(SP)
         00072a 98   
    3724 00072b BB6C          POP mmap(BSAC)
         00072d 98   
    3725                      .dwcfi  restore_reg, 68
    3726                      .dwcfi  cfa_offset, 46
    3727 00072e BB6A          POP mmap(BSA67)
         000730 98   
    3728                      .dwcfi  restore_reg, 67
    3729                      .dwcfi  cfa_offset, 45
    3730 000731 BB68          POP mmap(BSA45)
         000733 98   
    3731                      .dwcfi  restore_reg, 66
    3732                      .dwcfi  cfa_offset, 44
    3733 000734 BB66          POP mmap(BSA23)
         000736 98   
    3734                      .dwcfi  restore_reg, 65
    3735                      .dwcfi  cfa_offset, 43
    3736 000737 BB64          POP mmap(BSA01)
         000739 98   
    3737                      .dwcfi  restore_reg, 64
    3738                      .dwcfi  cfa_offset, 42
    3739 00073a BB70          POP mmap(TRN1)
         00073c 98   
    3740                      .dwcfi  restore_reg, 63
    3741                      .dwcfi  cfa_offset, 41
    3742 00073d BB1E          POP mmap(TRN0)
         00073f 98   
    3743                      .dwcfi  restore_reg, 62
    3744                      .dwcfi  cfa_offset, 40
    3745 000740 5074          POPBOTH XCDP
    3746                      .dwcfi  restore_reg, 60
    3747                      .dwcfi  cfa_offset, 39
    3748 000742 BB88          POP mmap(RPTC)
         000744 98   
    3749                      .dwcfi  restore_reg, 59
    3750                      .dwcfi  cfa_offset, 38
    3751 000745 BB76          POP mmap(CSR)
         000747 98   
    3752                      .dwcfi  restore_reg, 58
    3753                      .dwcfi  cfa_offset, 37
    3754 000748 BB84          POP mmap(REA1H)
         00074a 98   
    3755                      .dwcfi  restore_reg, 57
    3756                      .dwcfi  cfa_offset, 36
    3757 00074b BB86          POP mmap(REA1L)
         00074d 98   
    3758                      .dwcfi  restore_reg, 56
    3759                      .dwcfi  cfa_offset, 35
    3760 00074e BB80          POP mmap(RSA1H)
         000750 98   
TMS320C55x Assembler PC v4.4.1 Mon Aug 15 03:55:17 2016

Tools Copyright (c) 1996-2012 Texas Instruments Incorporated
usb.asm                                                              PAGE   94

    3761                      .dwcfi  restore_reg, 55
    3762                      .dwcfi  cfa_offset, 34
    3763 000751 BB82          POP mmap(RSA1L)
         000753 98   
    3764                      .dwcfi  restore_reg, 54
    3765                      .dwcfi  cfa_offset, 33
    3766 000754 BB72          POP mmap(BRC1)
         000756 98   
    3767                      .dwcfi  restore_reg, 53
    3768                      .dwcfi  cfa_offset, 32
    3769 000757 BB74          POP mmap(BRS1)
         000759 98   
    3770                      .dwcfi  restore_reg, 52
    3771                      .dwcfi  cfa_offset, 31
    3772 00075a BB7C          POP mmap(REA0H)
         00075c 98   
    3773                      .dwcfi  restore_reg, 51
    3774                      .dwcfi  cfa_offset, 30
    3775 00075d BB7E          POP mmap(REA0L)
         00075f 98   
    3776                      .dwcfi  restore_reg, 50
    3777                      .dwcfi  cfa_offset, 29
    3778 000760 BB78          POP mmap(RSA0H)
         000762 98   
    3779                      .dwcfi  restore_reg, 49
    3780                      .dwcfi  cfa_offset, 28
    3781 000763 BB7A          POP mmap(RSA0L)
         000765 98   
    3782                      .dwcfi  restore_reg, 48
    3783                      .dwcfi  cfa_offset, 27
    3784 000766 BB34          POP mmap(BRC0)
         000768 98   
    3785                      .dwcfi  restore_reg, 47
    3786                      .dwcfi  cfa_offset, 26
    3787 000769 BB60          POP mmap(BK47)
         00076b 98   
    3788                      .dwcfi  restore_reg, 39
    3789                      .dwcfi  cfa_offset, 25
    3790 00076c BB32          POP mmap(BK03)
         00076e 98   
    3791                      .dwcfi  restore_reg, 38
    3792                      .dwcfi  cfa_offset, 24
    3793 00076f BB62          POP mmap(BKC)
         000771 98   
    3794                      .dwcfi  restore_reg, 37
    3795                      .dwcfi  cfa_offset, 23
    3796 000772 50C4          POPBOTH XAR4
    3797                      .dwcfi  restore_reg, 24
    3798                      .dwcfi  cfa_offset, 22
    3799 000774 50B4          POPBOTH XAR3
    3800                      .dwcfi  restore_reg, 22
    3801                      .dwcfi  cfa_offset, 21
    3802 000776 50A4          POPBOTH XAR2
    3803                      .dwcfi  restore_reg, 20
    3804                      .dwcfi  cfa_offset, 20
TMS320C55x Assembler PC v4.4.1 Mon Aug 15 03:55:17 2016

Tools Copyright (c) 1996-2012 Texas Instruments Incorporated
usb.asm                                                              PAGE   95

    3805 000778 5094          POPBOTH XAR1
    3806                      .dwcfi  restore_reg, 18
    3807                      .dwcfi  cfa_offset, 19
    3808 00077a 5084          POPBOTH XAR0
    3809                      .dwcfi  restore_reg, 16
    3810                      .dwcfi  cfa_offset, 18
    3811 00077c 5052          POP T1
    3812                      .dwcfi  restore_reg, 13
    3813                      .dwcfi  cfa_offset, 17
    3814 00077e 5042          POP T0
    3815                      .dwcfi  restore_reg, 12
    3816                      .dwcfi  cfa_offset, 16
    3817 000780 BB54          POP mmap(AC3G)
         000782 98   
    3818                      .dwcfi  restore_reg, 11
    3819                      .dwcfi  cfa_offset, 15
    3820                      .dwcfi  restore_reg, 10
    3821                      .dwcfi  cfa_offset, 14
    3822 000783 5033          POP dbl(AC3)
    3823                      .dwcfi  restore_reg, 9
    3824                      .dwcfi  cfa_offset, 13
    3825 000785 BB4C          POP mmap(AC2G)
         000787 98   
    3826                      .dwcfi  restore_reg, 8
    3827                      .dwcfi  cfa_offset, 12
    3828                      .dwcfi  restore_reg, 7
    3829                      .dwcfi  cfa_offset, 11
    3830 000788 5023          POP dbl(AC2)
    3831                      .dwcfi  restore_reg, 6
    3832                      .dwcfi  cfa_offset, 10
    3833 00078a BB1A          POP mmap(AC1G)
         00078c 98   
    3834                      .dwcfi  restore_reg, 5
    3835                      .dwcfi  cfa_offset, 9
    3836                      .dwcfi  restore_reg, 4
    3837                      .dwcfi  cfa_offset, 8
    3838 00078d 5013          POP dbl(AC1)
    3839                      .dwcfi  restore_reg, 3
    3840                      .dwcfi  cfa_offset, 7
    3841 00078f BB14          POP mmap(AC0G)
         000791 98   
    3842                      .dwcfi  restore_reg, 2
    3843                      .dwcfi  cfa_offset, 6
    3844                      .dwcfi  restore_reg, 1
    3845                      .dwcfi  cfa_offset, 5
    3846 000792 5003          POP dbl(AC0)
    3847                      .dwcfi  restore_reg, 0
    3848                      .dwcfi  cfa_offset, 4
    3849 000794 BB08          POP mmap(ST3_55)
         000796 98   
    3850                      .dwcfi  restore_reg, 43
    3851                      .dwcfi  cfa_offset, 3
    3852              $C$DW$252       .dwtag  DW_TAG_TI_branch
    3853                      .dwattr $C$DW$252, DW_AT_low_pc(0x00)
    3854                      .dwattr $C$DW$252, DW_AT_TI_return
TMS320C55x Assembler PC v4.4.1 Mon Aug 15 03:55:17 2016

Tools Copyright (c) 1996-2012 Texas Instruments Incorporated
usb.asm                                                              PAGE   96

    3855 000797 4805          RETI
    3856                                                      ; return occurs
    3857                      .dwattr $C$DW$214, DW_AT_TI_end_file("../c5535_bsl_revc/ezdsp5535_v1/boot_post_SDcard/boot_post/usb.c
    3858                      .dwattr $C$DW$214, DW_AT_TI_end_line(0x24b)
    3859                      .dwattr $C$DW$214, DW_AT_TI_end_column(0x01)
    3860                      .dwendentry
    3861                      .dwendtag $C$DW$214
    3862              
    3863 000a97               .sect   ".text"
    3864                      .align 4
    3865                      .global _CSL_suspendCallBack
    3866              
    3867              $C$DW$253       .dwtag  DW_TAG_subprogram, DW_AT_name("CSL_suspendCallBack")
    3868                      .dwattr $C$DW$253, DW_AT_low_pc(_CSL_suspendCallBack)
    3869                      .dwattr $C$DW$253, DW_AT_high_pc(0x00)
    3870                      .dwattr $C$DW$253, DW_AT_TI_symbol_name("_CSL_suspendCallBack")
    3871                      .dwattr $C$DW$253, DW_AT_external
    3872                      .dwattr $C$DW$253, DW_AT_TI_begin_file("../c5535_bsl_revc/ezdsp5535_v1/boot_post_SDcard/boot_post/usb
    3873                      .dwattr $C$DW$253, DW_AT_TI_begin_line(0x252)
    3874                      .dwattr $C$DW$253, DW_AT_TI_begin_column(0x06)
    3875                      .dwattr $C$DW$253, DW_AT_TI_max_frame_size(0x04)
    3876                      .dwpsn  file "../c5535_bsl_revc/ezdsp5535_v1/boot_post_SDcard/boot_post/usb.c",line 595,column 1,is_s
    3877              
    3878                      .dwfde $C$DW$CIE, _CSL_suspendCallBack
    3879              $C$DW$254       .dwtag  DW_TAG_formal_parameter, DW_AT_name("status")
    3880                      .dwattr $C$DW$254, DW_AT_TI_symbol_name("_status")
    3881                      .dwattr $C$DW$254, DW_AT_type(*$C$DW$T$80)
    3882                      .dwattr $C$DW$254, DW_AT_location[DW_OP_reg12]
    3883              ;*******************************************************************************
    3884              ;* FUNCTION NAME: CSL_suspendCallBack                                          *
    3885              ;*                                                                             *
    3886              ;*   Function Uses Regs : T0,AR3,XAR3,SP,M40,SATA,SATD,RDM,FRCT,SMUL           *
    3887              ;*   Stack Frame        : Compact (No Frame Pointer, w/ debug)                 *
    3888              ;*   Total Frame Size   : 4 words                                              *
    3889              ;*                        (1 return address/alignment)                         *
    3890              ;*                        (2 function parameters)                              *
    3891              ;*                        (1 local values)                                     *
    3892              ;*   Min System Stack   : 1 word                                               *
    3893              ;*******************************************************************************
    3894 000a98       _CSL_suspendCallBack:
    3895                      .dwcfi  cfa_offset, 1
    3896                      .dwcfi  save_reg_to_mem, 91, -1
    3897 000a98 4EFD          AADD #-3, SP
    3898                      .dwcfi  cfa_offset, 4
    3899              $C$DW$255       .dwtag  DW_TAG_variable, DW_AT_name("status")
    3900                      .dwattr $C$DW$255, DW_AT_TI_symbol_name("_status")
    3901                      .dwattr $C$DW$255, DW_AT_type(*$C$DW$T$80)
    3902                      .dwattr $C$DW$255, DW_AT_location[DW_OP_bregx 0x24 2]
    3903 000a9a C404          MOV T0, *SP(#2) ; |595| 
    3904                      .dwpsn  file "../c5535_bsl_revc/ezdsp5535_v1/boot_post_SDcard/boot_post/usb.c",line 596,column 2,is_s
    3905 000a9c EC31          AMOV #$C$FSL10, XAR3 ; |596| 
         000a9e BE00 
         000aa0 00C4+
    3906 000aa2 EB00          MOV XAR3, dbl(*SP(#0))
         000aa4 B5   
TMS320C55x Assembler PC v4.4.1 Mon Aug 15 03:55:17 2016

Tools Copyright (c) 1996-2012 Texas Instruments Incorporated
usb.asm                                                              PAGE   97

    3907              $C$DW$256       .dwtag  DW_TAG_TI_branch
    3908                      .dwattr $C$DW$256, DW_AT_low_pc(0x00)
    3909                      .dwattr $C$DW$256, DW_AT_name("_printf")
    3910                      .dwattr $C$DW$256, DW_AT_TI_call
    3911 000aa5 6C00          CALL #_printf ; |596| 
         000aa7 0000!
    3912                                                      ; call occurs [#_printf] ; |596| 
    3913                      .dwpsn  file "../c5535_bsl_revc/ezdsp5535_v1/boot_post_SDcard/boot_post/usb.c",line 597,column 1,is_s
    3914 000aa9 4E03          AADD #3, SP
    3915                      .dwcfi  cfa_offset, 1
    3916              $C$DW$257       .dwtag  DW_TAG_TI_branch
    3917                      .dwattr $C$DW$257, DW_AT_low_pc(0x00)
    3918                      .dwattr $C$DW$257, DW_AT_TI_return
    3919 000aab 4804          RET
    3920                                                      ; return occurs
    3921                      .dwattr $C$DW$253, DW_AT_TI_end_file("../c5535_bsl_revc/ezdsp5535_v1/boot_post_SDcard/boot_post/usb.c
    3922                      .dwattr $C$DW$253, DW_AT_TI_end_line(0x255)
    3923                      .dwattr $C$DW$253, DW_AT_TI_end_column(0x01)
    3924                      .dwendentry
    3925                      .dwendtag $C$DW$253
    3926              
    3927 000aad               .sect   ".text"
    3928                      .align 4
    3929                      .global _CSL_selfWakeupCallBack
    3930              
    3931              $C$DW$258       .dwtag  DW_TAG_subprogram, DW_AT_name("CSL_selfWakeupCallBack")
    3932                      .dwattr $C$DW$258, DW_AT_low_pc(_CSL_selfWakeupCallBack)
    3933                      .dwattr $C$DW$258, DW_AT_high_pc(0x00)
    3934                      .dwattr $C$DW$258, DW_AT_TI_symbol_name("_CSL_selfWakeupCallBack")
    3935                      .dwattr $C$DW$258, DW_AT_external
    3936                      .dwattr $C$DW$258, DW_AT_TI_begin_file("../c5535_bsl_revc/ezdsp5535_v1/boot_post_SDcard/boot_post/usb
    3937                      .dwattr $C$DW$258, DW_AT_TI_begin_line(0x25c)
    3938                      .dwattr $C$DW$258, DW_AT_TI_begin_column(0x06)
    3939                      .dwattr $C$DW$258, DW_AT_TI_max_frame_size(0x04)
    3940                      .dwpsn  file "../c5535_bsl_revc/ezdsp5535_v1/boot_post_SDcard/boot_post/usb.c",line 605,column 1,is_s
    3941              
    3942                      .dwfde $C$DW$CIE, _CSL_selfWakeupCallBack
    3943              $C$DW$259       .dwtag  DW_TAG_formal_parameter, DW_AT_name("status")
    3944                      .dwattr $C$DW$259, DW_AT_TI_symbol_name("_status")
    3945                      .dwattr $C$DW$259, DW_AT_type(*$C$DW$T$80)
    3946                      .dwattr $C$DW$259, DW_AT_location[DW_OP_reg12]
    3947              ;*******************************************************************************
    3948              ;* FUNCTION NAME: CSL_selfWakeupCallBack                                       *
    3949              ;*                                                                             *
    3950              ;*   Function Uses Regs : T0,AR3,XAR3,SP,M40,SATA,SATD,RDM,FRCT,SMUL           *
    3951              ;*   Stack Frame        : Compact (No Frame Pointer, w/ debug)                 *
    3952              ;*   Total Frame Size   : 4 words                                              *
    3953              ;*                        (1 return address/alignment)                         *
    3954              ;*                        (2 function parameters)                              *
    3955              ;*                        (1 local values)                                     *
    3956              ;*   Min System Stack   : 1 word                                               *
    3957              ;*******************************************************************************
    3958 000ab0       _CSL_selfWakeupCallBack:
    3959                      .dwcfi  cfa_offset, 1
    3960                      .dwcfi  save_reg_to_mem, 91, -1
TMS320C55x Assembler PC v4.4.1 Mon Aug 15 03:55:17 2016

Tools Copyright (c) 1996-2012 Texas Instruments Incorporated
usb.asm                                                              PAGE   98

    3961 000ab0 4EFD          AADD #-3, SP
    3962                      .dwcfi  cfa_offset, 4
    3963              $C$DW$260       .dwtag  DW_TAG_variable, DW_AT_name("status")
    3964                      .dwattr $C$DW$260, DW_AT_TI_symbol_name("_status")
    3965                      .dwattr $C$DW$260, DW_AT_type(*$C$DW$T$80)
    3966                      .dwattr $C$DW$260, DW_AT_location[DW_OP_bregx 0x24 2]
    3967 000ab2 C404          MOV T0, *SP(#2) ; |605| 
    3968                      .dwpsn  file "../c5535_bsl_revc/ezdsp5535_v1/boot_post_SDcard/boot_post/usb.c",line 606,column 2,is_s
    3969 000ab4 EC31          AMOV #$C$FSL11, XAR3 ; |606| 
         000ab6 BE00 
         000ab8 00DC+
    3970 000aba EB00          MOV XAR3, dbl(*SP(#0))
         000abc B5   
    3971              $C$DW$261       .dwtag  DW_TAG_TI_branch
    3972                      .dwattr $C$DW$261, DW_AT_low_pc(0x00)
    3973                      .dwattr $C$DW$261, DW_AT_name("_printf")
    3974                      .dwattr $C$DW$261, DW_AT_TI_call
    3975 000abd 6C00          CALL #_printf ; |606| 
         000abf 0000!
    3976                                                      ; call occurs [#_printf] ; |606| 
    3977                      .dwpsn  file "../c5535_bsl_revc/ezdsp5535_v1/boot_post_SDcard/boot_post/usb.c",line 607,column 1,is_s
    3978 000ac1 4E03          AADD #3, SP
    3979                      .dwcfi  cfa_offset, 1
    3980              $C$DW$262       .dwtag  DW_TAG_TI_branch
    3981                      .dwattr $C$DW$262, DW_AT_low_pc(0x00)
    3982                      .dwattr $C$DW$262, DW_AT_TI_return
    3983 000ac3 4804          RET
    3984                                                      ; return occurs
    3985                      .dwattr $C$DW$258, DW_AT_TI_end_file("../c5535_bsl_revc/ezdsp5535_v1/boot_post_SDcard/boot_post/usb.c
    3986                      .dwattr $C$DW$258, DW_AT_TI_end_line(0x25f)
    3987                      .dwattr $C$DW$258, DW_AT_TI_end_column(0x01)
    3988                      .dwendentry
    3989                      .dwendtag $C$DW$258
    3990              
    3991 000ac5               .sect   ".text"
    3992                      .align 4
    3993              
    3994              $C$DW$263       .dwtag  DW_TAG_subprogram, DW_AT_name("USB_delay")
    3995                      .dwattr $C$DW$263, DW_AT_low_pc(_USB_delay)
    3996                      .dwattr $C$DW$263, DW_AT_high_pc(0x00)
    3997                      .dwattr $C$DW$263, DW_AT_TI_symbol_name("_USB_delay")
    3998                      .dwattr $C$DW$263, DW_AT_TI_begin_file("../c5535_bsl_revc/ezdsp5535_v1/boot_post_SDcard/boot_post/usb
    3999                      .dwattr $C$DW$263, DW_AT_TI_begin_line(0x266)
    4000                      .dwattr $C$DW$263, DW_AT_TI_begin_column(0x0d)
    4001                      .dwattr $C$DW$263, DW_AT_TI_max_frame_size(0x0a)
    4002                      .dwpsn  file "../c5535_bsl_revc/ezdsp5535_v1/boot_post_SDcard/boot_post/usb.c",line 615,column 1,is_s
    4003              
    4004                      .dwfde $C$DW$CIE, _USB_delay
    4005              $C$DW$264       .dwtag  DW_TAG_formal_parameter, DW_AT_name("mSecs")
    4006                      .dwattr $C$DW$264, DW_AT_TI_symbol_name("_mSecs")
    4007                      .dwattr $C$DW$264, DW_AT_type(*$C$DW$T$70)
    4008                      .dwattr $C$DW$264, DW_AT_location[DW_OP_reg0]
    4009              ;*******************************************************************************
    4010              ;* FUNCTION NAME: USB_delay                                                    *
    4011              ;*                                                                             *
TMS320C55x Assembler PC v4.4.1 Mon Aug 15 03:55:17 2016

Tools Copyright (c) 1996-2012 Texas Instruments Incorporated
usb.asm                                                              PAGE   99

    4012              ;*   Function Uses Regs : AC0,AC0,AC1,AC1,AR3,XAR3,SP,CARRY,TC1,M40,SATA,SATD, *
    4013              ;*                        RDM,FRCT,SMUL                                        *
    4014              ;*   Stack Frame        : Compact (No Frame Pointer, w/ debug)                 *
    4015              ;*   Total Frame Size   : 10 words                                             *
    4016              ;*                        (2 return address/alignment)                         *
    4017              ;*                        (8 local values)                                     *
    4018              ;*   Min System Stack   : 1 word                                               *
    4019              ;*******************************************************************************
    4020 000ac8       _USB_delay:
    4021                      .dwcfi  cfa_offset, 1
    4022                      .dwcfi  save_reg_to_mem, 91, -1
    4023 000ac8 4EF7          AADD #-9, SP
    4024                      .dwcfi  cfa_offset, 10
    4025              $C$DW$265       .dwtag  DW_TAG_variable, DW_AT_name("mSecs")
    4026                      .dwattr $C$DW$265, DW_AT_TI_symbol_name("_mSecs")
    4027                      .dwattr $C$DW$265, DW_AT_type(*$C$DW$T$70)
    4028                      .dwattr $C$DW$265, DW_AT_location[DW_OP_bregx 0x24 0]
    4029              $C$DW$266       .dwtag  DW_TAG_variable, DW_AT_name("delay")
    4030                      .dwattr $C$DW$266, DW_AT_TI_symbol_name("_delay")
    4031                      .dwattr $C$DW$266, DW_AT_type(*$C$DW$T$215)
    4032                      .dwattr $C$DW$266, DW_AT_location[DW_OP_bregx 0x24 2]
    4033              $C$DW$267       .dwtag  DW_TAG_variable, DW_AT_name("msecCount")
    4034                      .dwattr $C$DW$267, DW_AT_TI_symbol_name("_msecCount")
    4035                      .dwattr $C$DW$267, DW_AT_type(*$C$DW$T$215)
    4036                      .dwattr $C$DW$267, DW_AT_location[DW_OP_bregx 0x24 4]
    4037              $C$DW$268       .dwtag  DW_TAG_variable, DW_AT_name("sysClk")
    4038                      .dwattr $C$DW$268, DW_AT_TI_symbol_name("_sysClk")
    4039                      .dwattr $C$DW$268, DW_AT_type(*$C$DW$T$215)
    4040                      .dwattr $C$DW$268, DW_AT_location[DW_OP_bregx 0x24 6]
    4041 000aca EB00          MOV AC0, dbl(*SP(#0)) ; |615| 
         000acc 08   
    4042                      .dwpsn  file "../c5535_bsl_revc/ezdsp5535_v1/boot_post_SDcard/boot_post/usb.c",line 620,column 2,is_s
    4043 000acd EC31          AMOV #100000, XAR3 ; |620| 
         000acf BE01 
         000ad1 86A0 
    4044 000ad3 90B0          MOV XAR3, AC0
    4045 000ad5 EB0C          MOV AC0, dbl(*SP(#6)) ; |620| 
         000ad7 08   
    4046                      .dwpsn  file "../c5535_bsl_revc/ezdsp5535_v1/boot_post_SDcard/boot_post/usb.c",line 622,column 7,is_s
    4047 000ad8 3C00          MOV #0, AC0 ; |622| 
    4048 000ada EB08          MOV AC0, dbl(*SP(#4)) ; |622| 
         000adc 08   
    4049 000add 20            NOP
    4050 000ade 20            NOP
    4051                      .dwpsn  file "../c5535_bsl_revc/ezdsp5535_v1/boot_post_SDcard/boot_post/usb.c",line 622,column 22,is_
    4052 000adf ED00          MOV dbl(*SP(#0)), AC0 ; |622| 
         000ae1 08   
    4053 000ae2 ED08          MOV dbl(*SP(#4)), AC1 ; |622| 
         000ae4 18   
    4054 000ae5 1218          CMPU AC1 >= AC0, TC1 ; |622| 
         000ae7 04   
    4055 000ae8 0464          BCC $C$L102,TC1 ; |622| 
         000aea 43   
    4056                                                      ; branchcc occurs ; |622| 
    4057 000aeb       $C$L99:    
TMS320C55x Assembler PC v4.4.1 Mon Aug 15 03:55:17 2016

Tools Copyright (c) 1996-2012 Texas Instruments Incorporated
usb.asm                                                              PAGE  100

    4058 000aeb       $C$DW$L$_USB_delay$2$B:
    4059                      .dwpsn  file "../c5535_bsl_revc/ezdsp5535_v1/boot_post_SDcard/boot_post/usb.c",line 624,column 8,is_s
    4060 000aeb 3C00          MOV #0, AC0 ; |624| 
    4061 000aed EB04          MOV AC0, dbl(*SP(#2)) ; |624| 
         000aef 08   
    4062 000af0 20            NOP
    4063 000af1 20            NOP
    4064 000af2 20            NOP
    4065                      .dwpsn  file "../c5535_bsl_revc/ezdsp5535_v1/boot_post_SDcard/boot_post/usb.c",line 624,column 19,is_
    4066 000af3 ED0C          MOV dbl(*SP(#6)), AC0 ; |624| 
         000af5 08   
    4067 000af6 ED04          MOV dbl(*SP(#2)), AC1 ; |624| 
         000af8 18   
    4068 000af9 1218          CMPU AC1 >= AC0, TC1 ; |624| 
         000afb 04   
    4069 000afc 0464          BCC $C$L101,TC1 ; |624| 
         000afe 18   
    4070                                                      ; branchcc occurs ; |624| 
    4071 000aff       $C$DW$L$_USB_delay$2$E:
    4072 000aff       $C$L100:    
    4073 000aff       $C$DW$L$_USB_delay$3$B:
    4074                      .dwpsn  file "../c5535_bsl_revc/ezdsp5535_v1/boot_post_SDcard/boot_post/usb.c",line 626,column 4,is_s
    4075 000aff 20            NOP
    4076                      .dwpsn  file "../c5535_bsl_revc/ezdsp5535_v1/boot_post_SDcard/boot_post/usb.c",line 624,column 35,is_
    4077 000b00 ED04          MOV dbl(*SP(#2)), AC0 ; |624| 
         000b02 08   
    4078 000b03 4010          ADD #1, AC0 ; |624| 
    4079 000b05 EB04          MOV AC0, dbl(*SP(#2)) ; |624| 
         000b07 08   
    4080 000b08 20            NOP
    4081 000b09 20            NOP
    4082 000b0a 20            NOP
    4083                      .dwpsn  file "../c5535_bsl_revc/ezdsp5535_v1/boot_post_SDcard/boot_post/usb.c",line 624,column 19,is_
    4084 000b0b ED0C          MOV dbl(*SP(#6)), AC0 ; |624| 
         000b0d 08   
    4085 000b0e ED04          MOV dbl(*SP(#2)), AC1 ; |624| 
         000b10 18   
    4086 000b11 1214          CMPU AC1 < AC0, TC1 ; |624| 
         000b13 04   
    4087 000b14 0464          BCC $C$L100,TC1 ; |624| 
         000b16 E8   
    4088                                                      ; branchcc occurs ; |624| 
    4089 000b17       $C$DW$L$_USB_delay$3$E:
    4090 000b17       $C$L101:    
    4091 000b17       $C$DW$L$_USB_delay$4$B:
    4092                      .dwpsn  file "../c5535_bsl_revc/ezdsp5535_v1/boot_post_SDcard/boot_post/usb.c",line 622,column 41,is_
    4093 000b17 ED08          MOV dbl(*SP(#4)), AC0 ; |622| 
         000b19 08   
    4094 000b1a 4010          ADD #1, AC0 ; |622| 
    4095 000b1c EB08          MOV AC0, dbl(*SP(#4)) ; |622| 
         000b1e 08   
    4096 000b1f 20            NOP
    4097 000b20 20            NOP
    4098 000b21 20            NOP
    4099                      .dwpsn  file "../c5535_bsl_revc/ezdsp5535_v1/boot_post_SDcard/boot_post/usb.c",line 622,column 22,is_
TMS320C55x Assembler PC v4.4.1 Mon Aug 15 03:55:17 2016

Tools Copyright (c) 1996-2012 Texas Instruments Incorporated
usb.asm                                                              PAGE  101

    4100 000b22 ED08          MOV dbl(*SP(#4)), AC1 ; |622| 
         000b24 18   
    4101 000b25 ED00          MOV dbl(*SP(#0)), AC0 ; |622| 
         000b27 08   
    4102 000b28 1214          CMPU AC1 < AC0, TC1 ; |622| 
         000b2a 04   
    4103 000b2b 0464          BCC $C$L99,TC1 ; |622| 
         000b2d BD   
    4104                                                      ; branchcc occurs ; |622| 
    4105 000b2e       $C$DW$L$_USB_delay$4$E:
    4106                      .dwpsn  file "../c5535_bsl_revc/ezdsp5535_v1/boot_post_SDcard/boot_post/usb.c",line 629,column 1,is_s
    4107 000b2e       $C$L102:    
    4108 000b2e 4E09          AADD #9, SP
    4109                      .dwcfi  cfa_offset, 1
    4110              $C$DW$269       .dwtag  DW_TAG_TI_branch
    4111                      .dwattr $C$DW$269, DW_AT_low_pc(0x00)
    4112                      .dwattr $C$DW$269, DW_AT_TI_return
    4113 000b30 4804          RET
    4114                                                      ; return occurs
    4115              
    4116              $C$DW$270       .dwtag  DW_TAG_TI_loop
    4117                      .dwattr $C$DW$270, DW_AT_name("F:\eZDSP_5535_Files\ccsws2\test\Debug\usb.asm:$C$L99:1:1471258514")
    4118                      .dwattr $C$DW$270, DW_AT_TI_begin_file("../c5535_bsl_revc/ezdsp5535_v1/boot_post_SDcard/boot_post/usb
    4119                      .dwattr $C$DW$270, DW_AT_TI_begin_line(0x26e)
    4120                      .dwattr $C$DW$270, DW_AT_TI_end_line(0x274)
    4121              $C$DW$271       .dwtag  DW_TAG_TI_loop_range
    4122                      .dwattr $C$DW$271, DW_AT_low_pc($C$DW$L$_USB_delay$2$B)
    4123                      .dwattr $C$DW$271, DW_AT_high_pc($C$DW$L$_USB_delay$2$E)
    4124              $C$DW$272       .dwtag  DW_TAG_TI_loop_range
    4125                      .dwattr $C$DW$272, DW_AT_low_pc($C$DW$L$_USB_delay$4$B)
    4126                      .dwattr $C$DW$272, DW_AT_high_pc($C$DW$L$_USB_delay$4$E)
    4127              
    4128              $C$DW$273       .dwtag  DW_TAG_TI_loop
    4129                      .dwattr $C$DW$273, DW_AT_name("F:\eZDSP_5535_Files\ccsws2\test\Debug\usb.asm:$C$L100:2:1471258514")
    4130                      .dwattr $C$DW$273, DW_AT_TI_begin_file("../c5535_bsl_revc/ezdsp5535_v1/boot_post_SDcard/boot_post/usb
    4131                      .dwattr $C$DW$273, DW_AT_TI_begin_line(0x270)
    4132                      .dwattr $C$DW$273, DW_AT_TI_end_line(0x273)
    4133              $C$DW$274       .dwtag  DW_TAG_TI_loop_range
    4134                      .dwattr $C$DW$274, DW_AT_low_pc($C$DW$L$_USB_delay$3$B)
    4135                      .dwattr $C$DW$274, DW_AT_high_pc($C$DW$L$_USB_delay$3$E)
    4136                      .dwendtag $C$DW$273
    4137              
    4138                      .dwendtag $C$DW$270
    4139              
    4140                      .dwattr $C$DW$263, DW_AT_TI_end_file("../c5535_bsl_revc/ezdsp5535_v1/boot_post_SDcard/boot_post/usb.c
    4141                      .dwattr $C$DW$263, DW_AT_TI_end_line(0x275)
    4142                      .dwattr $C$DW$263, DW_AT_TI_end_column(0x01)
    4143                      .dwendentry
    4144                      .dwendtag $C$DW$263
    4145              
    4146 000b32               .sect   ".text"
    4147                      .align 4
    4148                      .global _CSL_startTransferCallback
    4149              
    4150              $C$DW$275       .dwtag  DW_TAG_subprogram, DW_AT_name("CSL_startTransferCallback")
TMS320C55x Assembler PC v4.4.1 Mon Aug 15 03:55:17 2016

Tools Copyright (c) 1996-2012 Texas Instruments Incorporated
usb.asm                                                              PAGE  102

    4151                      .dwattr $C$DW$275, DW_AT_low_pc(_CSL_startTransferCallback)
    4152                      .dwattr $C$DW$275, DW_AT_high_pc(0x00)
    4153                      .dwattr $C$DW$275, DW_AT_TI_symbol_name("_CSL_startTransferCallback")
    4154                      .dwattr $C$DW$275, DW_AT_external
    4155                      .dwattr $C$DW$275, DW_AT_type(*$C$DW$T$80)
    4156                      .dwattr $C$DW$275, DW_AT_TI_begin_file("../c5535_bsl_revc/ezdsp5535_v1/boot_post_SDcard/boot_post/usb
    4157                      .dwattr $C$DW$275, DW_AT_TI_begin_line(0x27f)
    4158                      .dwattr $C$DW$275, DW_AT_TI_begin_column(0x0c)
    4159                      .dwattr $C$DW$275, DW_AT_TI_max_frame_size(0x0c)
    4160                      .dwpsn  file "../c5535_bsl_revc/ezdsp5535_v1/boot_post_SDcard/boot_post/usb.c",line 641,column 1,is_s
    4161              
    4162                      .dwfde $C$DW$CIE, _CSL_startTransferCallback
    4163              $C$DW$276       .dwtag  DW_TAG_formal_parameter, DW_AT_name("vpContext")
    4164                      .dwattr $C$DW$276, DW_AT_TI_symbol_name("_vpContext")
    4165                      .dwattr $C$DW$276, DW_AT_type(*$C$DW$T$3)
    4166                      .dwattr $C$DW$276, DW_AT_location[DW_OP_reg17]
    4167              $C$DW$277       .dwtag  DW_TAG_formal_parameter, DW_AT_name("vpeps")
    4168                      .dwattr $C$DW$277, DW_AT_TI_symbol_name("_vpeps")
    4169                      .dwattr $C$DW$277, DW_AT_type(*$C$DW$T$3)
    4170                      .dwattr $C$DW$277, DW_AT_location[DW_OP_reg19]
    4171              ;*******************************************************************************
    4172              ;* FUNCTION NAME: CSL_startTransferCallback                                    *
    4173              ;*                                                                             *
    4174              ;*   Function Uses Regs : AC0,AC0,AC1,AC1,T0,AR0,XAR0,AR1,XAR1,AR3,XAR3,SP,TC1,*
    4175              ;*                        M40,SATA,SATD,RDM,FRCT,SMUL                          *
    4176              ;*   Stack Frame        : Compact (No Frame Pointer, w/ debug)                 *
    4177              ;*   Total Frame Size   : 12 words                                             *
    4178              ;*                        (1 return address/alignment)                         *
    4179              ;*                        (11 local values)                                    *
    4180              ;*   Min System Stack   : 1 word                                               *
    4181              ;*******************************************************************************
    4182 000b34       _CSL_startTransferCallback:
    4183                      .dwcfi  cfa_offset, 1
    4184                      .dwcfi  save_reg_to_mem, 91, -1
    4185 000b34 4EF5          AADD #-11, SP
    4186                      .dwcfi  cfa_offset, 12
    4187              $C$DW$278       .dwtag  DW_TAG_variable, DW_AT_name("vpContext")
    4188                      .dwattr $C$DW$278, DW_AT_TI_symbol_name("_vpContext")
    4189                      .dwattr $C$DW$278, DW_AT_type(*$C$DW$T$3)
    4190                      .dwattr $C$DW$278, DW_AT_location[DW_OP_bregx 0x24 0]
    4191              $C$DW$279       .dwtag  DW_TAG_variable, DW_AT_name("vpeps")
    4192                      .dwattr $C$DW$279, DW_AT_TI_symbol_name("_vpeps")
    4193                      .dwattr $C$DW$279, DW_AT_type(*$C$DW$T$3)
    4194                      .dwattr $C$DW$279, DW_AT_location[DW_OP_bregx 0x24 2]
    4195              $C$DW$280       .dwtag  DW_TAG_variable, DW_AT_name("pContext")
    4196                      .dwattr $C$DW$280, DW_AT_TI_symbol_name("_pContext")
    4197                      .dwattr $C$DW$280, DW_AT_type(*$C$DW$T$146)
    4198                      .dwattr $C$DW$280, DW_AT_location[DW_OP_bregx 0x24 4]
    4199              $C$DW$281       .dwtag  DW_TAG_variable, DW_AT_name("peps")
    4200                      .dwattr $C$DW$281, DW_AT_TI_symbol_name("_peps")
    4201                      .dwattr $C$DW$281, DW_AT_type(*$C$DW$T$150)
    4202                      .dwattr $C$DW$281, DW_AT_location[DW_OP_bregx 0x24 6]
    4203              $C$DW$282       .dwtag  DW_TAG_variable, DW_AT_name("pTransfer")
    4204                      .dwattr $C$DW$282, DW_AT_TI_symbol_name("_pTransfer")
    4205                      .dwattr $C$DW$282, DW_AT_type(*$C$DW$T$152)
TMS320C55x Assembler PC v4.4.1 Mon Aug 15 03:55:17 2016

Tools Copyright (c) 1996-2012 Texas Instruments Incorporated
usb.asm                                                              PAGE  103

    4206                      .dwattr $C$DW$282, DW_AT_location[DW_OP_bregx 0x24 8]
    4207              $C$DW$283       .dwtag  DW_TAG_variable, DW_AT_name("status")
    4208                      .dwattr $C$DW$283, DW_AT_TI_symbol_name("_status")
    4209                      .dwattr $C$DW$283, DW_AT_type(*$C$DW$T$80)
    4210                      .dwattr $C$DW$283, DW_AT_location[DW_OP_bregx 0x24 10]
    4211 000b36 EB04          MOV XAR1, dbl(*SP(#2))
         000b38 95   
    4212 000b39 EB00          MOV XAR0, dbl(*SP(#0))
         000b3b 85   
    4213                      .dwpsn  file "../c5535_bsl_revc/ezdsp5535_v1/boot_post_SDcard/boot_post/usb.c",line 647,column 2,is_s
    4214 000b3c E614          MOV #0, *SP(#10) ; |647| 
         000b3e 00   
    4215                      .dwpsn  file "../c5535_bsl_revc/ezdsp5535_v1/boot_post_SDcard/boot_post/usb.c",line 649,column 2,is_s
    4216 000b3f ED00          MOV dbl(*SP(#0)), XAR3
         000b41 BF   
    4217 000b42 EB08          MOV XAR3, dbl(*SP(#4))
         000b44 B5   
    4218                      .dwpsn  file "../c5535_bsl_revc/ezdsp5535_v1/boot_post_SDcard/boot_post/usb.c",line 650,column 2,is_s
    4219 000b45 ED04          MOV dbl(*SP(#2)), XAR3
         000b47 BF   
    4220 000b48 EB0C          MOV XAR3, dbl(*SP(#6))
         000b4a B5   
    4221                      .dwpsn  file "../c5535_bsl_revc/ezdsp5535_v1/boot_post_SDcard/boot_post/usb.c",line 652,column 5,is_s
    4222 000b4b ED08          MOV dbl(*SP(#4)), XAR3
         000b4d BF   
    4223 000b4e 90B0          MOV XAR3, AC0
    4224 000b50 6380          BCC $C$L103,AC0 == #0 ; |652| 
    4225                                                      ; branchcc occurs ; |652| 
    4226 000b52 ED0C          MOV dbl(*SP(#6)), XAR3
         000b54 BF   
    4227 000b55 90B0          MOV XAR3, AC0
    4228 000b57 6290          BCC $C$L104,AC0 != #0 ; |652| 
    4229                                                      ; branchcc occurs ; |652| 
    4230 000b59       $C$L103:    
    4231                      .dwpsn  file "../c5535_bsl_revc/ezdsp5535_v1/boot_post_SDcard/boot_post/usb.c",line 654,column 9,is_s
    4232 000b59 3E64          MOV #-6, T0
    4233 000b5b 0600          B $C$L112 ; |654| 
         000b5d 7E   
    4234                                                      ; branch occurs ; |654| 
    4235 000b5e       $C$L104:    
    4236                      .dwpsn  file "../c5535_bsl_revc/ezdsp5535_v1/boot_post_SDcard/boot_post/usb.c",line 657,column 2,is_s
    4237 000b5e ED08          MOV dbl(*SP(#4)), XAR3
         000b60 BF   
    4238 000b61 A96D          MOV *AR3(#23), AR1 ; |657| 
         000b63 0017 
    4239 000b65 6299          BCC $C$L105,AR1 != #0 ; |657| 
    4240                                                      ; branchcc occurs ; |657| 
    4241                      .dwpsn  file "../c5535_bsl_revc/ezdsp5535_v1/boot_post_SDcard/boot_post/usb.c",line 659,column 3,is_s
    4242 000b67 3E64          MOV #-6, T0
    4243 000b69 0600          B $C$L112 ; |659| 
         000b6b 70   
    4244                                                      ; branch occurs ; |659| 
    4245 000b6c       $C$L105:    
    4246                      .dwpsn  file "../c5535_bsl_revc/ezdsp5535_v1/boot_post_SDcard/boot_post/usb.c",line 663,column 2,is_s
    4247 000b6c ED0C          MOV dbl(*SP(#6)), XAR3
TMS320C55x Assembler PC v4.4.1 Mon Aug 15 03:55:17 2016

Tools Copyright (c) 1996-2012 Texas Instruments Incorporated
usb.asm                                                              PAGE  104

         000b6e BF   
    4248 000b6f A97D          MOV *AR3(short(#6)), AR1 ; |663| 
    4249 000b71 6299          BCC $C$L106,AR1 != #0 ; |663| 
    4250                                                      ; branchcc occurs ; |663| 
    4251                      .dwpsn  file "../c5535_bsl_revc/ezdsp5535_v1/boot_post_SDcard/boot_post/usb.c",line 665,column 3,is_s
    4252 000b73 3E64          MOV #-6, T0
    4253 000b75 0600          B $C$L112 ; |665| 
         000b77 64   
    4254                                                      ; branch occurs ; |665| 
    4255 000b78       $C$L106:    
    4256                      .dwpsn  file "../c5535_bsl_revc/ezdsp5535_v1/boot_post_SDcard/boot_post/usb.c",line 668,column 5,is_s
    4257 000b78 ED6D          MOV dbl(*AR3(#10)), XAR3
         000b7a BF00 
         000b7c 0A   
    4258 000b7d EB10          MOV XAR3, dbl(*SP(#8))
         000b7f B5   
    4259                      .dwpsn  file "../c5535_bsl_revc/ezdsp5535_v1/boot_post_SDcard/boot_post/usb.c",line 669,column 5,is_s
    4260 000b80 E66D          MOV #0, *AR3(#12) ; |669| 
         000b82 0000 
         000b84 0C   
    4261                      .dwpsn  file "../c5535_bsl_revc/ezdsp5535_v1/boot_post_SDcard/boot_post/usb.c",line 671,column 2,is_s
    4262 000b85 ED10          MOV dbl(*SP(#8)), XAR3
         000b87 BF   
    4263 000b88 ED61          MOV dbl(*AR3), AC0 ; |671| 
         000b8a 08   
    4264 000b8b 0410          BCC $C$L108,AC0 != #0 ; |671| 
         000b8d 1E   
    4265                                                      ; branchcc occurs ; |671| 
    4266                      .dwpsn  file "../c5535_bsl_revc/ezdsp5535_v1/boot_post_SDcard/boot_post/usb.c",line 673,column 3,is_s
    4267 000b8e ED0C          MOV dbl(*SP(#6)), XAR3
         000b90 BF   
    4268 000b91 ED61          MOV dbl(*AR3), AC0 ; |673| 
         000b93 08   
    4269 000b94 6510          BCC $C$L107,AC0 != #0 ; |673| 
    4270                                                      ; branchcc occurs ; |673| 
    4271                      .dwpsn  file "../c5535_bsl_revc/ezdsp5535_v1/boot_post_SDcard/boot_post/usb.c",line 675,column 4,is_s
    4272 000b96 ED08          MOV dbl(*SP(#4)), XAR0
         000b98 8F   
    4273              $C$DW$284       .dwtag  DW_TAG_TI_branch
    4274                      .dwattr $C$DW$284, DW_AT_low_pc(0x00)
    4275                      .dwattr $C$DW$284, DW_AT_name("_USB_processEP0Out")
    4276                      .dwattr $C$DW$284, DW_AT_TI_call
    4277 000b99 08F5          CALL #_USB_processEP0Out ; |675| 
         000b9b 24   
    4278                                                      ; call occurs [#_USB_processEP0Out] ; |675| 
    4279 000b9c C414          MOV T0, *SP(#10) ; |675| 
    4280                      .dwpsn  file "../c5535_bsl_revc/ezdsp5535_v1/boot_post_SDcard/boot_post/usb.c",line 676,column 3,is_s
    4281 000b9e 4A3A          B $C$L111 ; |676| 
    4282                                                      ; branch occurs ; |676| 
    4283 000ba0       $C$L107:    
    4284                      .dwpsn  file "../c5535_bsl_revc/ezdsp5535_v1/boot_post_SDcard/boot_post/usb.c",line 679,column 4,is_s
    4285 000ba0 ED08          MOV dbl(*SP(#4)), XAR0
         000ba2 8F   
    4286              $C$DW$285       .dwtag  DW_TAG_TI_branch
    4287                      .dwattr $C$DW$285, DW_AT_low_pc(0x00)
TMS320C55x Assembler PC v4.4.1 Mon Aug 15 03:55:17 2016

Tools Copyright (c) 1996-2012 Texas Instruments Incorporated
usb.asm                                                              PAGE  105

    4288                      .dwattr $C$DW$285, DW_AT_name("_USB_handleRx")
    4289                      .dwattr $C$DW$285, DW_AT_TI_call
    4290              
    4291 000ba3 08FA          CALL #_USB_handleRx ; |679| 
         000ba5 38   
    4292 000ba6 3D10  ||      MOV #1, AC0 ; |679| 
    4293              
    4294                                                      ; call occurs [#_USB_handleRx] ; |679| 
    4295 000ba8 C414          MOV T0, *SP(#10) ; |679| 
    4296                      .dwpsn  file "../c5535_bsl_revc/ezdsp5535_v1/boot_post_SDcard/boot_post/usb.c",line 681,column 2,is_s
    4297 000baa 4A2E          B $C$L111 ; |681| 
    4298                                                      ; branch occurs ; |681| 
    4299 000bac       $C$L108:    
    4300                      .dwpsn  file "../c5535_bsl_revc/ezdsp5535_v1/boot_post_SDcard/boot_post/usb.c",line 682,column 7,is_s
    4301 000bac 7600          MOV #128, AC0 ; |682| 
         000bae 8008 
    4302 000bb0 ED61          MOV dbl(*AR3), AC1 ; |682| 
         000bb2 18   
    4303 000bb3 121C          CMPU AC1 != AC0, TC1 ; |682| 
         000bb5 04   
    4304 000bb6 0464          BCC $C$L110,TC1 ; |682| 
         000bb8 1E   
    4305                                                      ; branchcc occurs ; |682| 
    4306                      .dwpsn  file "../c5535_bsl_revc/ezdsp5535_v1/boot_post_SDcard/boot_post/usb.c",line 684,column 3,is_s
    4307 000bb9 ED0C          MOV dbl(*SP(#6)), XAR3
         000bbb BF   
    4308 000bbc ED61          MOV dbl(*AR3), AC0 ; |684| 
         000bbe 08   
    4309 000bbf 6510          BCC $C$L109,AC0 != #0 ; |684| 
    4310                                                      ; branchcc occurs ; |684| 
    4311                      .dwpsn  file "../c5535_bsl_revc/ezdsp5535_v1/boot_post_SDcard/boot_post/usb.c",line 686,column 4,is_s
    4312 000bc1 ED08          MOV dbl(*SP(#4)), XAR0
         000bc3 8F   
    4313              $C$DW$286       .dwtag  DW_TAG_TI_branch
    4314                      .dwattr $C$DW$286, DW_AT_low_pc(0x00)
    4315                      .dwattr $C$DW$286, DW_AT_name("_USB_processEP0In")
    4316                      .dwattr $C$DW$286, DW_AT_TI_call
    4317 000bc4 08F5          CALL #_USB_processEP0In ; |686| 
         000bc6 BD   
    4318                                                      ; call occurs [#_USB_processEP0In] ; |686| 
    4319 000bc7 C414          MOV T0, *SP(#10) ; |686| 
    4320                      .dwpsn  file "../c5535_bsl_revc/ezdsp5535_v1/boot_post_SDcard/boot_post/usb.c",line 687,column 3,is_s
    4321 000bc9 4A0F          B $C$L111 ; |687| 
    4322                                                      ; branch occurs ; |687| 
    4323 000bcb       $C$L109:    
    4324                      .dwpsn  file "../c5535_bsl_revc/ezdsp5535_v1/boot_post_SDcard/boot_post/usb.c",line 690,column 4,is_s
    4325 000bcb ED08          MOV dbl(*SP(#4)), XAR0
         000bcd 8F   
    4326              $C$DW$287       .dwtag  DW_TAG_TI_branch
    4327                      .dwattr $C$DW$287, DW_AT_low_pc(0x00)
    4328                      .dwattr $C$DW$287, DW_AT_name("_USB_handleTx")
    4329                      .dwattr $C$DW$287, DW_AT_TI_call
    4330              
    4331 000bce 08F7          CALL #_USB_handleTx ; |690| 
         000bd0 8D   
TMS320C55x Assembler PC v4.4.1 Mon Aug 15 03:55:17 2016

Tools Copyright (c) 1996-2012 Texas Instruments Incorporated
usb.asm                                                              PAGE  106

    4332 000bd1 3D10  ||      MOV #1, AC0 ; |690| 
    4333              
    4334                                                      ; call occurs [#_USB_handleTx] ; |690| 
    4335 000bd3 C414          MOV T0, *SP(#10) ; |690| 
    4336                      .dwpsn  file "../c5535_bsl_revc/ezdsp5535_v1/boot_post_SDcard/boot_post/usb.c",line 692,column 2,is_s
    4337 000bd5 4A03          B $C$L111 ; |692| 
    4338                                                      ; branch occurs ; |692| 
    4339 000bd7       $C$L110:    
    4340                      .dwpsn  file "../c5535_bsl_revc/ezdsp5535_v1/boot_post_SDcard/boot_post/usb.c",line 695,column 3,is_s
    4341 000bd7 E614          MOV #-6, *SP(#10) ; |695| 
         000bd9 FA   
    4342 000bda       $C$L111:    
    4343                      .dwpsn  file "../c5535_bsl_revc/ezdsp5535_v1/boot_post_SDcard/boot_post/usb.c",line 698,column 2,is_s
    4344 000bda A414          MOV *SP(#10), T0 ; |698| 
    4345 000bdc       $C$L112:    
    4346                      .dwpsn  file "../c5535_bsl_revc/ezdsp5535_v1/boot_post_SDcard/boot_post/usb.c",line 699,column 1,is_s
    4347 000bdc 4E0B          AADD #11, SP
    4348                      .dwcfi  cfa_offset, 1
    4349              $C$DW$288       .dwtag  DW_TAG_TI_branch
    4350                      .dwattr $C$DW$288, DW_AT_low_pc(0x00)
    4351                      .dwattr $C$DW$288, DW_AT_TI_return
    4352 000bde 4804          RET
    4353                                                      ; return occurs
    4354                      .dwattr $C$DW$275, DW_AT_TI_end_file("../c5535_bsl_revc/ezdsp5535_v1/boot_post_SDcard/boot_post/usb.c
    4355                      .dwattr $C$DW$275, DW_AT_TI_end_line(0x2bb)
    4356                      .dwattr $C$DW$275, DW_AT_TI_end_column(0x01)
    4357                      .dwendentry
    4358                      .dwendtag $C$DW$275
    4359              
    4360 000be0               .sect   ".text"
    4361                      .align 4
    4362                      .global _CSL_completeTransferCallback
    4363              
    4364              $C$DW$289       .dwtag  DW_TAG_subprogram, DW_AT_name("CSL_completeTransferCallback")
    4365                      .dwattr $C$DW$289, DW_AT_low_pc(_CSL_completeTransferCallback)
    4366                      .dwattr $C$DW$289, DW_AT_high_pc(0x00)
    4367                      .dwattr $C$DW$289, DW_AT_TI_symbol_name("_CSL_completeTransferCallback")
    4368                      .dwattr $C$DW$289, DW_AT_external
    4369                      .dwattr $C$DW$289, DW_AT_type(*$C$DW$T$80)
    4370                      .dwattr $C$DW$289, DW_AT_TI_begin_file("../c5535_bsl_revc/ezdsp5535_v1/boot_post_SDcard/boot_post/usb
    4371                      .dwattr $C$DW$289, DW_AT_TI_begin_line(0x2c5)
    4372                      .dwattr $C$DW$289, DW_AT_TI_begin_column(0x0c)
    4373                      .dwattr $C$DW$289, DW_AT_TI_max_frame_size(0x06)
    4374                      .dwpsn  file "../c5535_bsl_revc/ezdsp5535_v1/boot_post_SDcard/boot_post/usb.c",line 711,column 1,is_s
    4375              
    4376                      .dwfde $C$DW$CIE, _CSL_completeTransferCallback
    4377              $C$DW$290       .dwtag  DW_TAG_formal_parameter, DW_AT_name("vpContext")
    4378                      .dwattr $C$DW$290, DW_AT_TI_symbol_name("_vpContext")
    4379                      .dwattr $C$DW$290, DW_AT_type(*$C$DW$T$3)
    4380                      .dwattr $C$DW$290, DW_AT_location[DW_OP_reg17]
    4381              $C$DW$291       .dwtag  DW_TAG_formal_parameter, DW_AT_name("vpeps")
    4382                      .dwattr $C$DW$291, DW_AT_TI_symbol_name("_vpeps")
    4383                      .dwattr $C$DW$291, DW_AT_type(*$C$DW$T$3)
    4384                      .dwattr $C$DW$291, DW_AT_location[DW_OP_reg19]
    4385              ;*******************************************************************************
TMS320C55x Assembler PC v4.4.1 Mon Aug 15 03:55:17 2016

Tools Copyright (c) 1996-2012 Texas Instruments Incorporated
usb.asm                                                              PAGE  107

    4386              ;* FUNCTION NAME: CSL_completeTransferCallback                                 *
    4387              ;*                                                                             *
    4388              ;*   Function Uses Regs : T0,AR0,XAR0,AR1,XAR1,SP,M40,SATA,SATD,RDM,FRCT,SMUL  *
    4389              ;*   Stack Frame        : Compact (No Frame Pointer, w/ debug)                 *
    4390              ;*   Total Frame Size   : 6 words                                              *
    4391              ;*                        (2 return address/alignment)                         *
    4392              ;*                        (4 local values)                                     *
    4393              ;*   Min System Stack   : 1 word                                               *
    4394              ;*******************************************************************************
    4395 000be0       _CSL_completeTransferCallback:
    4396                      .dwcfi  cfa_offset, 1
    4397                      .dwcfi  save_reg_to_mem, 91, -1
    4398 000be0 4EFB          AADD #-5, SP
    4399                      .dwcfi  cfa_offset, 6
    4400              $C$DW$292       .dwtag  DW_TAG_variable, DW_AT_name("vpContext")
    4401                      .dwattr $C$DW$292, DW_AT_TI_symbol_name("_vpContext")
    4402                      .dwattr $C$DW$292, DW_AT_type(*$C$DW$T$3)
    4403                      .dwattr $C$DW$292, DW_AT_location[DW_OP_bregx 0x24 0]
    4404              $C$DW$293       .dwtag  DW_TAG_variable, DW_AT_name("vpeps")
    4405                      .dwattr $C$DW$293, DW_AT_TI_symbol_name("_vpeps")
    4406                      .dwattr $C$DW$293, DW_AT_type(*$C$DW$T$3)
    4407                      .dwattr $C$DW$293, DW_AT_location[DW_OP_bregx 0x24 2]
    4408 000be2 EB04          MOV XAR1, dbl(*SP(#2))
         000be4 95   
    4409 000be5 EB00          MOV XAR0, dbl(*SP(#0))
         000be7 85   
    4410                      .dwpsn  file "../c5535_bsl_revc/ezdsp5535_v1/boot_post_SDcard/boot_post/usb.c",line 712,column 2,is_s
    4411 000be8 3C04          MOV #0, T0
    4412                      .dwpsn  file "../c5535_bsl_revc/ezdsp5535_v1/boot_post_SDcard/boot_post/usb.c",line 713,column 1,is_s
    4413 000bea 4E05          AADD #5, SP
    4414                      .dwcfi  cfa_offset, 1
    4415              $C$DW$294       .dwtag  DW_TAG_TI_branch
    4416                      .dwattr $C$DW$294, DW_AT_low_pc(0x00)
    4417                      .dwattr $C$DW$294, DW_AT_TI_return
    4418 000bec 4804          RET
    4419                                                      ; return occurs
    4420                      .dwattr $C$DW$289, DW_AT_TI_end_file("../c5535_bsl_revc/ezdsp5535_v1/boot_post_SDcard/boot_post/usb.c
    4421                      .dwattr $C$DW$289, DW_AT_TI_end_line(0x2c9)
    4422                      .dwattr $C$DW$289, DW_AT_TI_end_column(0x01)
    4423                      .dwendentry
    4424                      .dwendtag $C$DW$289
    4425              
    4426 000bee               .sect   ".text"
    4427                      .align 4
    4428                      .global _processOut
    4429              
    4430              $C$DW$295       .dwtag  DW_TAG_subprogram, DW_AT_name("processOut")
    4431                      .dwattr $C$DW$295, DW_AT_low_pc(_processOut)
    4432                      .dwattr $C$DW$295, DW_AT_high_pc(0x00)
    4433                      .dwattr $C$DW$295, DW_AT_TI_symbol_name("_processOut")
    4434                      .dwattr $C$DW$295, DW_AT_external
    4435                      .dwattr $C$DW$295, DW_AT_type(*$C$DW$T$79)
    4436                      .dwattr $C$DW$295, DW_AT_TI_begin_file("../c5535_bsl_revc/ezdsp5535_v1/boot_post_SDcard/boot_post/usb
    4437                      .dwattr $C$DW$295, DW_AT_TI_begin_line(0x2d0)
    4438                      .dwattr $C$DW$295, DW_AT_TI_begin_column(0x07)
TMS320C55x Assembler PC v4.4.1 Mon Aug 15 03:55:17 2016

Tools Copyright (c) 1996-2012 Texas Instruments Incorporated
usb.asm                                                              PAGE  108

    4439                      .dwattr $C$DW$295, DW_AT_TI_max_frame_size(0x02)
    4440                      .dwpsn  file "../c5535_bsl_revc/ezdsp5535_v1/boot_post_SDcard/boot_post/usb.c",line 721,column 1,is_s
    4441              
    4442                      .dwfde $C$DW$CIE, _processOut
    4443              ;*******************************************************************************
    4444              ;* FUNCTION NAME: processOut                                                   *
    4445              ;*                                                                             *
    4446              ;*   Function Uses Regs : AC0,T0,T1,AR0,XAR0,AR1,XAR1,AR2,AR3,XAR3,SP,CARRY,   *
    4447              ;*                        TC1,M40,SATA,SATD,RDM,FRCT,SMUL                      *
    4448              ;*   Stack Frame        : Compact (No Frame Pointer, w/ debug)                 *
    4449              ;*   Total Frame Size   : 2 words                                              *
    4450              ;*                        (1 return address/alignment)                         *
    4451              ;*                        (1 local values)                                     *
    4452              ;*   Min System Stack   : 1 word                                               *
    4453              ;*******************************************************************************
    4454 000bf0       _processOut:
    4455                      .dwcfi  cfa_offset, 1
    4456                      .dwcfi  save_reg_to_mem, 91, -1
    4457 000bf0 4EFF          AADD #-1, SP
    4458                      .dwcfi  cfa_offset, 2
    4459              $C$DW$296       .dwtag  DW_TAG_variable, DW_AT_name("val")
    4460                      .dwattr $C$DW$296, DW_AT_TI_symbol_name("_val")
    4461                      .dwattr $C$DW$296, DW_AT_type(*$C$DW$T$19)
    4462                      .dwattr $C$DW$296, DW_AT_location[DW_OP_bregx 0x24 0]
    4463                      .dwpsn  file "../c5535_bsl_revc/ezdsp5535_v1/boot_post_SDcard/boot_post/usb.c",line 725,column 2,is_s
    4464 000bf2 7600          MOV #34, AR2 ; |725| 
         000bf4 22A8 
    4465 000bf6 DF31          MOV uns(low_byte(*(#_dataWriteBuff))), AR1 ; |725| 
         000bf8 9300 
         000bfa 0178-
    4466 000bfc 129C          CMPU AR1 != AR2, TC1 ; |725| 
         000bfe A4   
    4467 000bff 6D64          BCC $C$L120,TC1 ; |725| 
         000c01 0143 
    4468                                                      ; branchcc occurs ; |725| 
    4469 000c03 A931          MOV *(#_dataWriteBuff), AR1 ; |725| 
         000c05 0001 
         000c07 78-  
    4470 000c08 7623          MOV #8960, AR2 ; |725| 
         000c0a 00A8 
    4471 000c0c 7DFF          AND #0xff00, AR1, AR1 ; |725| 
         000c0e 0099 
    4472 000c10 129C          CMPU AR1 != AR2, TC1 ; |725| 
         000c12 A4   
    4473 000c13 6D64          BCC $C$L120,TC1 ; |725| 
         000c15 012F 
    4474                                                      ; branchcc occurs ; |725| 
    4475 000c17 A931          MOV *(#(_dataWriteBuff+1)), AR1 ; |725| 
         000c19 0001 
         000c1b 79-  
    4476 000c1c 6D19          BCC $C$L120,AR1 != #0 ; |725| 
         000c1e 0126 
    4477                                                      ; branchcc occurs ; |725| 
    4478                      .dwpsn  file "../c5535_bsl_revc/ezdsp5535_v1/boot_post_SDcard/boot_post/usb.c",line 728,column 6,is_s
    4479 000c20 0600          B $C$L119 ; |728| 
TMS320C55x Assembler PC v4.4.1 Mon Aug 15 03:55:17 2016

Tools Copyright (c) 1996-2012 Texas Instruments Incorporated
usb.asm                                                              PAGE  109

         000c22 FF   
    4480                                                      ; branch occurs ; |728| 
    4481 000c23       $C$L113:    
    4482                      .dwpsn  file "../c5535_bsl_revc/ezdsp5535_v1/boot_post_SDcard/boot_post/usb.c",line 731,column 11,is_
    4483 000c23 A931          MOV *(#(_dataWriteBuff+8)), AR1 ; |731| 
         000c25 0001 
         000c27 80-  
    4484 000c28 C931          MOV AR1, *(#_len) ; |731| 
         000c2a 0003 
         000c2c 33-  
    4485                      .dwpsn  file "../c5535_bsl_revc/ezdsp5535_v1/boot_post_SDcard/boot_post/usb.c",line 732,column 11,is_
    4486 000c2d EC31          AMOV #_dataReadBuff, XAR3 ; |732| 
         000c2f BE00 
         000c31 0078-
    4487 000c33 EB31          MOV XAR3, dbl(*(#_dataReadBuffPtr))
         000c35 B500 
         000c37 0278-
    4488                      .dwpsn  file "../c5535_bsl_revc/ezdsp5535_v1/boot_post_SDcard/boot_post/usb.c",line 733,column 14,is_
    4489 000c39 7600          MOV #64, AR2 ; |733| 
         000c3b 40A8 
    4490 000c3d 12A8          CMPU AR1 <= AR2, TC1 ; |733| 
         000c3f 94   
    4491 000c40 0464          BCC $C$L114,TC1 ; |733| 
         000c42 36   
    4492                                                      ; branchcc occurs ; |733| 
    4493                      .dwpsn  file "../c5535_bsl_revc/ezdsp5535_v1/boot_post_SDcard/boot_post/usb.c",line 735,column 18,is_
    4494 000c43 ED31          MOV dbl(*(#(_hEpObjArray+4))), XAR0
         000c45 8F00 
         000c47 0004-
    4495 000c49 ED31          MOV dbl(*(#_dataReadBuffPtr)), XAR1
         000c4b 9F00 
         000c4d 0278-
    4496 000c4f 7600          MOV #128, T1 ; |735| 
         000c51 8058 
    4497 000c53 7600          MOV #64, T0 ; |735| 
         000c55 4048 
    4498              $C$DW$297       .dwtag  DW_TAG_TI_branch
    4499                      .dwattr $C$DW$297, DW_AT_low_pc(0x00)
    4500                      .dwattr $C$DW$297, DW_AT_name("_USB_postTransaction")
    4501                      .dwattr $C$DW$297, DW_AT_TI_call
    4502 000c57 6C00          CALL #_USB_postTransaction ; |735| 
         000c59 0000!
    4503                                                      ; call occurs [#_USB_postTransaction] ; |735| 
    4504 000c5b C431          MOV T0, *(#_status) ; |735| 
         000c5d 0000 
         000c5f 75-  
    4505                      .dwpsn  file "../c5535_bsl_revc/ezdsp5535_v1/boot_post_SDcard/boot_post/usb.c",line 736,column 18,is_
    4506 000c60 ED31          MOV dbl(*(#_dataReadBuffPtr)), XAR3
         000c62 BF00 
         000c64 0278-
    4507 000c66 1420          AADD #32, AR3 ; |736| 
         000c68 B4   
    4508 000c69 EB31          MOV XAR3, dbl(*(#_dataReadBuffPtr))
         000c6b B500 
         000c6d 0278-
TMS320C55x Assembler PC v4.4.1 Mon Aug 15 03:55:17 2016

Tools Copyright (c) 1996-2012 Texas Instruments Incorporated
usb.asm                                                              PAGE  110

    4509                      .dwpsn  file "../c5535_bsl_revc/ezdsp5535_v1/boot_post_SDcard/boot_post/usb.c",line 737,column 18,is_
    4510 000c6f F731          SUB #64, *(#_len) ; |737| 
         000c71 FFC0 
         000c73 0003 
         000c75 33-  
    4511                      .dwpsn  file "../c5535_bsl_revc/ezdsp5535_v1/boot_post_SDcard/boot_post/usb.c",line 738,column 14,is_
    4512 000c76 0601          B $C$L122 ; |738| 
         000c78 0B   
    4513                                                      ; branch occurs ; |738| 
    4514 000c79       $C$L114:    
    4515                      .dwpsn  file "../c5535_bsl_revc/ezdsp5535_v1/boot_post_SDcard/boot_post/usb.c",line 741,column 15,is_
    4516 000c79 DC31          BTST #0, *(#_len), TC1 ; |741| 
         000c7b 0000 
         000c7d 0333-
    4517 000c7f 63F4          BCC $C$L115,!TC1 ; |741| 
    4518                                                      ; branchcc occurs ; |741| 
    4519                      .dwpsn  file "../c5535_bsl_revc/ezdsp5535_v1/boot_post_SDcard/boot_post/usb.c",line 742,column 19,is_
    4520 000c81 F731          ADD #1, *(#_len) ; |742| 
         000c83 0001 
         000c85 0003 
         000c87 33-  
    4521 000c88       $C$L115:    
    4522                      .dwpsn  file "../c5535_bsl_revc/ezdsp5535_v1/boot_post_SDcard/boot_post/usb.c",line 743,column 18,is_
    4523 000c88 ED31          MOV dbl(*(#(_hEpObjArray+4))), XAR0
         000c8a 8F00 
         000c8c 0004-
    4524 000c8e A431          MOV *(#_len), T0 ; |743| 
         000c90 0003 
         000c92 33-  
    4525 000c93 ED31          MOV dbl(*(#_dataReadBuffPtr)), XAR1
         000c95 9F00 
         000c97 0278-
    4526 000c99 7600          MOV #128, T1 ; |743| 
         000c9b 8058 
    4527              $C$DW$298       .dwtag  DW_TAG_TI_branch
    4528                      .dwattr $C$DW$298, DW_AT_low_pc(0x00)
    4529                      .dwattr $C$DW$298, DW_AT_name("_USB_postTransaction")
    4530                      .dwattr $C$DW$298, DW_AT_TI_call
    4531 000c9d 6C00          CALL #_USB_postTransaction ; |743| 
         000c9f 0000!
    4532                                                      ; call occurs [#_USB_postTransaction] ; |743| 
    4533 000ca1 C431          MOV T0, *(#_status) ; |743| 
         000ca3 0000 
         000ca5 75-  
    4534                      .dwpsn  file "../c5535_bsl_revc/ezdsp5535_v1/boot_post_SDcard/boot_post/usb.c",line 744,column 18,is_
    4535 000ca6 E631          MOV #0, *(#_len) ; |744| 
         000ca8 0000 
         000caa 0333-
    4536                      .dwpsn  file "../c5535_bsl_revc/ezdsp5535_v1/boot_post_SDcard/boot_post/usb.c",line 746,column 16,is_
    4537 000cac 0600          B $C$L122 ; |746| 
         000cae D5   
    4538                                                      ; branch occurs ; |746| 
    4539 000caf       $C$L116:    
    4540                      .dwpsn  file "../c5535_bsl_revc/ezdsp5535_v1/boot_post_SDcard/boot_post/usb.c",line 749,column 11,is_
    4541 000caf A931          MOV *(#(_dataWriteBuff+8)), AR1 ; |749| 
TMS320C55x Assembler PC v4.4.1 Mon Aug 15 03:55:17 2016

Tools Copyright (c) 1996-2012 Texas Instruments Incorporated
usb.asm                                                              PAGE  111

         000cb1 0001 
         000cb3 80-  
    4542 000cb4 C931          MOV AR1, *(#_len) ; |749| 
         000cb6 0003 
         000cb8 33-  
    4543                      .dwpsn  file "../c5535_bsl_revc/ezdsp5535_v1/boot_post_SDcard/boot_post/usb.c",line 750,column 11,is_
    4544 000cb9 EC31          AMOV #_dataReadBuff, XAR3 ; |750| 
         000cbb BE00 
         000cbd 0078-
    4545 000cbf EB31          MOV XAR3, dbl(*(#_dataReadBuffPtr))
         000cc1 B500 
         000cc3 0278-
    4546                      .dwpsn  file "../c5535_bsl_revc/ezdsp5535_v1/boot_post_SDcard/boot_post/usb.c",line 752,column 16,is_
    4547 000cc5 0600          B $C$L122 ; |752| 
         000cc7 BC   
    4548                                                      ; branch occurs ; |752| 
    4549 000cc8       $C$L117:    
    4550                      .dwpsn  file "../c5535_bsl_revc/ezdsp5535_v1/boot_post_SDcard/boot_post/usb.c",line 755,column 11,is_
    4551 000cc8 A931          MOV *(#(_dataWriteBuff+8)), AR1 ; |755| 
         000cca 0001 
         000ccc 80-  
    4552 000ccd C931          MOV AR1, *(#_addr) ; |755| 
         000ccf 0003 
         000cd1 32-  
    4553                      .dwpsn  file "../c5535_bsl_revc/ezdsp5535_v1/boot_post_SDcard/boot_post/usb.c",line 756,column 11,is_
    4554 000cd2 229B          MOV AR1, AR3
    4555 000cd4 A961          MOV port(*AR3), AR1 ; |756| 
         000cd6 99   
    4556 000cd7 C931          MOV AR1, *(#_dataReadBuff) ; |756| 
         000cd9 0000 
         000cdb 78-  
    4557                      .dwpsn  file "../c5535_bsl_revc/ezdsp5535_v1/boot_post_SDcard/boot_post/usb.c",line 757,column 11,is_
    4558 000cdc EC31          AMOV #_dataReadBuff, XAR3 ; |757| 
         000cde BE00 
         000ce0 0078-
    4559 000ce2 EB31          MOV XAR3, dbl(*(#_dataReadBuffPtr))
         000ce4 B500 
         000ce6 0278-
    4560                      .dwpsn  file "../c5535_bsl_revc/ezdsp5535_v1/boot_post_SDcard/boot_post/usb.c",line 758,column 11,is_
    4561 000ce8 ED31          MOV dbl(*(#(_hEpObjArray+4))), XAR0
         000cea 8F00 
         000cec 0004-
    4562 000cee 7600          MOV #128, T1 ; |758| 
         000cf0 8058 
    4563 000cf2 ED31          MOV dbl(*(#_dataReadBuffPtr)), XAR1
         000cf4 9F00 
         000cf6 0278-
    4564              $C$DW$299       .dwtag  DW_TAG_TI_branch
    4565                      .dwattr $C$DW$299, DW_AT_low_pc(0x00)
    4566                      .dwattr $C$DW$299, DW_AT_name("_USB_postTransaction")
    4567                      .dwattr $C$DW$299, DW_AT_TI_call
    4568              
    4569 000cf8 6C00          CALL #_USB_postTransaction ; |758| 
         000cfa 0000!
    4570 000cfc 3D24  ||      MOV #2, T0
TMS320C55x Assembler PC v4.4.1 Mon Aug 15 03:55:17 2016

Tools Copyright (c) 1996-2012 Texas Instruments Incorporated
usb.asm                                                              PAGE  112

    4571              
    4572                                                      ; call occurs [#_USB_postTransaction] ; |758| 
    4573 000cfe C431          MOV T0, *(#_status) ; |758| 
         000d00 0000 
         000d02 75-  
    4574                      .dwpsn  file "../c5535_bsl_revc/ezdsp5535_v1/boot_post_SDcard/boot_post/usb.c",line 759,column 16,is_
    4575 000d03 0600          B $C$L122 ; |759| 
         000d05 7E   
    4576                                                      ; branch occurs ; |759| 
    4577 000d06       $C$L118:    
    4578                      .dwpsn  file "../c5535_bsl_revc/ezdsp5535_v1/boot_post_SDcard/boot_post/usb.c",line 762,column 11,is_
    4579 000d06 A931          MOV *(#(_dataWriteBuff+8)), AR1 ; |762| 
         000d08 0001 
         000d0a 80-  
    4580 000d0b C931          MOV AR1, *(#_addr) ; |762| 
         000d0d 0003 
         000d0f 32-  
    4581                      .dwpsn  file "../c5535_bsl_revc/ezdsp5535_v1/boot_post_SDcard/boot_post/usb.c",line 763,column 11,is_
    4582 000d10 A931          MOV *(#(_dataWriteBuff+24)), AR1 ; |763| 
         000d12 0001 
         000d14 90-  
    4583 000d15 C900          MOV AR1, *SP(#0) ; |763| 
    4584                      .dwpsn  file "../c5535_bsl_revc/ezdsp5535_v1/boot_post_SDcard/boot_post/usb.c",line 764,column 11,is_
    4585 000d17 AB31          MOV *(#_addr), AR3 ; |764| 
         000d19 0003 
         000d1b 32-  
    4586 000d1c C961          MOV AR1, port(*AR3) ; |764| 
         000d1e 9A   
    4587                      .dwpsn  file "../c5535_bsl_revc/ezdsp5535_v1/boot_post_SDcard/boot_post/usb.c",line 766,column 16,is_
    4588 000d1f 0600          B $C$L122 ; |766| 
         000d21 62   
    4589                                                      ; branch occurs ; |766| 
    4590 000d22       $C$L119:    
    4591                      .dwpsn  file "../c5535_bsl_revc/ezdsp5535_v1/boot_post_SDcard/boot_post/usb.c",line 728,column 6,is_s
    4592 000d22 A931          MOV *(#(_dataWriteBuff+2)), AR1 ; |728| 
         000d24 0001 
         000d26 7A-  
    4593 000d27 6D09          BCC $C$L113,AR1 == #0 ; |728| 
         000d29 FEF8 
    4594                                                      ; branchcc occurs ; |728| 
    4595 000d2b 3C1A          MOV #1, AR2
    4596 000d2d 1290          CMPU AR1 == AR2, TC1 ; |728| 
         000d2f A4   
    4597 000d30 6D64          BCC $C$L116,TC1 ; |728| 
         000d32 FF7B 
    4598                                                      ; branchcc occurs ; |728| 
    4599 000d34 3C2A          MOV #2, AR2
    4600 000d36 1290          CMPU AR1 == AR2, TC1 ; |728| 
         000d38 A4   
    4601 000d39 0464          BCC $C$L117,TC1 ; |728| 
         000d3b 8C   
    4602                                                      ; branchcc occurs ; |728| 
    4603 000d3c 3C3A          MOV #3, AR2
    4604 000d3e 1290          CMPU AR1 == AR2, TC1 ; |728| 
         000d40 A4   
TMS320C55x Assembler PC v4.4.1 Mon Aug 15 03:55:17 2016

Tools Copyright (c) 1996-2012 Texas Instruments Incorporated
usb.asm                                                              PAGE  113

    4605 000d41 0464          BCC $C$L118,TC1 ; |728| 
         000d43 C2   
    4606                                                      ; branchcc occurs ; |728| 
    4607 000d44 4A3E          B $C$L122 ; |728| 
    4608                                                      ; branch occurs ; |728| 
    4609 000d46       $C$L120:    
    4610                      .dwpsn  file "../c5535_bsl_revc/ezdsp5535_v1/boot_post_SDcard/boot_post/usb.c",line 774,column 3,is_s
    4611 000d46 DC31          BTST #0, *(#_dataCount), TC1 ; |774| 
         000d48 0000 
         000d4a 0286-
    4612 000d4c 63F4          BCC $C$L121,!TC1 ; |774| 
    4613                                                      ; branchcc occurs ; |774| 
    4614                      .dwpsn  file "../c5535_bsl_revc/ezdsp5535_v1/boot_post_SDcard/boot_post/usb.c",line 775,column 13,is_
    4615 000d4e F731          ADD #1, *(#_dataCount) ; |775| 
         000d50 0001 
         000d52 0002 
         000d54 86-  
    4616 000d55       $C$L121:    
    4617                      .dwpsn  file "../c5535_bsl_revc/ezdsp5535_v1/boot_post_SDcard/boot_post/usb.c",line 776,column 6,is_s
    4618 000d55 A031          MOV *(#_dataCount), AC0 ; |776| 
         000d57 0002 
         000d59 86-  
    4619 000d5a ED31          MOV dbl(*(#_dataReadBuffPtr)), XAR0
         000d5c 8F00 
         000d5e 0278-
    4620 000d60 EC31          AMOV #_dataWriteBuff, XAR1 ; |776| 
         000d62 9E00 
         000d64 0178-
    4621 000d66 76FF          BFXTR #0xfffe, AC0, T0 ; |776| 
         000d68 FE40 
    4622              $C$DW$300       .dwtag  DW_TAG_TI_branch
    4623                      .dwattr $C$DW$300, DW_AT_low_pc(0x00)
    4624                      .dwattr $C$DW$300, DW_AT_name("_memcpy")
    4625                      .dwattr $C$DW$300, DW_AT_TI_call
    4626 000d6a 6C00          CALL #_memcpy ; |776| 
         000d6c 0000!
    4627                                                      ; call occurs [#_memcpy] ; |776| 
    4628                      .dwpsn  file "../c5535_bsl_revc/ezdsp5535_v1/boot_post_SDcard/boot_post/usb.c",line 777,column 6,is_s
    4629 000d6e ED31          MOV dbl(*(#_dataReadBuffPtr)), XAR3
         000d70 BF00 
         000d72 0278-
    4630 000d74 A931          MOV *(#_dataCount), AR1 ; |777| 
         000d76 0002 
         000d78 86-  
    4631 000d79 5091          SFTL AR1, #-1 ; |777| 
    4632 000d7b 1490          AADD AR1, AR3 ; |777| 
         000d7d B0   
    4633 000d7e EB31          MOV XAR3, dbl(*(#_dataReadBuffPtr))
         000d80 B500 
         000d82 0278-
    4634 000d84       $C$L122:    
    4635                      .dwpsn  file "../c5535_bsl_revc/ezdsp5535_v1/boot_post_SDcard/boot_post/usb.c",line 779,column 2,is_s
    4636 000d84 3C04          MOV #0, T0
    4637                      .dwpsn  file "../c5535_bsl_revc/ezdsp5535_v1/boot_post_SDcard/boot_post/usb.c",line 780,column 1,is_s
    4638 000d86 4E01          AADD #1, SP
TMS320C55x Assembler PC v4.4.1 Mon Aug 15 03:55:17 2016

Tools Copyright (c) 1996-2012 Texas Instruments Incorporated
usb.asm                                                              PAGE  114

    4639                      .dwcfi  cfa_offset, 1
    4640              $C$DW$301       .dwtag  DW_TAG_TI_branch
    4641                      .dwattr $C$DW$301, DW_AT_low_pc(0x00)
    4642                      .dwattr $C$DW$301, DW_AT_TI_return
    4643 000d88 4804          RET
    4644                                                      ; return occurs
    4645                      .dwattr $C$DW$295, DW_AT_TI_end_file("../c5535_bsl_revc/ezdsp5535_v1/boot_post_SDcard/boot_post/usb.c
    4646                      .dwattr $C$DW$295, DW_AT_TI_end_line(0x30c)
    4647                      .dwattr $C$DW$295, DW_AT_TI_end_column(0x01)
    4648                      .dwendentry
    4649                      .dwendtag $C$DW$295
    4650              
    4651 000d8a               .sect   ".text"
    4652                      .align 4
    4653                      .global _processIn
    4654              
    4655              $C$DW$302       .dwtag  DW_TAG_subprogram, DW_AT_name("processIn")
    4656                      .dwattr $C$DW$302, DW_AT_low_pc(_processIn)
    4657                      .dwattr $C$DW$302, DW_AT_high_pc(0x00)
    4658                      .dwattr $C$DW$302, DW_AT_TI_symbol_name("_processIn")
    4659                      .dwattr $C$DW$302, DW_AT_external
    4660                      .dwattr $C$DW$302, DW_AT_type(*$C$DW$T$79)
    4661                      .dwattr $C$DW$302, DW_AT_TI_begin_file("../c5535_bsl_revc/ezdsp5535_v1/boot_post_SDcard/boot_post/usb
    4662                      .dwattr $C$DW$302, DW_AT_TI_begin_line(0x313)
    4663                      .dwattr $C$DW$302, DW_AT_TI_begin_column(0x07)
    4664                      .dwattr $C$DW$302, DW_AT_TI_max_frame_size(0x02)
    4665                      .dwpsn  file "../c5535_bsl_revc/ezdsp5535_v1/boot_post_SDcard/boot_post/usb.c",line 788,column 1,is_s
    4666              
    4667                      .dwfde $C$DW$CIE, _processIn
    4668              ;*******************************************************************************
    4669              ;* FUNCTION NAME: processIn                                                    *
    4670              ;*                                                                             *
    4671              ;*   Function Uses Regs : T0,T1,AR0,XAR0,AR1,XAR1,AR2,AR3,XAR3,SP,CARRY,TC1,   *
    4672              ;*                        M40,SATA,SATD,RDM,FRCT,SMUL                          *
    4673              ;*   Stack Frame        : Compact (No Frame Pointer, w/ debug)                 *
    4674              ;*   Total Frame Size   : 2 words                                              *
    4675              ;*                        (2 return address/alignment)                         *
    4676              ;*   Min System Stack   : 1 word                                               *
    4677              ;*******************************************************************************
    4678 000d8c       _processIn:
    4679                      .dwcfi  cfa_offset, 1
    4680                      .dwcfi  save_reg_to_mem, 91, -1
    4681 000d8c 4EFF          AADD #-1, SP
    4682                      .dwcfi  cfa_offset, 2
    4683                      .dwpsn  file "../c5535_bsl_revc/ezdsp5535_v1/boot_post_SDcard/boot_post/usb.c",line 789,column 2,is_s
    4684 000d8e DC31          BTST #0, *(#_len), TC1 ; |789| 
         000d90 0000 
         000d92 0333-
    4685 000d94 63F4          BCC $C$L123,!TC1 ; |789| 
    4686                                                      ; branchcc occurs ; |789| 
    4687                      .dwpsn  file "../c5535_bsl_revc/ezdsp5535_v1/boot_post_SDcard/boot_post/usb.c",line 790,column 9,is_s
    4688 000d96 F731          ADD #1, *(#_len) ; |790| 
         000d98 0001 
         000d9a 0003 
         000d9c 33-  
TMS320C55x Assembler PC v4.4.1 Mon Aug 15 03:55:17 2016

Tools Copyright (c) 1996-2012 Texas Instruments Incorporated
usb.asm                                                              PAGE  115

    4689 000d9d       $C$L123:    
    4690                      .dwpsn  file "../c5535_bsl_revc/ezdsp5535_v1/boot_post_SDcard/boot_post/usb.c",line 791,column 2,is_s
    4691 000d9d 7600          MOV #64, AR2 ; |791| 
         000d9f 40A8 
    4692 000da1 A931          MOV *(#_len), AR1 ; |791| 
         000da3 0003 
         000da5 33-  
    4693 000da6 12A8          CMPU AR1 <= AR2, TC1 ; |791| 
         000da8 94   
    4694 000da9 0464          BCC $C$L124,TC1 ; |791| 
         000dab 35   
    4695                                                      ; branchcc occurs ; |791| 
    4696                      .dwpsn  file "../c5535_bsl_revc/ezdsp5535_v1/boot_post_SDcard/boot_post/usb.c",line 793,column 6,is_s
    4697 000dac ED31          MOV dbl(*(#(_hEpObjArray+4))), XAR0
         000dae 8F00 
         000db0 0004-
    4698 000db2 ED31          MOV dbl(*(#_dataReadBuffPtr)), XAR1
         000db4 9F00 
         000db6 0278-
    4699 000db8 7600          MOV #128, T1 ; |793| 
         000dba 8058 
    4700 000dbc 7600          MOV #64, T0 ; |793| 
         000dbe 4048 
    4701              $C$DW$303       .dwtag  DW_TAG_TI_branch
    4702                      .dwattr $C$DW$303, DW_AT_low_pc(0x00)
    4703                      .dwattr $C$DW$303, DW_AT_name("_USB_postTransaction")
    4704                      .dwattr $C$DW$303, DW_AT_TI_call
    4705 000dc0 6C00          CALL #_USB_postTransaction ; |793| 
         000dc2 0000!
    4706                                                      ; call occurs [#_USB_postTransaction] ; |793| 
    4707 000dc4 C431          MOV T0, *(#_status) ; |793| 
         000dc6 0000 
         000dc8 75-  
    4708                      .dwpsn  file "../c5535_bsl_revc/ezdsp5535_v1/boot_post_SDcard/boot_post/usb.c",line 794,column 6,is_s
    4709 000dc9 ED31          MOV dbl(*(#_dataReadBuffPtr)), XAR3
         000dcb BF00 
         000dcd 0278-
    4710 000dcf 1420          AADD #32, AR3 ; |794| 
         000dd1 B4   
    4711 000dd2 EB31          MOV XAR3, dbl(*(#_dataReadBuffPtr))
         000dd4 B500 
         000dd6 0278-
    4712                      .dwpsn  file "../c5535_bsl_revc/ezdsp5535_v1/boot_post_SDcard/boot_post/usb.c",line 795,column 6,is_s
    4713 000dd8 F731          SUB #64, *(#_len) ; |795| 
         000dda FFC0 
         000ddc 0003 
         000dde 33-  
    4714                      .dwpsn  file "../c5535_bsl_revc/ezdsp5535_v1/boot_post_SDcard/boot_post/usb.c",line 796,column 2,is_s
    4715 000ddf 4A21          B $C$L125 ; |796| 
    4716                                                      ; branch occurs ; |796| 
    4717 000de1       $C$L124:    
    4718                      .dwpsn  file "../c5535_bsl_revc/ezdsp5535_v1/boot_post_SDcard/boot_post/usb.c",line 799,column 6,is_s
    4719 000de1 2294          MOV AR1, T0
    4720 000de3 ED31          MOV dbl(*(#(_hEpObjArray+4))), XAR0
         000de5 8F00 
TMS320C55x Assembler PC v4.4.1 Mon Aug 15 03:55:17 2016

Tools Copyright (c) 1996-2012 Texas Instruments Incorporated
usb.asm                                                              PAGE  116

         000de7 0004-
    4721 000de9 ED31          MOV dbl(*(#_dataReadBuffPtr)), XAR1
         000deb 9F00 
         000ded 0278-
    4722 000def 7600          MOV #128, T1 ; |799| 
         000df1 8058 
    4723              $C$DW$304       .dwtag  DW_TAG_TI_branch
    4724                      .dwattr $C$DW$304, DW_AT_low_pc(0x00)
    4725                      .dwattr $C$DW$304, DW_AT_name("_USB_postTransaction")
    4726                      .dwattr $C$DW$304, DW_AT_TI_call
    4727 000df3 6C00          CALL #_USB_postTransaction ; |799| 
         000df5 0000!
    4728                                                      ; call occurs [#_USB_postTransaction] ; |799| 
    4729 000df7 C431          MOV T0, *(#_status) ; |799| 
         000df9 0000 
         000dfb 75-  
    4730                      .dwpsn  file "../c5535_bsl_revc/ezdsp5535_v1/boot_post_SDcard/boot_post/usb.c",line 800,column 6,is_s
    4731 000dfc E631          MOV #0, *(#_len) ; |800| 
         000dfe 0000 
         000e00 0333-
    4732 000e02       $C$L125:    
    4733                      .dwpsn  file "../c5535_bsl_revc/ezdsp5535_v1/boot_post_SDcard/boot_post/usb.c",line 803,column 2,is_s
    4734 000e02 3C04          MOV #0, T0
    4735                      .dwpsn  file "../c5535_bsl_revc/ezdsp5535_v1/boot_post_SDcard/boot_post/usb.c",line 804,column 1,is_s
    4736 000e04 4E01          AADD #1, SP
    4737                      .dwcfi  cfa_offset, 1
    4738              $C$DW$305       .dwtag  DW_TAG_TI_branch
    4739                      .dwattr $C$DW$305, DW_AT_low_pc(0x00)
    4740                      .dwattr $C$DW$305, DW_AT_TI_return
    4741 000e06 4804          RET
    4742                                                      ; return occurs
    4743                      .dwattr $C$DW$302, DW_AT_TI_end_file("../c5535_bsl_revc/ezdsp5535_v1/boot_post_SDcard/boot_post/usb.c
    4744                      .dwattr $C$DW$302, DW_AT_TI_end_line(0x324)
    4745                      .dwattr $C$DW$302, DW_AT_TI_end_column(0x01)
    4746                      .dwendentry
    4747                      .dwendtag $C$DW$302
    4748              
    4749              ;*******************************************************************************
    4750              ;* FAR STRINGS                                                                 *
    4751              ;*******************************************************************************
    4752 000000               .sect   ".const:.string"
    4753                      .align  2
    4754 000000 0055  $C$FSL1:        .string "USB init failed",10,0
         000001 0053 
         000002 0042 
         000003 0020 
         000004 0069 
         000005 006E 
         000006 0069 
         000007 0074 
         000008 0020 
         000009 0066 
         00000a 0061 
         00000b 0069 
         00000c 006C 
TMS320C55x Assembler PC v4.4.1 Mon Aug 15 03:55:17 2016

Tools Copyright (c) 1996-2012 Texas Instruments Incorporated
usb.asm                                                              PAGE  117

         00000d 0065 
         00000e 0064 
         00000f 000A 
         000010 0000 
    4755                      .align  2
    4756 000012 0055  $C$FSL2:        .string "USB Reset failed",10,0
         000013 0053 
         000014 0042 
         000015 0020 
         000016 0052 
         000017 0065 
         000018 0073 
         000019 0065 
         00001a 0074 
         00001b 0020 
         00001c 0066 
         00001d 0061 
         00001e 0069 
         00001f 006C 
         000020 0065 
         000021 0064 
         000022 000A 
         000023 0000 
    4757                      .align  2
    4758 000024 0055  $C$FSL3:        .string "USB End point init failed",10,0
         000025 0053 
         000026 0042 
         000027 0020 
         000028 0045 
         000029 006E 
         00002a 0064 
         00002b 0020 
         00002c 0070 
         00002d 006F 
         00002e 0069 
         00002f 006E 
         000030 0074 
         000031 0020 
         000032 0069 
         000033 006E 
         000034 0069 
         000035 0074 
         000036 0020 
         000037 0066 
         000038 0061 
         000039 0069 
         00003a 006C 
         00003b 0065 
         00003c 0064 
         00003d 000A 
         00003e 0000 
    4759                      .align  2
    4760 000040 0055  $C$FSL4:        .string "USB Set params failed",10,0
         000041 0053 
         000042 0042 
TMS320C55x Assembler PC v4.4.1 Mon Aug 15 03:55:17 2016

Tools Copyright (c) 1996-2012 Texas Instruments Incorporated
usb.asm                                                              PAGE  118

         000043 0020 
         000044 0053 
         000045 0065 
         000046 0074 
         000047 0020 
         000048 0070 
         000049 0061 
         00004a 0072 
         00004b 0061 
         00004c 006D 
         00004d 0073 
         00004e 0020 
         00004f 0066 
         000050 0061 
         000051 0069 
         000052 006C 
         000053 0065 
         000054 0064 
         000055 000A 
         000056 0000 
    4761                      .align  2
    4762 000058 0055  $C$FSL5:        .string "USB Connect failed",10,0
         000059 0053 
         00005a 0042 
         00005b 0020 
         00005c 0043 
         00005d 006F 
         00005e 006E 
         00005f 006E 
         000060 0065 
         000061 0063 
         000062 0074 
         000063 0020 
         000064 0066 
         000065 0061 
         000066 0069 
         000067 006C 
         000068 0065 
         000069 0064 
         00006a 000A 
         00006b 0000 
    4763                      .align  2
    4764 00006c 0055  $C$FSL6:        .string "USB Resume failed",10,0
         00006d 0053 
         00006e 0042 
         00006f 0020 
         000070 0052 
         000071 0065 
         000072 0073 
         000073 0075 
         000074 006D 
         000075 0065 
         000076 0020 
         000077 0066 
         000078 0061 
TMS320C55x Assembler PC v4.4.1 Mon Aug 15 03:55:17 2016

Tools Copyright (c) 1996-2012 Texas Instruments Incorporated
usb.asm                                                              PAGE  119

         000079 0069 
         00007a 006C 
         00007b 0065 
         00007c 0064 
         00007d 000A 
         00007e 0000 
    4765                      .align  2
    4766 000080 0055  $C$FSL7:        .string "USB Transaction failed",10,0
         000081 0053 
         000082 0042 
         000083 0020 
         000084 0054 
         000085 0072 
         000086 0061 
         000087 006E 
         000088 0073 
         000089 0061 
         00008a 0063 
         00008b 0074 
         00008c 0069 
         00008d 006F 
         00008e 006E 
         00008f 0020 
         000090 0066 
         000091 0061 
         000092 0069 
         000093 006C 
         000094 0065 
         000095 0064 
         000096 000A 
         000097 0000 
    4767                      .align  2
    4768 000098 0055  $C$FSL8:        .string "USB Disconnect failed",10,0
         000099 0053 
         00009a 0042 
         00009b 0020 
         00009c 0044 
         00009d 0069 
         00009e 0073 
         00009f 0063 
         0000a0 006F 
         0000a1 006E 
         0000a2 006E 
         0000a3 0065 
         0000a4 0063 
         0000a5 0074 
         0000a6 0020 
         0000a7 0066 
         0000a8 0061 
         0000a9 0069 
         0000aa 006C 
         0000ab 0065 
         0000ac 0064 
         0000ad 000A 
         0000ae 0000 
TMS320C55x Assembler PC v4.4.1 Mon Aug 15 03:55:17 2016

Tools Copyright (c) 1996-2012 Texas Instruments Incorporated
usb.asm                                                              PAGE  120

    4769                      .align  2
    4770 0000b0 0055  $C$FSL9:        .string "USB Suspend failed",10,0
         0000b1 0053 
         0000b2 0042 
         0000b3 0020 
         0000b4 0053 
         0000b5 0075 
         0000b6 0073 
         0000b7 0070 
         0000b8 0065 
         0000b9 006E 
         0000ba 0064 
         0000bb 0020 
         0000bc 0066 
         0000bd 0061 
         0000be 0069 
         0000bf 006C 
         0000c0 0065 
         0000c1 0064 
         0000c2 000A 
         0000c3 0000 
    4771                      .align  2
    4772 0000c4 000A  $C$FSL10:       .string 10,"USB SUSPEND Callback",10,0
         0000c5 0055 
         0000c6 0053 
         0000c7 0042 
         0000c8 0020 
         0000c9 0053 
         0000ca 0055 
         0000cb 0053 
         0000cc 0050 
         0000cd 0045 
         0000ce 004E 
         0000cf 0044 
         0000d0 0020 
         0000d1 0043 
         0000d2 0061 
         0000d3 006C 
         0000d4 006C 
         0000d5 0062 
         0000d6 0061 
         0000d7 0063 
         0000d8 006B 
         0000d9 000A 
         0000da 0000 
    4773                      .align  2
    4774 0000dc 000A  $C$FSL11:       .string 10,"USB Self Wakeup CallBack",10,0
         0000dd 0055 
         0000de 0053 
         0000df 0042 
         0000e0 0020 
         0000e1 0053 
         0000e2 0065 
         0000e3 006C 
         0000e4 0066 
TMS320C55x Assembler PC v4.4.1 Mon Aug 15 03:55:17 2016

Tools Copyright (c) 1996-2012 Texas Instruments Incorporated
usb.asm                                                              PAGE  121

         0000e5 0020 
         0000e6 0057 
         0000e7 0061 
         0000e8 006B 
         0000e9 0065 
         0000ea 0075 
         0000eb 0070 
         0000ec 0020 
         0000ed 0043 
         0000ee 0061 
         0000ef 006C 
         0000f0 006C 
         0000f1 0042 
         0000f2 0061 
         0000f3 0063 
         0000f4 006B 
         0000f5 000A 
         0000f6 0000 
    4775              ;******************************************************************************
    4776              ;* UNDEFINED EXTERNAL REFERENCES                                              *
    4777              ;******************************************************************************
    4778                      .global _printf
    4779                      .global _USB_init
    4780                      .global _USB_resetDev
    4781                      .global _USB_initEndptObj
    4782                      .global _USB_getSetupPacket
    4783                      .global _USB_postTransaction
    4784                      .global _USB_stallEndpt
    4785                      .global _USB_clearEndptStall
    4786                      .global _USB_getEndptStall
    4787                      .global _USB_epNumToHandle
    4788                      .global _USB_connectDev
    4789                      .global _USB_disconnectDev
    4790                      .global _USB_setRemoteWakeup
    4791                      .global _USB_getRemoteWakeupStat
    4792                      .global _USB_issueRemoteWakeup
    4793                      .global _USB_setDevAddr
    4794                      .global _USB_suspendDevice
    4795                      .global _USB_setParams
    4796                      .global _IRQ_plug
    4797                      .global _IRQ_enable
    4798                      .global _IRQ_setVecs
    4799                      .global _IRQ_globalEnable
    4800                      .global _VECSTART
    4801                      .global _usbRegisters
    4802                      .global _sysCtrlRegs
    4803                      .global _gUsbContext
    4804                      .global _memcpy
    4805              
    4806              ;*******************************************************************************
    4807              ;* TYPE INFORMATION                                                            *
    4808              ;*******************************************************************************
    4809              
    4810              $C$DW$T$72      .dwtag  DW_TAG_enumeration_type
    4811                      .dwattr $C$DW$T$72, DW_AT_byte_size(0x01)
TMS320C55x Assembler PC v4.4.1 Mon Aug 15 03:55:17 2016

Tools Copyright (c) 1996-2012 Texas Instruments Incorporated
usb.asm                                                              PAGE  122

    4812              $C$DW$306       .dwtag  DW_TAG_enumerator, DW_AT_name("CSL_USB0"), DW_AT_const_value(0x00)
    4813              $C$DW$307       .dwtag  DW_TAG_enumerator, DW_AT_name("CSL_USB1"), DW_AT_const_value(0x01)
    4814              $C$DW$308       .dwtag  DW_TAG_enumerator, DW_AT_name("CSL_USB2"), DW_AT_const_value(0x02)
    4815                      .dwendtag $C$DW$T$72
    4816              
    4817              $C$DW$T$73      .dwtag  DW_TAG_typedef, DW_AT_name("CSL_UsbDevNum")
    4818                      .dwattr $C$DW$T$73, DW_AT_type(*$C$DW$T$72)
    4819                      .dwattr $C$DW$T$73, DW_AT_language(DW_LANG_C)
    4820              
    4821              $C$DW$T$74      .dwtag  DW_TAG_enumeration_type
    4822                      .dwattr $C$DW$T$74, DW_AT_byte_size(0x01)
    4823              $C$DW$309       .dwtag  DW_TAG_enumerator, DW_AT_name("CSL_USB_OPMODE_POLLED"), DW_AT_const_value(0x00)
    4824              $C$DW$310       .dwtag  DW_TAG_enumerator, DW_AT_name("CSL_USB_OPMODE_DMA"), DW_AT_const_value(0x01)
    4825              $C$DW$311       .dwtag  DW_TAG_enumerator, DW_AT_name("CSL_USB_OPMODE_DMA_TXONLY"), DW_AT_const_value(0x02)
    4826                      .dwendtag $C$DW$T$74
    4827              
    4828              $C$DW$T$75      .dwtag  DW_TAG_typedef, DW_AT_name("CSL_UsbOpMode")
    4829                      .dwattr $C$DW$T$75, DW_AT_type(*$C$DW$T$74)
    4830                      .dwattr $C$DW$T$75, DW_AT_language(DW_LANG_C)
    4831              
    4832              $C$DW$T$91      .dwtag  DW_TAG_enumeration_type
    4833                      .dwattr $C$DW$T$91, DW_AT_byte_size(0x01)
    4834              $C$DW$312       .dwtag  DW_TAG_enumerator, DW_AT_name("CSL_USB_FALSE"), DW_AT_const_value(0x00)
    4835              $C$DW$313       .dwtag  DW_TAG_enumerator, DW_AT_name("CSL_USB_TRUE"), DW_AT_const_value(0x01)
    4836                      .dwendtag $C$DW$T$91
    4837              
    4838              $C$DW$T$92      .dwtag  DW_TAG_typedef, DW_AT_name("CSL_UsbBoolean")
    4839                      .dwattr $C$DW$T$92, DW_AT_type(*$C$DW$T$91)
    4840                      .dwattr $C$DW$T$92, DW_AT_language(DW_LANG_C)
    4841              
    4842              $C$DW$T$95      .dwtag  DW_TAG_enumeration_type
    4843                      .dwattr $C$DW$T$95, DW_AT_byte_size(0x01)
    4844              $C$DW$314       .dwtag  DW_TAG_enumerator, DW_AT_name("CSL_USB_BS_UNKNOWN_SPEED"), DW_AT_const_value(0x00)
    4845              $C$DW$315       .dwtag  DW_TAG_enumerator, DW_AT_name("CSL_USB_BS_FULL_SPEED"), DW_AT_const_value(0x02)
    4846              $C$DW$316       .dwtag  DW_TAG_enumerator, DW_AT_name("CSL_USB_BS_HIGH_SPEED"), DW_AT_const_value(0x04)
    4847                      .dwendtag $C$DW$T$95
    4848              
    4849              $C$DW$T$96      .dwtag  DW_TAG_typedef, DW_AT_name("CSL_UsbBusSpeed")
    4850                      .dwattr $C$DW$T$96, DW_AT_type(*$C$DW$T$95)
    4851                      .dwattr $C$DW$T$96, DW_AT_language(DW_LANG_C)
    4852              
    4853              $C$DW$T$97      .dwtag  DW_TAG_enumeration_type
    4854                      .dwattr $C$DW$T$97, DW_AT_byte_size(0x01)
    4855              $C$DW$317       .dwtag  DW_TAG_enumerator, DW_AT_name("CSL_USB_EP0_IDLE"), DW_AT_const_value(0x00)
    4856              $C$DW$318       .dwtag  DW_TAG_enumerator, DW_AT_name("CSL_USB_EP0_STATUS_IN"), DW_AT_const_value(0x01)
    4857              $C$DW$319       .dwtag  DW_TAG_enumerator, DW_AT_name("CSL_USB_EP0_TX"), DW_AT_const_value(0x02)
    4858              $C$DW$320       .dwtag  DW_TAG_enumerator, DW_AT_name("CSL_USB_EP0_RX"), DW_AT_const_value(0x03)
    4859                      .dwendtag $C$DW$T$97
    4860              
    4861              $C$DW$T$98      .dwtag  DW_TAG_typedef, DW_AT_name("CSL_UsbEp0State")
    4862                      .dwattr $C$DW$T$98, DW_AT_type(*$C$DW$T$97)
    4863                      .dwattr $C$DW$T$98, DW_AT_language(DW_LANG_C)
    4864              
    4865              $C$DW$T$99      .dwtag  DW_TAG_enumeration_type
    4866                      .dwattr $C$DW$T$99, DW_AT_byte_size(0x01)
TMS320C55x Assembler PC v4.4.1 Mon Aug 15 03:55:17 2016

Tools Copyright (c) 1996-2012 Texas Instruments Incorporated
usb.asm                                                              PAGE  123

    4867              $C$DW$321       .dwtag  DW_TAG_enumerator, DW_AT_name("CSL_USB_DEVICE_DETACH"), DW_AT_const_value(0x00)
    4868              $C$DW$322       .dwtag  DW_TAG_enumerator, DW_AT_name("CSL_USB_DEVICE_ATTACH"), DW_AT_const_value(0x01)
    4869                      .dwendtag $C$DW$T$99
    4870              
    4871              $C$DW$T$100     .dwtag  DW_TAG_typedef, DW_AT_name("CSL_UsbDeviceEvent")
    4872                      .dwattr $C$DW$T$100, DW_AT_type(*$C$DW$T$99)
    4873                      .dwattr $C$DW$T$100, DW_AT_language(DW_LANG_C)
    4874              
    4875              $C$DW$T$111     .dwtag  DW_TAG_enumeration_type
    4876                      .dwattr $C$DW$T$111, DW_AT_byte_size(0x01)
    4877              $C$DW$323       .dwtag  DW_TAG_enumerator, DW_AT_name("CSL_USB_OUT_EP0"), DW_AT_const_value(0x00)
    4878              $C$DW$324       .dwtag  DW_TAG_enumerator, DW_AT_name("CSL_USB_OUT_EP1"), DW_AT_const_value(0x01)
    4879              $C$DW$325       .dwtag  DW_TAG_enumerator, DW_AT_name("CSL_USB_OUT_EP2"), DW_AT_const_value(0x02)
    4880              $C$DW$326       .dwtag  DW_TAG_enumerator, DW_AT_name("CSL_USB_OUT_EP3"), DW_AT_const_value(0x03)
    4881              $C$DW$327       .dwtag  DW_TAG_enumerator, DW_AT_name("CSL_USB_OUT_EP4"), DW_AT_const_value(0x04)
    4882              $C$DW$328       .dwtag  DW_TAG_enumerator, DW_AT_name("CSL_USB_OUT_EP5"), DW_AT_const_value(0x05)
    4883              $C$DW$329       .dwtag  DW_TAG_enumerator, DW_AT_name("CSL_USB_OUT_EP6"), DW_AT_const_value(0x06)
    4884              $C$DW$330       .dwtag  DW_TAG_enumerator, DW_AT_name("CSL_USB_OUT_EP7"), DW_AT_const_value(0x07)
    4885              $C$DW$331       .dwtag  DW_TAG_enumerator, DW_AT_name("CSL_USB_IN_EP0"), DW_AT_const_value(0x08)
    4886              $C$DW$332       .dwtag  DW_TAG_enumerator, DW_AT_name("CSL_USB_IN_EP1"), DW_AT_const_value(0x09)
    4887              $C$DW$333       .dwtag  DW_TAG_enumerator, DW_AT_name("CSL_USB_IN_EP2"), DW_AT_const_value(0x0a)
    4888              $C$DW$334       .dwtag  DW_TAG_enumerator, DW_AT_name("CSL_USB_IN_EP3"), DW_AT_const_value(0x0b)
    4889              $C$DW$335       .dwtag  DW_TAG_enumerator, DW_AT_name("CSL_USB_IN_EP4"), DW_AT_const_value(0x0c)
    4890              $C$DW$336       .dwtag  DW_TAG_enumerator, DW_AT_name("CSL_USB_IN_EP5"), DW_AT_const_value(0x0d)
    4891              $C$DW$337       .dwtag  DW_TAG_enumerator, DW_AT_name("CSL_USB_IN_EP6"), DW_AT_const_value(0x0e)
    4892              $C$DW$338       .dwtag  DW_TAG_enumerator, DW_AT_name("CSL_USB_IN_EP7"), DW_AT_const_value(0x0f)
    4893                      .dwendtag $C$DW$T$111
    4894              
    4895              $C$DW$T$112     .dwtag  DW_TAG_typedef, DW_AT_name("CSL_UsbEpNum")
    4896                      .dwattr $C$DW$T$112, DW_AT_type(*$C$DW$T$111)
    4897                      .dwattr $C$DW$T$112, DW_AT_language(DW_LANG_C)
    4898              
    4899              $C$DW$T$113     .dwtag  DW_TAG_enumeration_type
    4900                      .dwattr $C$DW$T$113, DW_AT_byte_size(0x01)
    4901              $C$DW$339       .dwtag  DW_TAG_enumerator, DW_AT_name("CSL_USB_CTRL"), DW_AT_const_value(0x00)
    4902              $C$DW$340       .dwtag  DW_TAG_enumerator, DW_AT_name("CSL_USB_BULK"), DW_AT_const_value(0x01)
    4903              $C$DW$341       .dwtag  DW_TAG_enumerator, DW_AT_name("CSL_USB_INTR"), DW_AT_const_value(0x02)
    4904              $C$DW$342       .dwtag  DW_TAG_enumerator, DW_AT_name("CSL_USB_ISO"), DW_AT_const_value(0x03)
    4905              $C$DW$343       .dwtag  DW_TAG_enumerator, DW_AT_name("CSL_USB_HPORT"), DW_AT_const_value(0x04)
    4906                      .dwendtag $C$DW$T$113
    4907              
    4908              $C$DW$T$114     .dwtag  DW_TAG_typedef, DW_AT_name("CSL_UsbXferType")
    4909                      .dwattr $C$DW$T$114, DW_AT_type(*$C$DW$T$113)
    4910                      .dwattr $C$DW$T$114, DW_AT_language(DW_LANG_C)
    4911              
    4912              $C$DW$T$22      .dwtag  DW_TAG_structure_type
    4913                      .dwattr $C$DW$T$22, DW_AT_byte_size(0x08)
    4914              $C$DW$344       .dwtag  DW_TAG_member
    4915                      .dwattr $C$DW$344, DW_AT_type(*$C$DW$T$20)
    4916                      .dwattr $C$DW$344, DW_AT_name("TXFUNCADDR")
    4917                      .dwattr $C$DW$344, DW_AT_TI_symbol_name("_TXFUNCADDR")
    4918                      .dwattr $C$DW$344, DW_AT_data_member_location[DW_OP_plus_uconst 0x0]
    4919                      .dwattr $C$DW$344, DW_AT_accessibility(DW_ACCESS_public)
    4920              $C$DW$345       .dwtag  DW_TAG_member
    4921                      .dwattr $C$DW$345, DW_AT_type(*$C$DW$T$20)
TMS320C55x Assembler PC v4.4.1 Mon Aug 15 03:55:17 2016

Tools Copyright (c) 1996-2012 Texas Instruments Incorporated
usb.asm                                                              PAGE  124

    4922                      .dwattr $C$DW$345, DW_AT_name("TXHUBADDR_TXHUBPORT")
    4923                      .dwattr $C$DW$345, DW_AT_TI_symbol_name("_TXHUBADDR_TXHUBPORT")
    4924                      .dwattr $C$DW$345, DW_AT_data_member_location[DW_OP_plus_uconst 0x1]
    4925                      .dwattr $C$DW$345, DW_AT_accessibility(DW_ACCESS_public)
    4926              $C$DW$346       .dwtag  DW_TAG_member
    4927                      .dwattr $C$DW$346, DW_AT_type(*$C$DW$T$21)
    4928                      .dwattr $C$DW$346, DW_AT_name("RSVD0")
    4929                      .dwattr $C$DW$346, DW_AT_TI_symbol_name("_RSVD0")
    4930                      .dwattr $C$DW$346, DW_AT_data_member_location[DW_OP_plus_uconst 0x2]
    4931                      .dwattr $C$DW$346, DW_AT_accessibility(DW_ACCESS_public)
    4932              $C$DW$347       .dwtag  DW_TAG_member
    4933                      .dwattr $C$DW$347, DW_AT_type(*$C$DW$T$20)
    4934                      .dwattr $C$DW$347, DW_AT_name("RXFUNCADDR")
    4935                      .dwattr $C$DW$347, DW_AT_TI_symbol_name("_RXFUNCADDR")
    4936                      .dwattr $C$DW$347, DW_AT_data_member_location[DW_OP_plus_uconst 0x4]
    4937                      .dwattr $C$DW$347, DW_AT_accessibility(DW_ACCESS_public)
    4938              $C$DW$348       .dwtag  DW_TAG_member
    4939                      .dwattr $C$DW$348, DW_AT_type(*$C$DW$T$20)
    4940                      .dwattr $C$DW$348, DW_AT_name("RXHUBADDR_RXHUBPORT")
    4941                      .dwattr $C$DW$348, DW_AT_TI_symbol_name("_RXHUBADDR_RXHUBPORT")
    4942                      .dwattr $C$DW$348, DW_AT_data_member_location[DW_OP_plus_uconst 0x5]
    4943                      .dwattr $C$DW$348, DW_AT_accessibility(DW_ACCESS_public)
    4944              $C$DW$349       .dwtag  DW_TAG_member
    4945                      .dwattr $C$DW$349, DW_AT_type(*$C$DW$T$21)
    4946                      .dwattr $C$DW$349, DW_AT_name("RSVD36")
    4947                      .dwattr $C$DW$349, DW_AT_TI_symbol_name("_RSVD36")
    4948                      .dwattr $C$DW$349, DW_AT_data_member_location[DW_OP_plus_uconst 0x6]
    4949                      .dwattr $C$DW$349, DW_AT_accessibility(DW_ACCESS_public)
    4950                      .dwendtag $C$DW$T$22
    4951              
    4952              $C$DW$T$39      .dwtag  DW_TAG_typedef, DW_AT_name("CSL_UsbEptrgRegs")
    4953                      .dwattr $C$DW$T$39, DW_AT_type(*$C$DW$T$22)
    4954                      .dwattr $C$DW$T$39, DW_AT_language(DW_LANG_C)
    4955              
    4956              $C$DW$T$40      .dwtag  DW_TAG_array_type
    4957                      .dwattr $C$DW$T$40, DW_AT_type(*$C$DW$T$39)
    4958                      .dwattr $C$DW$T$40, DW_AT_language(DW_LANG_C)
    4959                      .dwattr $C$DW$T$40, DW_AT_byte_size(0x28)
    4960              $C$DW$350       .dwtag  DW_TAG_subrange_type
    4961                      .dwattr $C$DW$350, DW_AT_upper_bound(0x04)
    4962                      .dwendtag $C$DW$T$40
    4963              
    4964              
    4965              $C$DW$T$24      .dwtag  DW_TAG_structure_type
    4966                      .dwattr $C$DW$T$24, DW_AT_byte_size(0x10)
    4967              $C$DW$351       .dwtag  DW_TAG_member
    4968                      .dwattr $C$DW$351, DW_AT_type(*$C$DW$T$20)
    4969                      .dwattr $C$DW$351, DW_AT_name("TXMAXP")
    4970                      .dwattr $C$DW$351, DW_AT_TI_symbol_name("_TXMAXP")
    4971                      .dwattr $C$DW$351, DW_AT_data_member_location[DW_OP_plus_uconst 0x0]
    4972                      .dwattr $C$DW$351, DW_AT_accessibility(DW_ACCESS_public)
    4973              $C$DW$352       .dwtag  DW_TAG_member
    4974                      .dwattr $C$DW$352, DW_AT_type(*$C$DW$T$20)
    4975                      .dwattr $C$DW$352, DW_AT_name("PERI_TXCSR")
    4976                      .dwattr $C$DW$352, DW_AT_TI_symbol_name("_PERI_TXCSR")
TMS320C55x Assembler PC v4.4.1 Mon Aug 15 03:55:17 2016

Tools Copyright (c) 1996-2012 Texas Instruments Incorporated
usb.asm                                                              PAGE  125

    4977                      .dwattr $C$DW$352, DW_AT_data_member_location[DW_OP_plus_uconst 0x1]
    4978                      .dwattr $C$DW$352, DW_AT_accessibility(DW_ACCESS_public)
    4979              $C$DW$353       .dwtag  DW_TAG_member
    4980                      .dwattr $C$DW$353, DW_AT_type(*$C$DW$T$21)
    4981                      .dwattr $C$DW$353, DW_AT_name("RSVD0")
    4982                      .dwattr $C$DW$353, DW_AT_TI_symbol_name("_RSVD0")
    4983                      .dwattr $C$DW$353, DW_AT_data_member_location[DW_OP_plus_uconst 0x2]
    4984                      .dwattr $C$DW$353, DW_AT_accessibility(DW_ACCESS_public)
    4985              $C$DW$354       .dwtag  DW_TAG_member
    4986                      .dwattr $C$DW$354, DW_AT_type(*$C$DW$T$20)
    4987                      .dwattr $C$DW$354, DW_AT_name("RXMAXP")
    4988                      .dwattr $C$DW$354, DW_AT_TI_symbol_name("_RXMAXP")
    4989                      .dwattr $C$DW$354, DW_AT_data_member_location[DW_OP_plus_uconst 0x4]
    4990                      .dwattr $C$DW$354, DW_AT_accessibility(DW_ACCESS_public)
    4991              $C$DW$355       .dwtag  DW_TAG_member
    4992                      .dwattr $C$DW$355, DW_AT_type(*$C$DW$T$20)
    4993                      .dwattr $C$DW$355, DW_AT_name("PERI_RXCSR")
    4994                      .dwattr $C$DW$355, DW_AT_TI_symbol_name("_PERI_RXCSR")
    4995                      .dwattr $C$DW$355, DW_AT_data_member_location[DW_OP_plus_uconst 0x5]
    4996                      .dwattr $C$DW$355, DW_AT_accessibility(DW_ACCESS_public)
    4997              $C$DW$356       .dwtag  DW_TAG_member
    4998                      .dwattr $C$DW$356, DW_AT_type(*$C$DW$T$21)
    4999                      .dwattr $C$DW$356, DW_AT_name("RSVD1")
    5000                      .dwattr $C$DW$356, DW_AT_TI_symbol_name("_RSVD1")
    5001                      .dwattr $C$DW$356, DW_AT_data_member_location[DW_OP_plus_uconst 0x6]
    5002                      .dwattr $C$DW$356, DW_AT_accessibility(DW_ACCESS_public)
    5003              $C$DW$357       .dwtag  DW_TAG_member
    5004                      .dwattr $C$DW$357, DW_AT_type(*$C$DW$T$20)
    5005                      .dwattr $C$DW$357, DW_AT_name("RXCOUNT")
    5006                      .dwattr $C$DW$357, DW_AT_TI_symbol_name("_RXCOUNT")
    5007                      .dwattr $C$DW$357, DW_AT_data_member_location[DW_OP_plus_uconst 0x8]
    5008                      .dwattr $C$DW$357, DW_AT_accessibility(DW_ACCESS_public)
    5009              $C$DW$358       .dwtag  DW_TAG_member
    5010                      .dwattr $C$DW$358, DW_AT_type(*$C$DW$T$23)
    5011                      .dwattr $C$DW$358, DW_AT_name("RSVD41")
    5012                      .dwattr $C$DW$358, DW_AT_TI_symbol_name("_RSVD41")
    5013                      .dwattr $C$DW$358, DW_AT_data_member_location[DW_OP_plus_uconst 0x9]
    5014                      .dwattr $C$DW$358, DW_AT_accessibility(DW_ACCESS_public)
    5015                      .dwendtag $C$DW$T$24
    5016              
    5017              $C$DW$T$42      .dwtag  DW_TAG_typedef, DW_AT_name("CSL_UsbEpcsrRegs")
    5018                      .dwattr $C$DW$T$42, DW_AT_type(*$C$DW$T$24)
    5019                      .dwattr $C$DW$T$42, DW_AT_language(DW_LANG_C)
    5020              
    5021              $C$DW$T$43      .dwtag  DW_TAG_array_type
    5022                      .dwattr $C$DW$T$43, DW_AT_type(*$C$DW$T$42)
    5023                      .dwattr $C$DW$T$43, DW_AT_language(DW_LANG_C)
    5024                      .dwattr $C$DW$T$43, DW_AT_byte_size(0x40)
    5025              $C$DW$359       .dwtag  DW_TAG_subrange_type
    5026                      .dwattr $C$DW$359, DW_AT_upper_bound(0x03)
    5027                      .dwendtag $C$DW$T$43
    5028              
    5029              
    5030              $C$DW$T$27      .dwtag  DW_TAG_structure_type
    5031                      .dwattr $C$DW$T$27, DW_AT_byte_size(0x20)
TMS320C55x Assembler PC v4.4.1 Mon Aug 15 03:55:17 2016

Tools Copyright (c) 1996-2012 Texas Instruments Incorporated
usb.asm                                                              PAGE  126

    5032              $C$DW$360       .dwtag  DW_TAG_member
    5033                      .dwattr $C$DW$360, DW_AT_type(*$C$DW$T$20)
    5034                      .dwattr $C$DW$360, DW_AT_name("TXGCR1")
    5035                      .dwattr $C$DW$360, DW_AT_TI_symbol_name("_TXGCR1")
    5036                      .dwattr $C$DW$360, DW_AT_data_member_location[DW_OP_plus_uconst 0x0]
    5037                      .dwattr $C$DW$360, DW_AT_accessibility(DW_ACCESS_public)
    5038              $C$DW$361       .dwtag  DW_TAG_member
    5039                      .dwattr $C$DW$361, DW_AT_type(*$C$DW$T$20)
    5040                      .dwattr $C$DW$361, DW_AT_name("TXGCR2")
    5041                      .dwattr $C$DW$361, DW_AT_TI_symbol_name("_TXGCR2")
    5042                      .dwattr $C$DW$361, DW_AT_data_member_location[DW_OP_plus_uconst 0x1]
    5043                      .dwattr $C$DW$361, DW_AT_accessibility(DW_ACCESS_public)
    5044              $C$DW$362       .dwtag  DW_TAG_member
    5045                      .dwattr $C$DW$362, DW_AT_type(*$C$DW$T$25)
    5046                      .dwattr $C$DW$362, DW_AT_name("RSVD0")
    5047                      .dwattr $C$DW$362, DW_AT_TI_symbol_name("_RSVD0")
    5048                      .dwattr $C$DW$362, DW_AT_data_member_location[DW_OP_plus_uconst 0x2]
    5049                      .dwattr $C$DW$362, DW_AT_accessibility(DW_ACCESS_public)
    5050              $C$DW$363       .dwtag  DW_TAG_member
    5051                      .dwattr $C$DW$363, DW_AT_type(*$C$DW$T$20)
    5052                      .dwattr $C$DW$363, DW_AT_name("RXGCR1")
    5053                      .dwattr $C$DW$363, DW_AT_TI_symbol_name("_RXGCR1")
    5054                      .dwattr $C$DW$363, DW_AT_data_member_location[DW_OP_plus_uconst 0x8]
    5055                      .dwattr $C$DW$363, DW_AT_accessibility(DW_ACCESS_public)
    5056              $C$DW$364       .dwtag  DW_TAG_member
    5057                      .dwattr $C$DW$364, DW_AT_type(*$C$DW$T$20)
    5058                      .dwattr $C$DW$364, DW_AT_name("RXGCR2")
    5059                      .dwattr $C$DW$364, DW_AT_TI_symbol_name("_RXGCR2")
    5060                      .dwattr $C$DW$364, DW_AT_data_member_location[DW_OP_plus_uconst 0x9]
    5061                      .dwattr $C$DW$364, DW_AT_accessibility(DW_ACCESS_public)
    5062              $C$DW$365       .dwtag  DW_TAG_member
    5063                      .dwattr $C$DW$365, DW_AT_type(*$C$DW$T$21)
    5064                      .dwattr $C$DW$365, DW_AT_name("RSVD1")
    5065                      .dwattr $C$DW$365, DW_AT_TI_symbol_name("_RSVD1")
    5066                      .dwattr $C$DW$365, DW_AT_data_member_location[DW_OP_plus_uconst 0xa]
    5067                      .dwattr $C$DW$365, DW_AT_accessibility(DW_ACCESS_public)
    5068              $C$DW$366       .dwtag  DW_TAG_member
    5069                      .dwattr $C$DW$366, DW_AT_type(*$C$DW$T$20)
    5070                      .dwattr $C$DW$366, DW_AT_name("RXHPCR1A")
    5071                      .dwattr $C$DW$366, DW_AT_TI_symbol_name("_RXHPCR1A")
    5072                      .dwattr $C$DW$366, DW_AT_data_member_location[DW_OP_plus_uconst 0xc]
    5073                      .dwattr $C$DW$366, DW_AT_accessibility(DW_ACCESS_public)
    5074              $C$DW$367       .dwtag  DW_TAG_member
    5075                      .dwattr $C$DW$367, DW_AT_type(*$C$DW$T$20)
    5076                      .dwattr $C$DW$367, DW_AT_name("RXHPCR2A")
    5077                      .dwattr $C$DW$367, DW_AT_TI_symbol_name("_RXHPCR2A")
    5078                      .dwattr $C$DW$367, DW_AT_data_member_location[DW_OP_plus_uconst 0xd]
    5079                      .dwattr $C$DW$367, DW_AT_accessibility(DW_ACCESS_public)
    5080              $C$DW$368       .dwtag  DW_TAG_member
    5081                      .dwattr $C$DW$368, DW_AT_type(*$C$DW$T$21)
    5082                      .dwattr $C$DW$368, DW_AT_name("RSVD2")
    5083                      .dwattr $C$DW$368, DW_AT_TI_symbol_name("_RSVD2")
    5084                      .dwattr $C$DW$368, DW_AT_data_member_location[DW_OP_plus_uconst 0xe]
    5085                      .dwattr $C$DW$368, DW_AT_accessibility(DW_ACCESS_public)
    5086              $C$DW$369       .dwtag  DW_TAG_member
TMS320C55x Assembler PC v4.4.1 Mon Aug 15 03:55:17 2016

Tools Copyright (c) 1996-2012 Texas Instruments Incorporated
usb.asm                                                              PAGE  127

    5087                      .dwattr $C$DW$369, DW_AT_type(*$C$DW$T$20)
    5088                      .dwattr $C$DW$369, DW_AT_name("RXHPCR1B")
    5089                      .dwattr $C$DW$369, DW_AT_TI_symbol_name("_RXHPCR1B")
    5090                      .dwattr $C$DW$369, DW_AT_data_member_location[DW_OP_plus_uconst 0x10]
    5091                      .dwattr $C$DW$369, DW_AT_accessibility(DW_ACCESS_public)
    5092              $C$DW$370       .dwtag  DW_TAG_member
    5093                      .dwattr $C$DW$370, DW_AT_type(*$C$DW$T$20)
    5094                      .dwattr $C$DW$370, DW_AT_name("RXHPCR2B")
    5095                      .dwattr $C$DW$370, DW_AT_TI_symbol_name("_RXHPCR2B")
    5096                      .dwattr $C$DW$370, DW_AT_data_member_location[DW_OP_plus_uconst 0x11]
    5097                      .dwattr $C$DW$370, DW_AT_accessibility(DW_ACCESS_public)
    5098              $C$DW$371       .dwtag  DW_TAG_member
    5099                      .dwattr $C$DW$371, DW_AT_type(*$C$DW$T$26)
    5100                      .dwattr $C$DW$371, DW_AT_name("RSVD46")
    5101                      .dwattr $C$DW$371, DW_AT_TI_symbol_name("_RSVD46")
    5102                      .dwattr $C$DW$371, DW_AT_data_member_location[DW_OP_plus_uconst 0x12]
    5103                      .dwattr $C$DW$371, DW_AT_accessibility(DW_ACCESS_public)
    5104                      .dwendtag $C$DW$T$27
    5105              
    5106              $C$DW$T$46      .dwtag  DW_TAG_typedef, DW_AT_name("CSL_UsbChannelRegs")
    5107                      .dwattr $C$DW$T$46, DW_AT_type(*$C$DW$T$27)
    5108                      .dwattr $C$DW$T$46, DW_AT_language(DW_LANG_C)
    5109              
    5110              $C$DW$T$47      .dwtag  DW_TAG_array_type
    5111                      .dwattr $C$DW$T$47, DW_AT_type(*$C$DW$T$46)
    5112                      .dwattr $C$DW$T$47, DW_AT_language(DW_LANG_C)
    5113                      .dwattr $C$DW$T$47, DW_AT_byte_size(0x80)
    5114              $C$DW$372       .dwtag  DW_TAG_subrange_type
    5115                      .dwattr $C$DW$372, DW_AT_upper_bound(0x03)
    5116                      .dwendtag $C$DW$T$47
    5117              
    5118              
    5119              $C$DW$T$28      .dwtag  DW_TAG_structure_type
    5120                      .dwattr $C$DW$T$28, DW_AT_byte_size(0x04)
    5121              $C$DW$373       .dwtag  DW_TAG_member
    5122                      .dwattr $C$DW$373, DW_AT_type(*$C$DW$T$20)
    5123                      .dwattr $C$DW$373, DW_AT_name("ENTRYLSW")
    5124                      .dwattr $C$DW$373, DW_AT_TI_symbol_name("_ENTRYLSW")
    5125                      .dwattr $C$DW$373, DW_AT_data_member_location[DW_OP_plus_uconst 0x0]
    5126                      .dwattr $C$DW$373, DW_AT_accessibility(DW_ACCESS_public)
    5127              $C$DW$374       .dwtag  DW_TAG_member
    5128                      .dwattr $C$DW$374, DW_AT_type(*$C$DW$T$20)
    5129                      .dwattr $C$DW$374, DW_AT_name("ENTRYMSW")
    5130                      .dwattr $C$DW$374, DW_AT_TI_symbol_name("_ENTRYMSW")
    5131                      .dwattr $C$DW$374, DW_AT_data_member_location[DW_OP_plus_uconst 0x1]
    5132                      .dwattr $C$DW$374, DW_AT_accessibility(DW_ACCESS_public)
    5133              $C$DW$375       .dwtag  DW_TAG_member
    5134                      .dwattr $C$DW$375, DW_AT_type(*$C$DW$T$21)
    5135                      .dwattr $C$DW$375, DW_AT_name("RSVD49")
    5136                      .dwattr $C$DW$375, DW_AT_TI_symbol_name("_RSVD49")
    5137                      .dwattr $C$DW$375, DW_AT_data_member_location[DW_OP_plus_uconst 0x2]
    5138                      .dwattr $C$DW$375, DW_AT_accessibility(DW_ACCESS_public)
    5139                      .dwendtag $C$DW$T$28
    5140              
    5141              $C$DW$T$50      .dwtag  DW_TAG_typedef, DW_AT_name("CSL_UsbCdmaschetblwordRegs")
TMS320C55x Assembler PC v4.4.1 Mon Aug 15 03:55:17 2016

Tools Copyright (c) 1996-2012 Texas Instruments Incorporated
usb.asm                                                              PAGE  128

    5142                      .dwattr $C$DW$T$50, DW_AT_type(*$C$DW$T$28)
    5143                      .dwattr $C$DW$T$50, DW_AT_language(DW_LANG_C)
    5144              
    5145              $C$DW$T$51      .dwtag  DW_TAG_array_type
    5146                      .dwattr $C$DW$T$51, DW_AT_type(*$C$DW$T$50)
    5147                      .dwattr $C$DW$T$51, DW_AT_language(DW_LANG_C)
    5148                      .dwattr $C$DW$T$51, DW_AT_byte_size(0x100)
    5149              $C$DW$376       .dwtag  DW_TAG_subrange_type
    5150                      .dwattr $C$DW$376, DW_AT_upper_bound(0x3f)
    5151                      .dwendtag $C$DW$T$51
    5152              
    5153              
    5154              $C$DW$T$30      .dwtag  DW_TAG_structure_type
    5155                      .dwattr $C$DW$T$30, DW_AT_byte_size(0x10)
    5156              $C$DW$377       .dwtag  DW_TAG_member
    5157                      .dwattr $C$DW$377, DW_AT_type(*$C$DW$T$20)
    5158                      .dwattr $C$DW$377, DW_AT_name("QMEMRBASE1")
    5159                      .dwattr $C$DW$377, DW_AT_TI_symbol_name("_QMEMRBASE1")
    5160                      .dwattr $C$DW$377, DW_AT_data_member_location[DW_OP_plus_uconst 0x0]
    5161                      .dwattr $C$DW$377, DW_AT_accessibility(DW_ACCESS_public)
    5162              $C$DW$378       .dwtag  DW_TAG_member
    5163                      .dwattr $C$DW$378, DW_AT_type(*$C$DW$T$20)
    5164                      .dwattr $C$DW$378, DW_AT_name("QMEMRBASE2")
    5165                      .dwattr $C$DW$378, DW_AT_TI_symbol_name("_QMEMRBASE2")
    5166                      .dwattr $C$DW$378, DW_AT_data_member_location[DW_OP_plus_uconst 0x1]
    5167                      .dwattr $C$DW$378, DW_AT_accessibility(DW_ACCESS_public)
    5168              $C$DW$379       .dwtag  DW_TAG_member
    5169                      .dwattr $C$DW$379, DW_AT_type(*$C$DW$T$21)
    5170                      .dwattr $C$DW$379, DW_AT_name("RSVD0")
    5171                      .dwattr $C$DW$379, DW_AT_TI_symbol_name("_RSVD0")
    5172                      .dwattr $C$DW$379, DW_AT_data_member_location[DW_OP_plus_uconst 0x2]
    5173                      .dwattr $C$DW$379, DW_AT_accessibility(DW_ACCESS_public)
    5174              $C$DW$380       .dwtag  DW_TAG_member
    5175                      .dwattr $C$DW$380, DW_AT_type(*$C$DW$T$20)
    5176                      .dwattr $C$DW$380, DW_AT_name("QMEMRCTRL1")
    5177                      .dwattr $C$DW$380, DW_AT_TI_symbol_name("_QMEMRCTRL1")
    5178                      .dwattr $C$DW$380, DW_AT_data_member_location[DW_OP_plus_uconst 0x4]
    5179                      .dwattr $C$DW$380, DW_AT_accessibility(DW_ACCESS_public)
    5180              $C$DW$381       .dwtag  DW_TAG_member
    5181                      .dwattr $C$DW$381, DW_AT_type(*$C$DW$T$20)
    5182                      .dwattr $C$DW$381, DW_AT_name("QMEMRCTRL2")
    5183                      .dwattr $C$DW$381, DW_AT_TI_symbol_name("_QMEMRCTRL2")
    5184                      .dwattr $C$DW$381, DW_AT_data_member_location[DW_OP_plus_uconst 0x5]
    5185                      .dwattr $C$DW$381, DW_AT_accessibility(DW_ACCESS_public)
    5186              $C$DW$382       .dwtag  DW_TAG_member
    5187                      .dwattr $C$DW$382, DW_AT_type(*$C$DW$T$29)
    5188                      .dwattr $C$DW$382, DW_AT_name("RSVD63")
    5189                      .dwattr $C$DW$382, DW_AT_TI_symbol_name("_RSVD63")
    5190                      .dwattr $C$DW$382, DW_AT_data_member_location[DW_OP_plus_uconst 0x6]
    5191                      .dwattr $C$DW$382, DW_AT_accessibility(DW_ACCESS_public)
    5192                      .dwendtag $C$DW$T$30
    5193              
    5194              $C$DW$T$56      .dwtag  DW_TAG_typedef, DW_AT_name("CSL_UsbQmmemregrRegs")
    5195                      .dwattr $C$DW$T$56, DW_AT_type(*$C$DW$T$30)
    5196                      .dwattr $C$DW$T$56, DW_AT_language(DW_LANG_C)
TMS320C55x Assembler PC v4.4.1 Mon Aug 15 03:55:17 2016

Tools Copyright (c) 1996-2012 Texas Instruments Incorporated
usb.asm                                                              PAGE  129

    5197              
    5198              $C$DW$T$57      .dwtag  DW_TAG_array_type
    5199                      .dwattr $C$DW$T$57, DW_AT_type(*$C$DW$T$56)
    5200                      .dwattr $C$DW$T$57, DW_AT_language(DW_LANG_C)
    5201                      .dwattr $C$DW$T$57, DW_AT_byte_size(0x100)
    5202              $C$DW$383       .dwtag  DW_TAG_subrange_type
    5203                      .dwattr $C$DW$383, DW_AT_upper_bound(0x0f)
    5204                      .dwendtag $C$DW$T$57
    5205              
    5206              
    5207              $C$DW$T$32      .dwtag  DW_TAG_structure_type
    5208                      .dwattr $C$DW$T$32, DW_AT_byte_size(0x10)
    5209              $C$DW$384       .dwtag  DW_TAG_member
    5210                      .dwattr $C$DW$384, DW_AT_type(*$C$DW$T$31)
    5211                      .dwattr $C$DW$384, DW_AT_name("RSVD0")
    5212                      .dwattr $C$DW$384, DW_AT_TI_symbol_name("_RSVD0")
    5213                      .dwattr $C$DW$384, DW_AT_data_member_location[DW_OP_plus_uconst 0x0]
    5214                      .dwattr $C$DW$384, DW_AT_accessibility(DW_ACCESS_public)
    5215              $C$DW$385       .dwtag  DW_TAG_member
    5216                      .dwattr $C$DW$385, DW_AT_type(*$C$DW$T$20)
    5217                      .dwattr $C$DW$385, DW_AT_name("CTRL1D")
    5218                      .dwattr $C$DW$385, DW_AT_TI_symbol_name("_CTRL1D")
    5219                      .dwattr $C$DW$385, DW_AT_data_member_location[DW_OP_plus_uconst 0xc]
    5220                      .dwattr $C$DW$385, DW_AT_accessibility(DW_ACCESS_public)
    5221              $C$DW$386       .dwtag  DW_TAG_member
    5222                      .dwattr $C$DW$386, DW_AT_type(*$C$DW$T$20)
    5223                      .dwattr $C$DW$386, DW_AT_name("CTRL2D")
    5224                      .dwattr $C$DW$386, DW_AT_TI_symbol_name("_CTRL2D")
    5225                      .dwattr $C$DW$386, DW_AT_data_member_location[DW_OP_plus_uconst 0xd]
    5226                      .dwattr $C$DW$386, DW_AT_accessibility(DW_ACCESS_public)
    5227              $C$DW$387       .dwtag  DW_TAG_member
    5228                      .dwattr $C$DW$387, DW_AT_type(*$C$DW$T$21)
    5229                      .dwattr $C$DW$387, DW_AT_name("RSVD65")
    5230                      .dwattr $C$DW$387, DW_AT_TI_symbol_name("_RSVD65")
    5231                      .dwattr $C$DW$387, DW_AT_data_member_location[DW_OP_plus_uconst 0xe]
    5232                      .dwattr $C$DW$387, DW_AT_accessibility(DW_ACCESS_public)
    5233                      .dwendtag $C$DW$T$32
    5234              
    5235              $C$DW$T$59      .dwtag  DW_TAG_typedef, DW_AT_name("CSL_UsbQmqnRegs")
    5236                      .dwattr $C$DW$T$59, DW_AT_type(*$C$DW$T$32)
    5237                      .dwattr $C$DW$T$59, DW_AT_language(DW_LANG_C)
    5238              
    5239              $C$DW$T$60      .dwtag  DW_TAG_array_type
    5240                      .dwattr $C$DW$T$60, DW_AT_type(*$C$DW$T$59)
    5241                      .dwattr $C$DW$T$60, DW_AT_language(DW_LANG_C)
    5242                      .dwattr $C$DW$T$60, DW_AT_byte_size(0x400)
    5243              $C$DW$388       .dwtag  DW_TAG_subrange_type
    5244                      .dwattr $C$DW$388, DW_AT_upper_bound(0x3f)
    5245                      .dwendtag $C$DW$T$60
    5246              
    5247              
    5248              $C$DW$T$34      .dwtag  DW_TAG_structure_type
    5249                      .dwattr $C$DW$T$34, DW_AT_byte_size(0x10)
    5250              $C$DW$389       .dwtag  DW_TAG_member
    5251                      .dwattr $C$DW$389, DW_AT_type(*$C$DW$T$20)
TMS320C55x Assembler PC v4.4.1 Mon Aug 15 03:55:17 2016

Tools Copyright (c) 1996-2012 Texas Instruments Incorporated
usb.asm                                                              PAGE  130

    5252                      .dwattr $C$DW$389, DW_AT_name("QSTATA")
    5253                      .dwattr $C$DW$389, DW_AT_TI_symbol_name("_QSTATA")
    5254                      .dwattr $C$DW$389, DW_AT_data_member_location[DW_OP_plus_uconst 0x0]
    5255                      .dwattr $C$DW$389, DW_AT_accessibility(DW_ACCESS_public)
    5256              $C$DW$390       .dwtag  DW_TAG_member
    5257                      .dwattr $C$DW$390, DW_AT_type(*$C$DW$T$33)
    5258                      .dwattr $C$DW$390, DW_AT_name("RSVD0")
    5259                      .dwattr $C$DW$390, DW_AT_TI_symbol_name("_RSVD0")
    5260                      .dwattr $C$DW$390, DW_AT_data_member_location[DW_OP_plus_uconst 0x1]
    5261                      .dwattr $C$DW$390, DW_AT_accessibility(DW_ACCESS_public)
    5262              $C$DW$391       .dwtag  DW_TAG_member
    5263                      .dwattr $C$DW$391, DW_AT_type(*$C$DW$T$20)
    5264                      .dwattr $C$DW$391, DW_AT_name("QSTAT1B")
    5265                      .dwattr $C$DW$391, DW_AT_TI_symbol_name("_QSTAT1B")
    5266                      .dwattr $C$DW$391, DW_AT_data_member_location[DW_OP_plus_uconst 0x4]
    5267                      .dwattr $C$DW$391, DW_AT_accessibility(DW_ACCESS_public)
    5268              $C$DW$392       .dwtag  DW_TAG_member
    5269                      .dwattr $C$DW$392, DW_AT_type(*$C$DW$T$20)
    5270                      .dwattr $C$DW$392, DW_AT_name("QSTAT2B")
    5271                      .dwattr $C$DW$392, DW_AT_TI_symbol_name("_QSTAT2B")
    5272                      .dwattr $C$DW$392, DW_AT_data_member_location[DW_OP_plus_uconst 0x5]
    5273                      .dwattr $C$DW$392, DW_AT_accessibility(DW_ACCESS_public)
    5274              $C$DW$393       .dwtag  DW_TAG_member
    5275                      .dwattr $C$DW$393, DW_AT_type(*$C$DW$T$21)
    5276                      .dwattr $C$DW$393, DW_AT_name("RSVD1")
    5277                      .dwattr $C$DW$393, DW_AT_TI_symbol_name("_RSVD1")
    5278                      .dwattr $C$DW$393, DW_AT_data_member_location[DW_OP_plus_uconst 0x6]
    5279                      .dwattr $C$DW$393, DW_AT_accessibility(DW_ACCESS_public)
    5280              $C$DW$394       .dwtag  DW_TAG_member
    5281                      .dwattr $C$DW$394, DW_AT_type(*$C$DW$T$20)
    5282                      .dwattr $C$DW$394, DW_AT_name("QSTAT1C")
    5283                      .dwattr $C$DW$394, DW_AT_TI_symbol_name("_QSTAT1C")
    5284                      .dwattr $C$DW$394, DW_AT_data_member_location[DW_OP_plus_uconst 0x8]
    5285                      .dwattr $C$DW$394, DW_AT_accessibility(DW_ACCESS_public)
    5286              $C$DW$395       .dwtag  DW_TAG_member
    5287                      .dwattr $C$DW$395, DW_AT_type(*$C$DW$T$23)
    5288                      .dwattr $C$DW$395, DW_AT_name("RSVD67")
    5289                      .dwattr $C$DW$395, DW_AT_TI_symbol_name("_RSVD67")
    5290                      .dwattr $C$DW$395, DW_AT_data_member_location[DW_OP_plus_uconst 0x9]
    5291                      .dwattr $C$DW$395, DW_AT_accessibility(DW_ACCESS_public)
    5292                      .dwendtag $C$DW$T$34
    5293              
    5294              $C$DW$T$62      .dwtag  DW_TAG_typedef, DW_AT_name("CSL_UsbQmqnsRegs")
    5295                      .dwattr $C$DW$T$62, DW_AT_type(*$C$DW$T$34)
    5296                      .dwattr $C$DW$T$62, DW_AT_language(DW_LANG_C)
    5297              
    5298              $C$DW$T$63      .dwtag  DW_TAG_array_type
    5299                      .dwattr $C$DW$T$63, DW_AT_type(*$C$DW$T$62)
    5300                      .dwattr $C$DW$T$63, DW_AT_language(DW_LANG_C)
    5301                      .dwattr $C$DW$T$63, DW_AT_byte_size(0x400)
    5302              $C$DW$396       .dwtag  DW_TAG_subrange_type
    5303                      .dwattr $C$DW$396, DW_AT_upper_bound(0x3f)
    5304                      .dwendtag $C$DW$T$63
    5305              
    5306              
TMS320C55x Assembler PC v4.4.1 Mon Aug 15 03:55:17 2016

Tools Copyright (c) 1996-2012 Texas Instruments Incorporated
usb.asm                                                              PAGE  131

    5307              $C$DW$T$64      .dwtag  DW_TAG_structure_type
    5308                      .dwattr $C$DW$T$64, DW_AT_byte_size(0x6c00)
    5309              $C$DW$397       .dwtag  DW_TAG_member
    5310                      .dwattr $C$DW$397, DW_AT_type(*$C$DW$T$20)
    5311                      .dwattr $C$DW$397, DW_AT_name("REVID1")
    5312                      .dwattr $C$DW$397, DW_AT_TI_symbol_name("_REVID1")
    5313                      .dwattr $C$DW$397, DW_AT_data_member_location[DW_OP_plus_uconst 0x0]
    5314                      .dwattr $C$DW$397, DW_AT_accessibility(DW_ACCESS_public)
    5315              $C$DW$398       .dwtag  DW_TAG_member
    5316                      .dwattr $C$DW$398, DW_AT_type(*$C$DW$T$20)
    5317                      .dwattr $C$DW$398, DW_AT_name("REVID2")
    5318                      .dwattr $C$DW$398, DW_AT_TI_symbol_name("_REVID2")
    5319                      .dwattr $C$DW$398, DW_AT_data_member_location[DW_OP_plus_uconst 0x1]
    5320                      .dwattr $C$DW$398, DW_AT_accessibility(DW_ACCESS_public)
    5321              $C$DW$399       .dwtag  DW_TAG_member
    5322                      .dwattr $C$DW$399, DW_AT_type(*$C$DW$T$21)
    5323                      .dwattr $C$DW$399, DW_AT_name("RSVD0")
    5324                      .dwattr $C$DW$399, DW_AT_TI_symbol_name("_RSVD0")
    5325                      .dwattr $C$DW$399, DW_AT_data_member_location[DW_OP_plus_uconst 0x2]
    5326                      .dwattr $C$DW$399, DW_AT_accessibility(DW_ACCESS_public)
    5327              $C$DW$400       .dwtag  DW_TAG_member
    5328                      .dwattr $C$DW$400, DW_AT_type(*$C$DW$T$20)
    5329                      .dwattr $C$DW$400, DW_AT_name("CTRLR")
    5330                      .dwattr $C$DW$400, DW_AT_TI_symbol_name("_CTRLR")
    5331                      .dwattr $C$DW$400, DW_AT_data_member_location[DW_OP_plus_uconst 0x4]
    5332                      .dwattr $C$DW$400, DW_AT_accessibility(DW_ACCESS_public)
    5333              $C$DW$401       .dwtag  DW_TAG_member
    5334                      .dwattr $C$DW$401, DW_AT_type(*$C$DW$T$33)
    5335                      .dwattr $C$DW$401, DW_AT_name("RSVD1")
    5336                      .dwattr $C$DW$401, DW_AT_TI_symbol_name("_RSVD1")
    5337                      .dwattr $C$DW$401, DW_AT_data_member_location[DW_OP_plus_uconst 0x5]
    5338                      .dwattr $C$DW$401, DW_AT_accessibility(DW_ACCESS_public)
    5339              $C$DW$402       .dwtag  DW_TAG_member
    5340                      .dwattr $C$DW$402, DW_AT_type(*$C$DW$T$20)
    5341                      .dwattr $C$DW$402, DW_AT_name("STATR")
    5342                      .dwattr $C$DW$402, DW_AT_TI_symbol_name("_STATR")
    5343                      .dwattr $C$DW$402, DW_AT_data_member_location[DW_OP_plus_uconst 0x8]
    5344                      .dwattr $C$DW$402, DW_AT_accessibility(DW_ACCESS_public)
    5345              $C$DW$403       .dwtag  DW_TAG_member
    5346                      .dwattr $C$DW$403, DW_AT_type(*$C$DW$T$33)
    5347                      .dwattr $C$DW$403, DW_AT_name("RSVD2")
    5348                      .dwattr $C$DW$403, DW_AT_TI_symbol_name("_RSVD2")
    5349                      .dwattr $C$DW$403, DW_AT_data_member_location[DW_OP_plus_uconst 0x9]
    5350                      .dwattr $C$DW$403, DW_AT_accessibility(DW_ACCESS_public)
    5351              $C$DW$404       .dwtag  DW_TAG_member
    5352                      .dwattr $C$DW$404, DW_AT_type(*$C$DW$T$20)
    5353                      .dwattr $C$DW$404, DW_AT_name("EMUR")
    5354                      .dwattr $C$DW$404, DW_AT_TI_symbol_name("_EMUR")
    5355                      .dwattr $C$DW$404, DW_AT_data_member_location[DW_OP_plus_uconst 0xc]
    5356                      .dwattr $C$DW$404, DW_AT_accessibility(DW_ACCESS_public)
    5357              $C$DW$405       .dwtag  DW_TAG_member
    5358                      .dwattr $C$DW$405, DW_AT_type(*$C$DW$T$33)
    5359                      .dwattr $C$DW$405, DW_AT_name("RSVD3")
    5360                      .dwattr $C$DW$405, DW_AT_TI_symbol_name("_RSVD3")
    5361                      .dwattr $C$DW$405, DW_AT_data_member_location[DW_OP_plus_uconst 0xd]
TMS320C55x Assembler PC v4.4.1 Mon Aug 15 03:55:17 2016

Tools Copyright (c) 1996-2012 Texas Instruments Incorporated
usb.asm                                                              PAGE  132

    5362                      .dwattr $C$DW$405, DW_AT_accessibility(DW_ACCESS_public)
    5363              $C$DW$406       .dwtag  DW_TAG_member
    5364                      .dwattr $C$DW$406, DW_AT_type(*$C$DW$T$20)
    5365                      .dwattr $C$DW$406, DW_AT_name("MODE1")
    5366                      .dwattr $C$DW$406, DW_AT_TI_symbol_name("_MODE1")
    5367                      .dwattr $C$DW$406, DW_AT_data_member_location[DW_OP_plus_uconst 0x10]
    5368                      .dwattr $C$DW$406, DW_AT_accessibility(DW_ACCESS_public)
    5369              $C$DW$407       .dwtag  DW_TAG_member
    5370                      .dwattr $C$DW$407, DW_AT_type(*$C$DW$T$20)
    5371                      .dwattr $C$DW$407, DW_AT_name("MODE2")
    5372                      .dwattr $C$DW$407, DW_AT_TI_symbol_name("_MODE2")
    5373                      .dwattr $C$DW$407, DW_AT_data_member_location[DW_OP_plus_uconst 0x11]
    5374                      .dwattr $C$DW$407, DW_AT_accessibility(DW_ACCESS_public)
    5375              $C$DW$408       .dwtag  DW_TAG_member
    5376                      .dwattr $C$DW$408, DW_AT_type(*$C$DW$T$21)
    5377                      .dwattr $C$DW$408, DW_AT_name("RSVD4")
    5378                      .dwattr $C$DW$408, DW_AT_TI_symbol_name("_RSVD4")
    5379                      .dwattr $C$DW$408, DW_AT_data_member_location[DW_OP_plus_uconst 0x12]
    5380                      .dwattr $C$DW$408, DW_AT_accessibility(DW_ACCESS_public)
    5381              $C$DW$409       .dwtag  DW_TAG_member
    5382                      .dwattr $C$DW$409, DW_AT_type(*$C$DW$T$20)
    5383                      .dwattr $C$DW$409, DW_AT_name("AUTOREQ")
    5384                      .dwattr $C$DW$409, DW_AT_TI_symbol_name("_AUTOREQ")
    5385                      .dwattr $C$DW$409, DW_AT_data_member_location[DW_OP_plus_uconst 0x14]
    5386                      .dwattr $C$DW$409, DW_AT_accessibility(DW_ACCESS_public)
    5387              $C$DW$410       .dwtag  DW_TAG_member
    5388                      .dwattr $C$DW$410, DW_AT_type(*$C$DW$T$33)
    5389                      .dwattr $C$DW$410, DW_AT_name("RSVD5")
    5390                      .dwattr $C$DW$410, DW_AT_TI_symbol_name("_RSVD5")
    5391                      .dwattr $C$DW$410, DW_AT_data_member_location[DW_OP_plus_uconst 0x15]
    5392                      .dwattr $C$DW$410, DW_AT_accessibility(DW_ACCESS_public)
    5393              $C$DW$411       .dwtag  DW_TAG_member
    5394                      .dwattr $C$DW$411, DW_AT_type(*$C$DW$T$20)
    5395                      .dwattr $C$DW$411, DW_AT_name("SPRFIXTIME1")
    5396                      .dwattr $C$DW$411, DW_AT_TI_symbol_name("_SPRFIXTIME1")
    5397                      .dwattr $C$DW$411, DW_AT_data_member_location[DW_OP_plus_uconst 0x18]
    5398                      .dwattr $C$DW$411, DW_AT_accessibility(DW_ACCESS_public)
    5399              $C$DW$412       .dwtag  DW_TAG_member
    5400                      .dwattr $C$DW$412, DW_AT_type(*$C$DW$T$20)
    5401                      .dwattr $C$DW$412, DW_AT_name("SPRFIXTIME2")
    5402                      .dwattr $C$DW$412, DW_AT_TI_symbol_name("_SPRFIXTIME2")
    5403                      .dwattr $C$DW$412, DW_AT_data_member_location[DW_OP_plus_uconst 0x19]
    5404                      .dwattr $C$DW$412, DW_AT_accessibility(DW_ACCESS_public)
    5405              $C$DW$413       .dwtag  DW_TAG_member
    5406                      .dwattr $C$DW$413, DW_AT_type(*$C$DW$T$21)
    5407                      .dwattr $C$DW$413, DW_AT_name("RSVD6")
    5408                      .dwattr $C$DW$413, DW_AT_TI_symbol_name("_RSVD6")
    5409                      .dwattr $C$DW$413, DW_AT_data_member_location[DW_OP_plus_uconst 0x1a]
    5410                      .dwattr $C$DW$413, DW_AT_accessibility(DW_ACCESS_public)
    5411              $C$DW$414       .dwtag  DW_TAG_member
    5412                      .dwattr $C$DW$414, DW_AT_type(*$C$DW$T$20)
    5413                      .dwattr $C$DW$414, DW_AT_name("TEARDOWN1")
    5414                      .dwattr $C$DW$414, DW_AT_TI_symbol_name("_TEARDOWN1")
    5415                      .dwattr $C$DW$414, DW_AT_data_member_location[DW_OP_plus_uconst 0x1c]
    5416                      .dwattr $C$DW$414, DW_AT_accessibility(DW_ACCESS_public)
TMS320C55x Assembler PC v4.4.1 Mon Aug 15 03:55:17 2016

Tools Copyright (c) 1996-2012 Texas Instruments Incorporated
usb.asm                                                              PAGE  133

    5417              $C$DW$415       .dwtag  DW_TAG_member
    5418                      .dwattr $C$DW$415, DW_AT_type(*$C$DW$T$20)
    5419                      .dwattr $C$DW$415, DW_AT_name("TEARDOWN2")
    5420                      .dwattr $C$DW$415, DW_AT_TI_symbol_name("_TEARDOWN2")
    5421                      .dwattr $C$DW$415, DW_AT_data_member_location[DW_OP_plus_uconst 0x1d]
    5422                      .dwattr $C$DW$415, DW_AT_accessibility(DW_ACCESS_public)
    5423              $C$DW$416       .dwtag  DW_TAG_member
    5424                      .dwattr $C$DW$416, DW_AT_type(*$C$DW$T$21)
    5425                      .dwattr $C$DW$416, DW_AT_name("RSVD7")
    5426                      .dwattr $C$DW$416, DW_AT_TI_symbol_name("_RSVD7")
    5427                      .dwattr $C$DW$416, DW_AT_data_member_location[DW_OP_plus_uconst 0x1e]
    5428                      .dwattr $C$DW$416, DW_AT_accessibility(DW_ACCESS_public)
    5429              $C$DW$417       .dwtag  DW_TAG_member
    5430                      .dwattr $C$DW$417, DW_AT_type(*$C$DW$T$20)
    5431                      .dwattr $C$DW$417, DW_AT_name("INTSRCR1")
    5432                      .dwattr $C$DW$417, DW_AT_TI_symbol_name("_INTSRCR1")
    5433                      .dwattr $C$DW$417, DW_AT_data_member_location[DW_OP_plus_uconst 0x20]
    5434                      .dwattr $C$DW$417, DW_AT_accessibility(DW_ACCESS_public)
    5435              $C$DW$418       .dwtag  DW_TAG_member
    5436                      .dwattr $C$DW$418, DW_AT_type(*$C$DW$T$20)
    5437                      .dwattr $C$DW$418, DW_AT_name("INTSRCR2")
    5438                      .dwattr $C$DW$418, DW_AT_TI_symbol_name("_INTSRCR2")
    5439                      .dwattr $C$DW$418, DW_AT_data_member_location[DW_OP_plus_uconst 0x21]
    5440                      .dwattr $C$DW$418, DW_AT_accessibility(DW_ACCESS_public)
    5441              $C$DW$419       .dwtag  DW_TAG_member
    5442                      .dwattr $C$DW$419, DW_AT_type(*$C$DW$T$21)
    5443                      .dwattr $C$DW$419, DW_AT_name("RSVD8")
    5444                      .dwattr $C$DW$419, DW_AT_TI_symbol_name("_RSVD8")
    5445                      .dwattr $C$DW$419, DW_AT_data_member_location[DW_OP_plus_uconst 0x22]
    5446                      .dwattr $C$DW$419, DW_AT_accessibility(DW_ACCESS_public)
    5447              $C$DW$420       .dwtag  DW_TAG_member
    5448                      .dwattr $C$DW$420, DW_AT_type(*$C$DW$T$20)
    5449                      .dwattr $C$DW$420, DW_AT_name("INTSETR1")
    5450                      .dwattr $C$DW$420, DW_AT_TI_symbol_name("_INTSETR1")
    5451                      .dwattr $C$DW$420, DW_AT_data_member_location[DW_OP_plus_uconst 0x24]
    5452                      .dwattr $C$DW$420, DW_AT_accessibility(DW_ACCESS_public)
    5453              $C$DW$421       .dwtag  DW_TAG_member
    5454                      .dwattr $C$DW$421, DW_AT_type(*$C$DW$T$20)
    5455                      .dwattr $C$DW$421, DW_AT_name("INTSETR2")
    5456                      .dwattr $C$DW$421, DW_AT_TI_symbol_name("_INTSETR2")
    5457                      .dwattr $C$DW$421, DW_AT_data_member_location[DW_OP_plus_uconst 0x25]
    5458                      .dwattr $C$DW$421, DW_AT_accessibility(DW_ACCESS_public)
    5459              $C$DW$422       .dwtag  DW_TAG_member
    5460                      .dwattr $C$DW$422, DW_AT_type(*$C$DW$T$21)
    5461                      .dwattr $C$DW$422, DW_AT_name("RSVD9")
    5462                      .dwattr $C$DW$422, DW_AT_TI_symbol_name("_RSVD9")
    5463                      .dwattr $C$DW$422, DW_AT_data_member_location[DW_OP_plus_uconst 0x26]
    5464                      .dwattr $C$DW$422, DW_AT_accessibility(DW_ACCESS_public)
    5465              $C$DW$423       .dwtag  DW_TAG_member
    5466                      .dwattr $C$DW$423, DW_AT_type(*$C$DW$T$20)
    5467                      .dwattr $C$DW$423, DW_AT_name("INTCLRR1")
    5468                      .dwattr $C$DW$423, DW_AT_TI_symbol_name("_INTCLRR1")
    5469                      .dwattr $C$DW$423, DW_AT_data_member_location[DW_OP_plus_uconst 0x28]
    5470                      .dwattr $C$DW$423, DW_AT_accessibility(DW_ACCESS_public)
    5471              $C$DW$424       .dwtag  DW_TAG_member
TMS320C55x Assembler PC v4.4.1 Mon Aug 15 03:55:17 2016

Tools Copyright (c) 1996-2012 Texas Instruments Incorporated
usb.asm                                                              PAGE  134

    5472                      .dwattr $C$DW$424, DW_AT_type(*$C$DW$T$20)
    5473                      .dwattr $C$DW$424, DW_AT_name("INTCLRR2")
    5474                      .dwattr $C$DW$424, DW_AT_TI_symbol_name("_INTCLRR2")
    5475                      .dwattr $C$DW$424, DW_AT_data_member_location[DW_OP_plus_uconst 0x29]
    5476                      .dwattr $C$DW$424, DW_AT_accessibility(DW_ACCESS_public)
    5477              $C$DW$425       .dwtag  DW_TAG_member
    5478                      .dwattr $C$DW$425, DW_AT_type(*$C$DW$T$21)
    5479                      .dwattr $C$DW$425, DW_AT_name("RSVD10")
    5480                      .dwattr $C$DW$425, DW_AT_TI_symbol_name("_RSVD10")
    5481                      .dwattr $C$DW$425, DW_AT_data_member_location[DW_OP_plus_uconst 0x2a]
    5482                      .dwattr $C$DW$425, DW_AT_accessibility(DW_ACCESS_public)
    5483              $C$DW$426       .dwtag  DW_TAG_member
    5484                      .dwattr $C$DW$426, DW_AT_type(*$C$DW$T$20)
    5485                      .dwattr $C$DW$426, DW_AT_name("INTMSKR1")
    5486                      .dwattr $C$DW$426, DW_AT_TI_symbol_name("_INTMSKR1")
    5487                      .dwattr $C$DW$426, DW_AT_data_member_location[DW_OP_plus_uconst 0x2c]
    5488                      .dwattr $C$DW$426, DW_AT_accessibility(DW_ACCESS_public)
    5489              $C$DW$427       .dwtag  DW_TAG_member
    5490                      .dwattr $C$DW$427, DW_AT_type(*$C$DW$T$20)
    5491                      .dwattr $C$DW$427, DW_AT_name("INTMSKR2")
    5492                      .dwattr $C$DW$427, DW_AT_TI_symbol_name("_INTMSKR2")
    5493                      .dwattr $C$DW$427, DW_AT_data_member_location[DW_OP_plus_uconst 0x2d]
    5494                      .dwattr $C$DW$427, DW_AT_accessibility(DW_ACCESS_public)
    5495              $C$DW$428       .dwtag  DW_TAG_member
    5496                      .dwattr $C$DW$428, DW_AT_type(*$C$DW$T$21)
    5497                      .dwattr $C$DW$428, DW_AT_name("RSVD11")
    5498                      .dwattr $C$DW$428, DW_AT_TI_symbol_name("_RSVD11")
    5499                      .dwattr $C$DW$428, DW_AT_data_member_location[DW_OP_plus_uconst 0x2e]
    5500                      .dwattr $C$DW$428, DW_AT_accessibility(DW_ACCESS_public)
    5501              $C$DW$429       .dwtag  DW_TAG_member
    5502                      .dwattr $C$DW$429, DW_AT_type(*$C$DW$T$20)
    5503                      .dwattr $C$DW$429, DW_AT_name("INTMSKSETR1")
    5504                      .dwattr $C$DW$429, DW_AT_TI_symbol_name("_INTMSKSETR1")
    5505                      .dwattr $C$DW$429, DW_AT_data_member_location[DW_OP_plus_uconst 0x30]
    5506                      .dwattr $C$DW$429, DW_AT_accessibility(DW_ACCESS_public)
    5507              $C$DW$430       .dwtag  DW_TAG_member
    5508                      .dwattr $C$DW$430, DW_AT_type(*$C$DW$T$20)
    5509                      .dwattr $C$DW$430, DW_AT_name("INTMSKSETR2")
    5510                      .dwattr $C$DW$430, DW_AT_TI_symbol_name("_INTMSKSETR2")
    5511                      .dwattr $C$DW$430, DW_AT_data_member_location[DW_OP_plus_uconst 0x31]
    5512                      .dwattr $C$DW$430, DW_AT_accessibility(DW_ACCESS_public)
    5513              $C$DW$431       .dwtag  DW_TAG_member
    5514                      .dwattr $C$DW$431, DW_AT_type(*$C$DW$T$21)
    5515                      .dwattr $C$DW$431, DW_AT_name("RSVD12")
    5516                      .dwattr $C$DW$431, DW_AT_TI_symbol_name("_RSVD12")
    5517                      .dwattr $C$DW$431, DW_AT_data_member_location[DW_OP_plus_uconst 0x32]
    5518                      .dwattr $C$DW$431, DW_AT_accessibility(DW_ACCESS_public)
    5519              $C$DW$432       .dwtag  DW_TAG_member
    5520                      .dwattr $C$DW$432, DW_AT_type(*$C$DW$T$20)
    5521                      .dwattr $C$DW$432, DW_AT_name("INTMSKCLRR1")
    5522                      .dwattr $C$DW$432, DW_AT_TI_symbol_name("_INTMSKCLRR1")
    5523                      .dwattr $C$DW$432, DW_AT_data_member_location[DW_OP_plus_uconst 0x34]
    5524                      .dwattr $C$DW$432, DW_AT_accessibility(DW_ACCESS_public)
    5525              $C$DW$433       .dwtag  DW_TAG_member
    5526                      .dwattr $C$DW$433, DW_AT_type(*$C$DW$T$20)
TMS320C55x Assembler PC v4.4.1 Mon Aug 15 03:55:17 2016

Tools Copyright (c) 1996-2012 Texas Instruments Incorporated
usb.asm                                                              PAGE  135

    5527                      .dwattr $C$DW$433, DW_AT_name("INTMSKCLRR2")
    5528                      .dwattr $C$DW$433, DW_AT_TI_symbol_name("_INTMSKCLRR2")
    5529                      .dwattr $C$DW$433, DW_AT_data_member_location[DW_OP_plus_uconst 0x35]
    5530                      .dwattr $C$DW$433, DW_AT_accessibility(DW_ACCESS_public)
    5531              $C$DW$434       .dwtag  DW_TAG_member
    5532                      .dwattr $C$DW$434, DW_AT_type(*$C$DW$T$21)
    5533                      .dwattr $C$DW$434, DW_AT_name("RSVD13")
    5534                      .dwattr $C$DW$434, DW_AT_TI_symbol_name("_RSVD13")
    5535                      .dwattr $C$DW$434, DW_AT_data_member_location[DW_OP_plus_uconst 0x36]
    5536                      .dwattr $C$DW$434, DW_AT_accessibility(DW_ACCESS_public)
    5537              $C$DW$435       .dwtag  DW_TAG_member
    5538                      .dwattr $C$DW$435, DW_AT_type(*$C$DW$T$20)
    5539                      .dwattr $C$DW$435, DW_AT_name("INTMASKEDR1")
    5540                      .dwattr $C$DW$435, DW_AT_TI_symbol_name("_INTMASKEDR1")
    5541                      .dwattr $C$DW$435, DW_AT_data_member_location[DW_OP_plus_uconst 0x38]
    5542                      .dwattr $C$DW$435, DW_AT_accessibility(DW_ACCESS_public)
    5543              $C$DW$436       .dwtag  DW_TAG_member
    5544                      .dwattr $C$DW$436, DW_AT_type(*$C$DW$T$20)
    5545                      .dwattr $C$DW$436, DW_AT_name("INTMASKEDR2")
    5546                      .dwattr $C$DW$436, DW_AT_TI_symbol_name("_INTMASKEDR2")
    5547                      .dwattr $C$DW$436, DW_AT_data_member_location[DW_OP_plus_uconst 0x39]
    5548                      .dwattr $C$DW$436, DW_AT_accessibility(DW_ACCESS_public)
    5549              $C$DW$437       .dwtag  DW_TAG_member
    5550                      .dwattr $C$DW$437, DW_AT_type(*$C$DW$T$21)
    5551                      .dwattr $C$DW$437, DW_AT_name("RSVD14")
    5552                      .dwattr $C$DW$437, DW_AT_TI_symbol_name("_RSVD14")
    5553                      .dwattr $C$DW$437, DW_AT_data_member_location[DW_OP_plus_uconst 0x3a]
    5554                      .dwattr $C$DW$437, DW_AT_accessibility(DW_ACCESS_public)
    5555              $C$DW$438       .dwtag  DW_TAG_member
    5556                      .dwattr $C$DW$438, DW_AT_type(*$C$DW$T$20)
    5557                      .dwattr $C$DW$438, DW_AT_name("EOIR")
    5558                      .dwattr $C$DW$438, DW_AT_TI_symbol_name("_EOIR")
    5559                      .dwattr $C$DW$438, DW_AT_data_member_location[DW_OP_plus_uconst 0x3c]
    5560                      .dwattr $C$DW$438, DW_AT_accessibility(DW_ACCESS_public)
    5561              $C$DW$439       .dwtag  DW_TAG_member
    5562                      .dwattr $C$DW$439, DW_AT_type(*$C$DW$T$33)
    5563                      .dwattr $C$DW$439, DW_AT_name("RSVD15")
    5564                      .dwattr $C$DW$439, DW_AT_TI_symbol_name("_RSVD15")
    5565                      .dwattr $C$DW$439, DW_AT_data_member_location[DW_OP_plus_uconst 0x3d]
    5566                      .dwattr $C$DW$439, DW_AT_accessibility(DW_ACCESS_public)
    5567              $C$DW$440       .dwtag  DW_TAG_member
    5568                      .dwattr $C$DW$440, DW_AT_type(*$C$DW$T$20)
    5569                      .dwattr $C$DW$440, DW_AT_name("INTVECTR1")
    5570                      .dwattr $C$DW$440, DW_AT_TI_symbol_name("_INTVECTR1")
    5571                      .dwattr $C$DW$440, DW_AT_data_member_location[DW_OP_plus_uconst 0x40]
    5572                      .dwattr $C$DW$440, DW_AT_accessibility(DW_ACCESS_public)
    5573              $C$DW$441       .dwtag  DW_TAG_member
    5574                      .dwattr $C$DW$441, DW_AT_type(*$C$DW$T$20)
    5575                      .dwattr $C$DW$441, DW_AT_name("INTVECTR2")
    5576                      .dwattr $C$DW$441, DW_AT_TI_symbol_name("_INTVECTR2")
    5577                      .dwattr $C$DW$441, DW_AT_data_member_location[DW_OP_plus_uconst 0x41]
    5578                      .dwattr $C$DW$441, DW_AT_accessibility(DW_ACCESS_public)
    5579              $C$DW$442       .dwtag  DW_TAG_member
    5580                      .dwattr $C$DW$442, DW_AT_type(*$C$DW$T$26)
    5581                      .dwattr $C$DW$442, DW_AT_name("RSVD16")
TMS320C55x Assembler PC v4.4.1 Mon Aug 15 03:55:17 2016

Tools Copyright (c) 1996-2012 Texas Instruments Incorporated
usb.asm                                                              PAGE  136

    5582                      .dwattr $C$DW$442, DW_AT_TI_symbol_name("_RSVD16")
    5583                      .dwattr $C$DW$442, DW_AT_data_member_location[DW_OP_plus_uconst 0x42]
    5584                      .dwattr $C$DW$442, DW_AT_accessibility(DW_ACCESS_public)
    5585              $C$DW$443       .dwtag  DW_TAG_member
    5586                      .dwattr $C$DW$443, DW_AT_type(*$C$DW$T$20)
    5587                      .dwattr $C$DW$443, DW_AT_name("GREP1SZR1")
    5588                      .dwattr $C$DW$443, DW_AT_TI_symbol_name("_GREP1SZR1")
    5589                      .dwattr $C$DW$443, DW_AT_data_member_location[DW_OP_plus_uconst 0x50]
    5590                      .dwattr $C$DW$443, DW_AT_accessibility(DW_ACCESS_public)
    5591              $C$DW$444       .dwtag  DW_TAG_member
    5592                      .dwattr $C$DW$444, DW_AT_type(*$C$DW$T$20)
    5593                      .dwattr $C$DW$444, DW_AT_name("GREP1SZR2")
    5594                      .dwattr $C$DW$444, DW_AT_TI_symbol_name("_GREP1SZR2")
    5595                      .dwattr $C$DW$444, DW_AT_data_member_location[DW_OP_plus_uconst 0x51]
    5596                      .dwattr $C$DW$444, DW_AT_accessibility(DW_ACCESS_public)
    5597              $C$DW$445       .dwtag  DW_TAG_member
    5598                      .dwattr $C$DW$445, DW_AT_type(*$C$DW$T$21)
    5599                      .dwattr $C$DW$445, DW_AT_name("RSVD17")
    5600                      .dwattr $C$DW$445, DW_AT_TI_symbol_name("_RSVD17")
    5601                      .dwattr $C$DW$445, DW_AT_data_member_location[DW_OP_plus_uconst 0x52]
    5602                      .dwattr $C$DW$445, DW_AT_accessibility(DW_ACCESS_public)
    5603              $C$DW$446       .dwtag  DW_TAG_member
    5604                      .dwattr $C$DW$446, DW_AT_type(*$C$DW$T$20)
    5605                      .dwattr $C$DW$446, DW_AT_name("GREP2SZR1")
    5606                      .dwattr $C$DW$446, DW_AT_TI_symbol_name("_GREP2SZR1")
    5607                      .dwattr $C$DW$446, DW_AT_data_member_location[DW_OP_plus_uconst 0x54]
    5608                      .dwattr $C$DW$446, DW_AT_accessibility(DW_ACCESS_public)
    5609              $C$DW$447       .dwtag  DW_TAG_member
    5610                      .dwattr $C$DW$447, DW_AT_type(*$C$DW$T$20)
    5611                      .dwattr $C$DW$447, DW_AT_name("GREP2SZR2")
    5612                      .dwattr $C$DW$447, DW_AT_TI_symbol_name("_GREP2SZR2")
    5613                      .dwattr $C$DW$447, DW_AT_data_member_location[DW_OP_plus_uconst 0x55]
    5614                      .dwattr $C$DW$447, DW_AT_accessibility(DW_ACCESS_public)
    5615              $C$DW$448       .dwtag  DW_TAG_member
    5616                      .dwattr $C$DW$448, DW_AT_type(*$C$DW$T$21)
    5617                      .dwattr $C$DW$448, DW_AT_name("RSVD18")
    5618                      .dwattr $C$DW$448, DW_AT_TI_symbol_name("_RSVD18")
    5619                      .dwattr $C$DW$448, DW_AT_data_member_location[DW_OP_plus_uconst 0x56]
    5620                      .dwattr $C$DW$448, DW_AT_accessibility(DW_ACCESS_public)
    5621              $C$DW$449       .dwtag  DW_TAG_member
    5622                      .dwattr $C$DW$449, DW_AT_type(*$C$DW$T$20)
    5623                      .dwattr $C$DW$449, DW_AT_name("GREP3SZR1")
    5624                      .dwattr $C$DW$449, DW_AT_TI_symbol_name("_GREP3SZR1")
    5625                      .dwattr $C$DW$449, DW_AT_data_member_location[DW_OP_plus_uconst 0x58]
    5626                      .dwattr $C$DW$449, DW_AT_accessibility(DW_ACCESS_public)
    5627              $C$DW$450       .dwtag  DW_TAG_member
    5628                      .dwattr $C$DW$450, DW_AT_type(*$C$DW$T$20)
    5629                      .dwattr $C$DW$450, DW_AT_name("GREP3SZR2")
    5630                      .dwattr $C$DW$450, DW_AT_TI_symbol_name("_GREP3SZR2")
    5631                      .dwattr $C$DW$450, DW_AT_data_member_location[DW_OP_plus_uconst 0x59]
    5632                      .dwattr $C$DW$450, DW_AT_accessibility(DW_ACCESS_public)
    5633              $C$DW$451       .dwtag  DW_TAG_member
    5634                      .dwattr $C$DW$451, DW_AT_type(*$C$DW$T$21)
    5635                      .dwattr $C$DW$451, DW_AT_name("RSVD19")
    5636                      .dwattr $C$DW$451, DW_AT_TI_symbol_name("_RSVD19")
TMS320C55x Assembler PC v4.4.1 Mon Aug 15 03:55:17 2016

Tools Copyright (c) 1996-2012 Texas Instruments Incorporated
usb.asm                                                              PAGE  137

    5637                      .dwattr $C$DW$451, DW_AT_data_member_location[DW_OP_plus_uconst 0x5a]
    5638                      .dwattr $C$DW$451, DW_AT_accessibility(DW_ACCESS_public)
    5639              $C$DW$452       .dwtag  DW_TAG_member
    5640                      .dwattr $C$DW$452, DW_AT_type(*$C$DW$T$20)
    5641                      .dwattr $C$DW$452, DW_AT_name("GREP4SZR1")
    5642                      .dwattr $C$DW$452, DW_AT_TI_symbol_name("_GREP4SZR1")
    5643                      .dwattr $C$DW$452, DW_AT_data_member_location[DW_OP_plus_uconst 0x5c]
    5644                      .dwattr $C$DW$452, DW_AT_accessibility(DW_ACCESS_public)
    5645              $C$DW$453       .dwtag  DW_TAG_member
    5646                      .dwattr $C$DW$453, DW_AT_type(*$C$DW$T$20)
    5647                      .dwattr $C$DW$453, DW_AT_name("GREP4SZR2")
    5648                      .dwattr $C$DW$453, DW_AT_TI_symbol_name("_GREP4SZR2")
    5649                      .dwattr $C$DW$453, DW_AT_data_member_location[DW_OP_plus_uconst 0x5d]
    5650                      .dwattr $C$DW$453, DW_AT_accessibility(DW_ACCESS_public)
    5651              $C$DW$454       .dwtag  DW_TAG_member
    5652                      .dwattr $C$DW$454, DW_AT_type(*$C$DW$T$35)
    5653                      .dwattr $C$DW$454, DW_AT_name("RSVD20")
    5654                      .dwattr $C$DW$454, DW_AT_TI_symbol_name("_RSVD20")
    5655                      .dwattr $C$DW$454, DW_AT_data_member_location[DW_OP_plus_uconst 0x5e]
    5656                      .dwattr $C$DW$454, DW_AT_accessibility(DW_ACCESS_public)
    5657              $C$DW$455       .dwtag  DW_TAG_member
    5658                      .dwattr $C$DW$455, DW_AT_type(*$C$DW$T$20)
    5659                      .dwattr $C$DW$455, DW_AT_name("FADDR_POWER")
    5660                      .dwattr $C$DW$455, DW_AT_TI_symbol_name("_FADDR_POWER")
    5661                      .dwattr $C$DW$455, DW_AT_data_member_location[DW_OP_plus_uconst 0x401]
    5662                      .dwattr $C$DW$455, DW_AT_accessibility(DW_ACCESS_public)
    5663              $C$DW$456       .dwtag  DW_TAG_member
    5664                      .dwattr $C$DW$456, DW_AT_type(*$C$DW$T$20)
    5665                      .dwattr $C$DW$456, DW_AT_name("INTRTX")
    5666                      .dwattr $C$DW$456, DW_AT_TI_symbol_name("_INTRTX")
    5667                      .dwattr $C$DW$456, DW_AT_data_member_location[DW_OP_plus_uconst 0x402]
    5668                      .dwattr $C$DW$456, DW_AT_accessibility(DW_ACCESS_public)
    5669              $C$DW$457       .dwtag  DW_TAG_member
    5670                      .dwattr $C$DW$457, DW_AT_type(*$C$DW$T$21)
    5671                      .dwattr $C$DW$457, DW_AT_name("RSVD21")
    5672                      .dwattr $C$DW$457, DW_AT_TI_symbol_name("_RSVD21")
    5673                      .dwattr $C$DW$457, DW_AT_data_member_location[DW_OP_plus_uconst 0x403]
    5674                      .dwattr $C$DW$457, DW_AT_accessibility(DW_ACCESS_public)
    5675              $C$DW$458       .dwtag  DW_TAG_member
    5676                      .dwattr $C$DW$458, DW_AT_type(*$C$DW$T$20)
    5677                      .dwattr $C$DW$458, DW_AT_name("INTRRX")
    5678                      .dwattr $C$DW$458, DW_AT_TI_symbol_name("_INTRRX")
    5679                      .dwattr $C$DW$458, DW_AT_data_member_location[DW_OP_plus_uconst 0x405]
    5680                      .dwattr $C$DW$458, DW_AT_accessibility(DW_ACCESS_public)
    5681              $C$DW$459       .dwtag  DW_TAG_member
    5682                      .dwattr $C$DW$459, DW_AT_type(*$C$DW$T$20)
    5683                      .dwattr $C$DW$459, DW_AT_name("INTRTXE")
    5684                      .dwattr $C$DW$459, DW_AT_TI_symbol_name("_INTRTXE")
    5685                      .dwattr $C$DW$459, DW_AT_data_member_location[DW_OP_plus_uconst 0x406]
    5686                      .dwattr $C$DW$459, DW_AT_accessibility(DW_ACCESS_public)
    5687              $C$DW$460       .dwtag  DW_TAG_member
    5688                      .dwattr $C$DW$460, DW_AT_type(*$C$DW$T$21)
    5689                      .dwattr $C$DW$460, DW_AT_name("RSVD22")
    5690                      .dwattr $C$DW$460, DW_AT_TI_symbol_name("_RSVD22")
    5691                      .dwattr $C$DW$460, DW_AT_data_member_location[DW_OP_plus_uconst 0x407]
TMS320C55x Assembler PC v4.4.1 Mon Aug 15 03:55:17 2016

Tools Copyright (c) 1996-2012 Texas Instruments Incorporated
usb.asm                                                              PAGE  138

    5692                      .dwattr $C$DW$460, DW_AT_accessibility(DW_ACCESS_public)
    5693              $C$DW$461       .dwtag  DW_TAG_member
    5694                      .dwattr $C$DW$461, DW_AT_type(*$C$DW$T$20)
    5695                      .dwattr $C$DW$461, DW_AT_name("INTRRXE")
    5696                      .dwattr $C$DW$461, DW_AT_TI_symbol_name("_INTRRXE")
    5697                      .dwattr $C$DW$461, DW_AT_data_member_location[DW_OP_plus_uconst 0x409]
    5698                      .dwattr $C$DW$461, DW_AT_accessibility(DW_ACCESS_public)
    5699              $C$DW$462       .dwtag  DW_TAG_member
    5700                      .dwattr $C$DW$462, DW_AT_type(*$C$DW$T$20)
    5701                      .dwattr $C$DW$462, DW_AT_name("INTRUSB_INTRUSBE")
    5702                      .dwattr $C$DW$462, DW_AT_TI_symbol_name("_INTRUSB_INTRUSBE")
    5703                      .dwattr $C$DW$462, DW_AT_data_member_location[DW_OP_plus_uconst 0x40a]
    5704                      .dwattr $C$DW$462, DW_AT_accessibility(DW_ACCESS_public)
    5705              $C$DW$463       .dwtag  DW_TAG_member
    5706                      .dwattr $C$DW$463, DW_AT_type(*$C$DW$T$21)
    5707                      .dwattr $C$DW$463, DW_AT_name("RSVD23")
    5708                      .dwattr $C$DW$463, DW_AT_TI_symbol_name("_RSVD23")
    5709                      .dwattr $C$DW$463, DW_AT_data_member_location[DW_OP_plus_uconst 0x40b]
    5710                      .dwattr $C$DW$463, DW_AT_accessibility(DW_ACCESS_public)
    5711              $C$DW$464       .dwtag  DW_TAG_member
    5712                      .dwattr $C$DW$464, DW_AT_type(*$C$DW$T$20)
    5713                      .dwattr $C$DW$464, DW_AT_name("FRAME")
    5714                      .dwattr $C$DW$464, DW_AT_TI_symbol_name("_FRAME")
    5715                      .dwattr $C$DW$464, DW_AT_data_member_location[DW_OP_plus_uconst 0x40d]
    5716                      .dwattr $C$DW$464, DW_AT_accessibility(DW_ACCESS_public)
    5717              $C$DW$465       .dwtag  DW_TAG_member
    5718                      .dwattr $C$DW$465, DW_AT_type(*$C$DW$T$20)
    5719                      .dwattr $C$DW$465, DW_AT_name("INDEX_TESTMODE")
    5720                      .dwattr $C$DW$465, DW_AT_TI_symbol_name("_INDEX_TESTMODE")
    5721                      .dwattr $C$DW$465, DW_AT_data_member_location[DW_OP_plus_uconst 0x40e]
    5722                      .dwattr $C$DW$465, DW_AT_accessibility(DW_ACCESS_public)
    5723              $C$DW$466       .dwtag  DW_TAG_member
    5724                      .dwattr $C$DW$466, DW_AT_type(*$C$DW$T$21)
    5725                      .dwattr $C$DW$466, DW_AT_name("RSVD24")
    5726                      .dwattr $C$DW$466, DW_AT_TI_symbol_name("_RSVD24")
    5727                      .dwattr $C$DW$466, DW_AT_data_member_location[DW_OP_plus_uconst 0x40f]
    5728                      .dwattr $C$DW$466, DW_AT_accessibility(DW_ACCESS_public)
    5729              $C$DW$467       .dwtag  DW_TAG_member
    5730                      .dwattr $C$DW$467, DW_AT_type(*$C$DW$T$20)
    5731                      .dwattr $C$DW$467, DW_AT_name("TXMAXP_INDX")
    5732                      .dwattr $C$DW$467, DW_AT_TI_symbol_name("_TXMAXP_INDX")
    5733                      .dwattr $C$DW$467, DW_AT_data_member_location[DW_OP_plus_uconst 0x411]
    5734                      .dwattr $C$DW$467, DW_AT_accessibility(DW_ACCESS_public)
    5735              $C$DW$468       .dwtag  DW_TAG_member
    5736                      .dwattr $C$DW$468, DW_AT_type(*$C$DW$T$20)
    5737                      .dwattr $C$DW$468, DW_AT_name("PERI_CSR0_INDX")
    5738                      .dwattr $C$DW$468, DW_AT_TI_symbol_name("_PERI_CSR0_INDX")
    5739                      .dwattr $C$DW$468, DW_AT_data_member_location[DW_OP_plus_uconst 0x412]
    5740                      .dwattr $C$DW$468, DW_AT_accessibility(DW_ACCESS_public)
    5741              $C$DW$469       .dwtag  DW_TAG_member
    5742                      .dwattr $C$DW$469, DW_AT_type(*$C$DW$T$21)
    5743                      .dwattr $C$DW$469, DW_AT_name("RSVD25")
    5744                      .dwattr $C$DW$469, DW_AT_TI_symbol_name("_RSVD25")
    5745                      .dwattr $C$DW$469, DW_AT_data_member_location[DW_OP_plus_uconst 0x413]
    5746                      .dwattr $C$DW$469, DW_AT_accessibility(DW_ACCESS_public)
TMS320C55x Assembler PC v4.4.1 Mon Aug 15 03:55:17 2016

Tools Copyright (c) 1996-2012 Texas Instruments Incorporated
usb.asm                                                              PAGE  139

    5747              $C$DW$470       .dwtag  DW_TAG_member
    5748                      .dwattr $C$DW$470, DW_AT_type(*$C$DW$T$20)
    5749                      .dwattr $C$DW$470, DW_AT_name("RXMAXP_INDX")
    5750                      .dwattr $C$DW$470, DW_AT_TI_symbol_name("_RXMAXP_INDX")
    5751                      .dwattr $C$DW$470, DW_AT_data_member_location[DW_OP_plus_uconst 0x415]
    5752                      .dwattr $C$DW$470, DW_AT_accessibility(DW_ACCESS_public)
    5753              $C$DW$471       .dwtag  DW_TAG_member
    5754                      .dwattr $C$DW$471, DW_AT_type(*$C$DW$T$20)
    5755                      .dwattr $C$DW$471, DW_AT_name("PERI_RXCSR_INDX")
    5756                      .dwattr $C$DW$471, DW_AT_TI_symbol_name("_PERI_RXCSR_INDX")
    5757                      .dwattr $C$DW$471, DW_AT_data_member_location[DW_OP_plus_uconst 0x416]
    5758                      .dwattr $C$DW$471, DW_AT_accessibility(DW_ACCESS_public)
    5759              $C$DW$472       .dwtag  DW_TAG_member
    5760                      .dwattr $C$DW$472, DW_AT_type(*$C$DW$T$21)
    5761                      .dwattr $C$DW$472, DW_AT_name("RSVD26")
    5762                      .dwattr $C$DW$472, DW_AT_TI_symbol_name("_RSVD26")
    5763                      .dwattr $C$DW$472, DW_AT_data_member_location[DW_OP_plus_uconst 0x417]
    5764                      .dwattr $C$DW$472, DW_AT_accessibility(DW_ACCESS_public)
    5765              $C$DW$473       .dwtag  DW_TAG_member
    5766                      .dwattr $C$DW$473, DW_AT_type(*$C$DW$T$20)
    5767                      .dwattr $C$DW$473, DW_AT_name("COUNT0_INDX")
    5768                      .dwattr $C$DW$473, DW_AT_TI_symbol_name("_COUNT0_INDX")
    5769                      .dwattr $C$DW$473, DW_AT_data_member_location[DW_OP_plus_uconst 0x419]
    5770                      .dwattr $C$DW$473, DW_AT_accessibility(DW_ACCESS_public)
    5771              $C$DW$474       .dwtag  DW_TAG_member
    5772                      .dwattr $C$DW$474, DW_AT_type(*$C$DW$T$36)
    5773                      .dwattr $C$DW$474, DW_AT_name("RSVD27")
    5774                      .dwattr $C$DW$474, DW_AT_TI_symbol_name("_RSVD27")
    5775                      .dwattr $C$DW$474, DW_AT_data_member_location[DW_OP_plus_uconst 0x41a]
    5776                      .dwattr $C$DW$474, DW_AT_accessibility(DW_ACCESS_public)
    5777              $C$DW$475       .dwtag  DW_TAG_member
    5778                      .dwattr $C$DW$475, DW_AT_type(*$C$DW$T$20)
    5779                      .dwattr $C$DW$475, DW_AT_name("CONFIGDATA_INDX")
    5780                      .dwattr $C$DW$475, DW_AT_TI_symbol_name("_CONFIGDATA_INDX")
    5781                      .dwattr $C$DW$475, DW_AT_data_member_location[DW_OP_plus_uconst 0x41e]
    5782                      .dwattr $C$DW$475, DW_AT_accessibility(DW_ACCESS_public)
    5783              $C$DW$476       .dwtag  DW_TAG_member
    5784                      .dwattr $C$DW$476, DW_AT_type(*$C$DW$T$21)
    5785                      .dwattr $C$DW$476, DW_AT_name("RSVD28")
    5786                      .dwattr $C$DW$476, DW_AT_TI_symbol_name("_RSVD28")
    5787                      .dwattr $C$DW$476, DW_AT_data_member_location[DW_OP_plus_uconst 0x41f]
    5788                      .dwattr $C$DW$476, DW_AT_accessibility(DW_ACCESS_public)
    5789              $C$DW$477       .dwtag  DW_TAG_member
    5790                      .dwattr $C$DW$477, DW_AT_type(*$C$DW$T$20)
    5791                      .dwattr $C$DW$477, DW_AT_name("FIFO0R1")
    5792                      .dwattr $C$DW$477, DW_AT_TI_symbol_name("_FIFO0R1")
    5793                      .dwattr $C$DW$477, DW_AT_data_member_location[DW_OP_plus_uconst 0x421]
    5794                      .dwattr $C$DW$477, DW_AT_accessibility(DW_ACCESS_public)
    5795              $C$DW$478       .dwtag  DW_TAG_member
    5796                      .dwattr $C$DW$478, DW_AT_type(*$C$DW$T$20)
    5797                      .dwattr $C$DW$478, DW_AT_name("FIFO0R2")
    5798                      .dwattr $C$DW$478, DW_AT_TI_symbol_name("_FIFO0R2")
    5799                      .dwattr $C$DW$478, DW_AT_data_member_location[DW_OP_plus_uconst 0x422]
    5800                      .dwattr $C$DW$478, DW_AT_accessibility(DW_ACCESS_public)
    5801              $C$DW$479       .dwtag  DW_TAG_member
TMS320C55x Assembler PC v4.4.1 Mon Aug 15 03:55:17 2016

Tools Copyright (c) 1996-2012 Texas Instruments Incorporated
usb.asm                                                              PAGE  140

    5802                      .dwattr $C$DW$479, DW_AT_type(*$C$DW$T$21)
    5803                      .dwattr $C$DW$479, DW_AT_name("RSVD29")
    5804                      .dwattr $C$DW$479, DW_AT_TI_symbol_name("_RSVD29")
    5805                      .dwattr $C$DW$479, DW_AT_data_member_location[DW_OP_plus_uconst 0x423]
    5806                      .dwattr $C$DW$479, DW_AT_accessibility(DW_ACCESS_public)
    5807              $C$DW$480       .dwtag  DW_TAG_member
    5808                      .dwattr $C$DW$480, DW_AT_type(*$C$DW$T$20)
    5809                      .dwattr $C$DW$480, DW_AT_name("FIFO1R1")
    5810                      .dwattr $C$DW$480, DW_AT_TI_symbol_name("_FIFO1R1")
    5811                      .dwattr $C$DW$480, DW_AT_data_member_location[DW_OP_plus_uconst 0x425]
    5812                      .dwattr $C$DW$480, DW_AT_accessibility(DW_ACCESS_public)
    5813              $C$DW$481       .dwtag  DW_TAG_member
    5814                      .dwattr $C$DW$481, DW_AT_type(*$C$DW$T$20)
    5815                      .dwattr $C$DW$481, DW_AT_name("FIFO1R2")
    5816                      .dwattr $C$DW$481, DW_AT_TI_symbol_name("_FIFO1R2")
    5817                      .dwattr $C$DW$481, DW_AT_data_member_location[DW_OP_plus_uconst 0x426]
    5818                      .dwattr $C$DW$481, DW_AT_accessibility(DW_ACCESS_public)
    5819              $C$DW$482       .dwtag  DW_TAG_member
    5820                      .dwattr $C$DW$482, DW_AT_type(*$C$DW$T$21)
    5821                      .dwattr $C$DW$482, DW_AT_name("RSVD30")
    5822                      .dwattr $C$DW$482, DW_AT_TI_symbol_name("_RSVD30")
    5823                      .dwattr $C$DW$482, DW_AT_data_member_location[DW_OP_plus_uconst 0x427]
    5824                      .dwattr $C$DW$482, DW_AT_accessibility(DW_ACCESS_public)
    5825              $C$DW$483       .dwtag  DW_TAG_member
    5826                      .dwattr $C$DW$483, DW_AT_type(*$C$DW$T$20)
    5827                      .dwattr $C$DW$483, DW_AT_name("FIFO2R1")
    5828                      .dwattr $C$DW$483, DW_AT_TI_symbol_name("_FIFO2R1")
    5829                      .dwattr $C$DW$483, DW_AT_data_member_location[DW_OP_plus_uconst 0x429]
    5830                      .dwattr $C$DW$483, DW_AT_accessibility(DW_ACCESS_public)
    5831              $C$DW$484       .dwtag  DW_TAG_member
    5832                      .dwattr $C$DW$484, DW_AT_type(*$C$DW$T$20)
    5833                      .dwattr $C$DW$484, DW_AT_name("FIFO2R2")
    5834                      .dwattr $C$DW$484, DW_AT_TI_symbol_name("_FIFO2R2")
    5835                      .dwattr $C$DW$484, DW_AT_data_member_location[DW_OP_plus_uconst 0x42a]
    5836                      .dwattr $C$DW$484, DW_AT_accessibility(DW_ACCESS_public)
    5837              $C$DW$485       .dwtag  DW_TAG_member
    5838                      .dwattr $C$DW$485, DW_AT_type(*$C$DW$T$21)
    5839                      .dwattr $C$DW$485, DW_AT_name("RSVD31")
    5840                      .dwattr $C$DW$485, DW_AT_TI_symbol_name("_RSVD31")
    5841                      .dwattr $C$DW$485, DW_AT_data_member_location[DW_OP_plus_uconst 0x42b]
    5842                      .dwattr $C$DW$485, DW_AT_accessibility(DW_ACCESS_public)
    5843              $C$DW$486       .dwtag  DW_TAG_member
    5844                      .dwattr $C$DW$486, DW_AT_type(*$C$DW$T$20)
    5845                      .dwattr $C$DW$486, DW_AT_name("FIFO3R1")
    5846                      .dwattr $C$DW$486, DW_AT_TI_symbol_name("_FIFO3R1")
    5847                      .dwattr $C$DW$486, DW_AT_data_member_location[DW_OP_plus_uconst 0x42d]
    5848                      .dwattr $C$DW$486, DW_AT_accessibility(DW_ACCESS_public)
    5849              $C$DW$487       .dwtag  DW_TAG_member
    5850                      .dwattr $C$DW$487, DW_AT_type(*$C$DW$T$20)
    5851                      .dwattr $C$DW$487, DW_AT_name("FIFO3R2")
    5852                      .dwattr $C$DW$487, DW_AT_TI_symbol_name("_FIFO3R2")
    5853                      .dwattr $C$DW$487, DW_AT_data_member_location[DW_OP_plus_uconst 0x42e]
    5854                      .dwattr $C$DW$487, DW_AT_accessibility(DW_ACCESS_public)
    5855              $C$DW$488       .dwtag  DW_TAG_member
    5856                      .dwattr $C$DW$488, DW_AT_type(*$C$DW$T$21)
TMS320C55x Assembler PC v4.4.1 Mon Aug 15 03:55:17 2016

Tools Copyright (c) 1996-2012 Texas Instruments Incorporated
usb.asm                                                              PAGE  141

    5857                      .dwattr $C$DW$488, DW_AT_name("RSVD32")
    5858                      .dwattr $C$DW$488, DW_AT_TI_symbol_name("_RSVD32")
    5859                      .dwattr $C$DW$488, DW_AT_data_member_location[DW_OP_plus_uconst 0x42f]
    5860                      .dwattr $C$DW$488, DW_AT_accessibility(DW_ACCESS_public)
    5861              $C$DW$489       .dwtag  DW_TAG_member
    5862                      .dwattr $C$DW$489, DW_AT_type(*$C$DW$T$20)
    5863                      .dwattr $C$DW$489, DW_AT_name("FIFO4R1")
    5864                      .dwattr $C$DW$489, DW_AT_TI_symbol_name("_FIFO4R1")
    5865                      .dwattr $C$DW$489, DW_AT_data_member_location[DW_OP_plus_uconst 0x431]
    5866                      .dwattr $C$DW$489, DW_AT_accessibility(DW_ACCESS_public)
    5867              $C$DW$490       .dwtag  DW_TAG_member
    5868                      .dwattr $C$DW$490, DW_AT_type(*$C$DW$T$20)
    5869                      .dwattr $C$DW$490, DW_AT_name("FIFO4R2")
    5870                      .dwattr $C$DW$490, DW_AT_TI_symbol_name("_FIFO4R2")
    5871                      .dwattr $C$DW$490, DW_AT_data_member_location[DW_OP_plus_uconst 0x432]
    5872                      .dwattr $C$DW$490, DW_AT_accessibility(DW_ACCESS_public)
    5873              $C$DW$491       .dwtag  DW_TAG_member
    5874                      .dwattr $C$DW$491, DW_AT_type(*$C$DW$T$37)
    5875                      .dwattr $C$DW$491, DW_AT_name("RSVD33")
    5876                      .dwattr $C$DW$491, DW_AT_TI_symbol_name("_RSVD33")
    5877                      .dwattr $C$DW$491, DW_AT_data_member_location[DW_OP_plus_uconst 0x433]
    5878                      .dwattr $C$DW$491, DW_AT_accessibility(DW_ACCESS_public)
    5879              $C$DW$492       .dwtag  DW_TAG_member
    5880                      .dwattr $C$DW$492, DW_AT_type(*$C$DW$T$20)
    5881                      .dwattr $C$DW$492, DW_AT_name("DEVCTL")
    5882                      .dwattr $C$DW$492, DW_AT_TI_symbol_name("_DEVCTL")
    5883                      .dwattr $C$DW$492, DW_AT_data_member_location[DW_OP_plus_uconst 0x461]
    5884                      .dwattr $C$DW$492, DW_AT_accessibility(DW_ACCESS_public)
    5885              $C$DW$493       .dwtag  DW_TAG_member
    5886                      .dwattr $C$DW$493, DW_AT_type(*$C$DW$T$20)
    5887                      .dwattr $C$DW$493, DW_AT_name("TXFIFOSZ_RXFIFOSZ")
    5888                      .dwattr $C$DW$493, DW_AT_TI_symbol_name("_TXFIFOSZ_RXFIFOSZ")
    5889                      .dwattr $C$DW$493, DW_AT_data_member_location[DW_OP_plus_uconst 0x462]
    5890                      .dwattr $C$DW$493, DW_AT_accessibility(DW_ACCESS_public)
    5891              $C$DW$494       .dwtag  DW_TAG_member
    5892                      .dwattr $C$DW$494, DW_AT_type(*$C$DW$T$21)
    5893                      .dwattr $C$DW$494, DW_AT_name("RSVD34")
    5894                      .dwattr $C$DW$494, DW_AT_TI_symbol_name("_RSVD34")
    5895                      .dwattr $C$DW$494, DW_AT_data_member_location[DW_OP_plus_uconst 0x463]
    5896                      .dwattr $C$DW$494, DW_AT_accessibility(DW_ACCESS_public)
    5897              $C$DW$495       .dwtag  DW_TAG_member
    5898                      .dwattr $C$DW$495, DW_AT_type(*$C$DW$T$20)
    5899                      .dwattr $C$DW$495, DW_AT_name("TXFIFOADDR")
    5900                      .dwattr $C$DW$495, DW_AT_TI_symbol_name("_TXFIFOADDR")
    5901                      .dwattr $C$DW$495, DW_AT_data_member_location[DW_OP_plus_uconst 0x465]
    5902                      .dwattr $C$DW$495, DW_AT_accessibility(DW_ACCESS_public)
    5903              $C$DW$496       .dwtag  DW_TAG_member
    5904                      .dwattr $C$DW$496, DW_AT_type(*$C$DW$T$20)
    5905                      .dwattr $C$DW$496, DW_AT_name("RXFIFOADDR")
    5906                      .dwattr $C$DW$496, DW_AT_TI_symbol_name("_RXFIFOADDR")
    5907                      .dwattr $C$DW$496, DW_AT_data_member_location[DW_OP_plus_uconst 0x466]
    5908                      .dwattr $C$DW$496, DW_AT_accessibility(DW_ACCESS_public)
    5909              $C$DW$497       .dwtag  DW_TAG_member
    5910                      .dwattr $C$DW$497, DW_AT_type(*$C$DW$T$25)
    5911                      .dwattr $C$DW$497, DW_AT_name("RSVD35")
TMS320C55x Assembler PC v4.4.1 Mon Aug 15 03:55:17 2016

Tools Copyright (c) 1996-2012 Texas Instruments Incorporated
usb.asm                                                              PAGE  142

    5912                      .dwattr $C$DW$497, DW_AT_TI_symbol_name("_RSVD35")
    5913                      .dwattr $C$DW$497, DW_AT_data_member_location[DW_OP_plus_uconst 0x467]
    5914                      .dwattr $C$DW$497, DW_AT_accessibility(DW_ACCESS_public)
    5915              $C$DW$498       .dwtag  DW_TAG_member
    5916                      .dwattr $C$DW$498, DW_AT_type(*$C$DW$T$20)
    5917                      .dwattr $C$DW$498, DW_AT_name("HWVERS")
    5918                      .dwattr $C$DW$498, DW_AT_TI_symbol_name("_HWVERS")
    5919                      .dwattr $C$DW$498, DW_AT_data_member_location[DW_OP_plus_uconst 0x46d]
    5920                      .dwattr $C$DW$498, DW_AT_accessibility(DW_ACCESS_public)
    5921              $C$DW$499       .dwtag  DW_TAG_member
    5922                      .dwattr $C$DW$499, DW_AT_type(*$C$DW$T$38)
    5923                      .dwattr $C$DW$499, DW_AT_name("RSVD37")
    5924                      .dwattr $C$DW$499, DW_AT_TI_symbol_name("_RSVD37")
    5925                      .dwattr $C$DW$499, DW_AT_data_member_location[DW_OP_plus_uconst 0x46e]
    5926                      .dwattr $C$DW$499, DW_AT_accessibility(DW_ACCESS_public)
    5927              $C$DW$500       .dwtag  DW_TAG_member
    5928                      .dwattr $C$DW$500, DW_AT_type(*$C$DW$T$40)
    5929                      .dwattr $C$DW$500, DW_AT_name("EPTRG")
    5930                      .dwattr $C$DW$500, DW_AT_TI_symbol_name("_EPTRG")
    5931                      .dwattr $C$DW$500, DW_AT_data_member_location[DW_OP_plus_uconst 0x481]
    5932                      .dwattr $C$DW$500, DW_AT_accessibility(DW_ACCESS_public)
    5933              $C$DW$501       .dwtag  DW_TAG_member
    5934                      .dwattr $C$DW$501, DW_AT_type(*$C$DW$T$41)
    5935                      .dwattr $C$DW$501, DW_AT_name("RSVD38")
    5936                      .dwattr $C$DW$501, DW_AT_TI_symbol_name("_RSVD38")
    5937                      .dwattr $C$DW$501, DW_AT_data_member_location[DW_OP_plus_uconst 0x4a9]
    5938                      .dwattr $C$DW$501, DW_AT_accessibility(DW_ACCESS_public)
    5939              $C$DW$502       .dwtag  DW_TAG_member
    5940                      .dwattr $C$DW$502, DW_AT_type(*$C$DW$T$20)
    5941                      .dwattr $C$DW$502, DW_AT_name("PERI_CSR0")
    5942                      .dwattr $C$DW$502, DW_AT_TI_symbol_name("_PERI_CSR0")
    5943                      .dwattr $C$DW$502, DW_AT_data_member_location[DW_OP_plus_uconst 0x502]
    5944                      .dwattr $C$DW$502, DW_AT_accessibility(DW_ACCESS_public)
    5945              $C$DW$503       .dwtag  DW_TAG_member
    5946                      .dwattr $C$DW$503, DW_AT_type(*$C$DW$T$25)
    5947                      .dwattr $C$DW$503, DW_AT_name("RSVD39")
    5948                      .dwattr $C$DW$503, DW_AT_TI_symbol_name("_RSVD39")
    5949                      .dwattr $C$DW$503, DW_AT_data_member_location[DW_OP_plus_uconst 0x503]
    5950                      .dwattr $C$DW$503, DW_AT_accessibility(DW_ACCESS_public)
    5951              $C$DW$504       .dwtag  DW_TAG_member
    5952                      .dwattr $C$DW$504, DW_AT_type(*$C$DW$T$20)
    5953                      .dwattr $C$DW$504, DW_AT_name("COUNT0")
    5954                      .dwattr $C$DW$504, DW_AT_TI_symbol_name("_COUNT0")
    5955                      .dwattr $C$DW$504, DW_AT_data_member_location[DW_OP_plus_uconst 0x509]
    5956                      .dwattr $C$DW$504, DW_AT_accessibility(DW_ACCESS_public)
    5957              $C$DW$505       .dwtag  DW_TAG_member
    5958                      .dwattr $C$DW$505, DW_AT_type(*$C$DW$T$36)
    5959                      .dwattr $C$DW$505, DW_AT_name("RSVD40")
    5960                      .dwattr $C$DW$505, DW_AT_TI_symbol_name("_RSVD40")
    5961                      .dwattr $C$DW$505, DW_AT_data_member_location[DW_OP_plus_uconst 0x50a]
    5962                      .dwattr $C$DW$505, DW_AT_accessibility(DW_ACCESS_public)
    5963              $C$DW$506       .dwtag  DW_TAG_member
    5964                      .dwattr $C$DW$506, DW_AT_type(*$C$DW$T$20)
    5965                      .dwattr $C$DW$506, DW_AT_name("CONFIGDATA")
    5966                      .dwattr $C$DW$506, DW_AT_TI_symbol_name("_CONFIGDATA")
TMS320C55x Assembler PC v4.4.1 Mon Aug 15 03:55:17 2016

Tools Copyright (c) 1996-2012 Texas Instruments Incorporated
usb.asm                                                              PAGE  143

    5967                      .dwattr $C$DW$506, DW_AT_data_member_location[DW_OP_plus_uconst 0x50e]
    5968                      .dwattr $C$DW$506, DW_AT_accessibility(DW_ACCESS_public)
    5969              $C$DW$507       .dwtag  DW_TAG_member
    5970                      .dwattr $C$DW$507, DW_AT_type(*$C$DW$T$21)
    5971                      .dwattr $C$DW$507, DW_AT_name("RSVD42")
    5972                      .dwattr $C$DW$507, DW_AT_TI_symbol_name("_RSVD42")
    5973                      .dwattr $C$DW$507, DW_AT_data_member_location[DW_OP_plus_uconst 0x50f]
    5974                      .dwattr $C$DW$507, DW_AT_accessibility(DW_ACCESS_public)
    5975              $C$DW$508       .dwtag  DW_TAG_member
    5976                      .dwattr $C$DW$508, DW_AT_type(*$C$DW$T$43)
    5977                      .dwattr $C$DW$508, DW_AT_name("EPCSR")
    5978                      .dwattr $C$DW$508, DW_AT_TI_symbol_name("_EPCSR")
    5979                      .dwattr $C$DW$508, DW_AT_data_member_location[DW_OP_plus_uconst 0x511]
    5980                      .dwattr $C$DW$508, DW_AT_accessibility(DW_ACCESS_public)
    5981              $C$DW$509       .dwtag  DW_TAG_member
    5982                      .dwattr $C$DW$509, DW_AT_type(*$C$DW$T$44)
    5983                      .dwattr $C$DW$509, DW_AT_name("RSVD43")
    5984                      .dwattr $C$DW$509, DW_AT_TI_symbol_name("_RSVD43")
    5985                      .dwattr $C$DW$509, DW_AT_data_member_location[DW_OP_plus_uconst 0x551]
    5986                      .dwattr $C$DW$509, DW_AT_accessibility(DW_ACCESS_public)
    5987              $C$DW$510       .dwtag  DW_TAG_member
    5988                      .dwattr $C$DW$510, DW_AT_type(*$C$DW$T$20)
    5989                      .dwattr $C$DW$510, DW_AT_name("DMAREVID1")
    5990                      .dwattr $C$DW$510, DW_AT_TI_symbol_name("_DMAREVID1")
    5991                      .dwattr $C$DW$510, DW_AT_data_member_location[DW_OP_plus_uconst 0x1000]
    5992                      .dwattr $C$DW$510, DW_AT_accessibility(DW_ACCESS_public)
    5993              $C$DW$511       .dwtag  DW_TAG_member
    5994                      .dwattr $C$DW$511, DW_AT_type(*$C$DW$T$20)
    5995                      .dwattr $C$DW$511, DW_AT_name("DMAREVID2")
    5996                      .dwattr $C$DW$511, DW_AT_TI_symbol_name("_DMAREVID2")
    5997                      .dwattr $C$DW$511, DW_AT_data_member_location[DW_OP_plus_uconst 0x1001]
    5998                      .dwattr $C$DW$511, DW_AT_accessibility(DW_ACCESS_public)
    5999              $C$DW$512       .dwtag  DW_TAG_member
    6000                      .dwattr $C$DW$512, DW_AT_type(*$C$DW$T$21)
    6001                      .dwattr $C$DW$512, DW_AT_name("RSVD44")
    6002                      .dwattr $C$DW$512, DW_AT_TI_symbol_name("_RSVD44")
    6003                      .dwattr $C$DW$512, DW_AT_data_member_location[DW_OP_plus_uconst 0x1002]
    6004                      .dwattr $C$DW$512, DW_AT_accessibility(DW_ACCESS_public)
    6005              $C$DW$513       .dwtag  DW_TAG_member
    6006                      .dwattr $C$DW$513, DW_AT_type(*$C$DW$T$20)
    6007                      .dwattr $C$DW$513, DW_AT_name("TDFDQ")
    6008                      .dwattr $C$DW$513, DW_AT_TI_symbol_name("_TDFDQ")
    6009                      .dwattr $C$DW$513, DW_AT_data_member_location[DW_OP_plus_uconst 0x1004]
    6010                      .dwattr $C$DW$513, DW_AT_accessibility(DW_ACCESS_public)
    6011              $C$DW$514       .dwtag  DW_TAG_member
    6012                      .dwattr $C$DW$514, DW_AT_type(*$C$DW$T$33)
    6013                      .dwattr $C$DW$514, DW_AT_name("RSVD45")
    6014                      .dwattr $C$DW$514, DW_AT_TI_symbol_name("_RSVD45")
    6015                      .dwattr $C$DW$514, DW_AT_data_member_location[DW_OP_plus_uconst 0x1005]
    6016                      .dwattr $C$DW$514, DW_AT_accessibility(DW_ACCESS_public)
    6017              $C$DW$515       .dwtag  DW_TAG_member
    6018                      .dwattr $C$DW$515, DW_AT_type(*$C$DW$T$20)
    6019                      .dwattr $C$DW$515, DW_AT_name("DMAEMU")
    6020                      .dwattr $C$DW$515, DW_AT_TI_symbol_name("_DMAEMU")
    6021                      .dwattr $C$DW$515, DW_AT_data_member_location[DW_OP_plus_uconst 0x1008]
TMS320C55x Assembler PC v4.4.1 Mon Aug 15 03:55:17 2016

Tools Copyright (c) 1996-2012 Texas Instruments Incorporated
usb.asm                                                              PAGE  144

    6022                      .dwattr $C$DW$515, DW_AT_accessibility(DW_ACCESS_public)
    6023              $C$DW$516       .dwtag  DW_TAG_member
    6024                      .dwattr $C$DW$516, DW_AT_type(*$C$DW$T$45)
    6025                      .dwattr $C$DW$516, DW_AT_name("RSVD47")
    6026                      .dwattr $C$DW$516, DW_AT_TI_symbol_name("_RSVD47")
    6027                      .dwattr $C$DW$516, DW_AT_data_member_location[DW_OP_plus_uconst 0x1009]
    6028                      .dwattr $C$DW$516, DW_AT_accessibility(DW_ACCESS_public)
    6029              $C$DW$517       .dwtag  DW_TAG_member
    6030                      .dwattr $C$DW$517, DW_AT_type(*$C$DW$T$47)
    6031                      .dwattr $C$DW$517, DW_AT_name("CHANNEL")
    6032                      .dwattr $C$DW$517, DW_AT_TI_symbol_name("_CHANNEL")
    6033                      .dwattr $C$DW$517, DW_AT_data_member_location[DW_OP_plus_uconst 0x1800]
    6034                      .dwattr $C$DW$517, DW_AT_accessibility(DW_ACCESS_public)
    6035              $C$DW$518       .dwtag  DW_TAG_member
    6036                      .dwattr $C$DW$518, DW_AT_type(*$C$DW$T$48)
    6037                      .dwattr $C$DW$518, DW_AT_name("RSVD48")
    6038                      .dwattr $C$DW$518, DW_AT_TI_symbol_name("_RSVD48")
    6039                      .dwattr $C$DW$518, DW_AT_data_member_location[DW_OP_plus_uconst 0x1880]
    6040                      .dwattr $C$DW$518, DW_AT_accessibility(DW_ACCESS_public)
    6041              $C$DW$519       .dwtag  DW_TAG_member
    6042                      .dwattr $C$DW$519, DW_AT_type(*$C$DW$T$20)
    6043                      .dwattr $C$DW$519, DW_AT_name("DMA_SCHED_CTRL1")
    6044                      .dwattr $C$DW$519, DW_AT_TI_symbol_name("_DMA_SCHED_CTRL1")
    6045                      .dwattr $C$DW$519, DW_AT_data_member_location[DW_OP_plus_uconst 0x2000]
    6046                      .dwattr $C$DW$519, DW_AT_accessibility(DW_ACCESS_public)
    6047              $C$DW$520       .dwtag  DW_TAG_member
    6048                      .dwattr $C$DW$520, DW_AT_type(*$C$DW$T$20)
    6049                      .dwattr $C$DW$520, DW_AT_name("DMA_SCHED_CTRL2")
    6050                      .dwattr $C$DW$520, DW_AT_TI_symbol_name("_DMA_SCHED_CTRL2")
    6051                      .dwattr $C$DW$520, DW_AT_data_member_location[DW_OP_plus_uconst 0x2001]
    6052                      .dwattr $C$DW$520, DW_AT_accessibility(DW_ACCESS_public)
    6053              $C$DW$521       .dwtag  DW_TAG_member
    6054                      .dwattr $C$DW$521, DW_AT_type(*$C$DW$T$49)
    6055                      .dwattr $C$DW$521, DW_AT_name("RSVD50")
    6056                      .dwattr $C$DW$521, DW_AT_TI_symbol_name("_RSVD50")
    6057                      .dwattr $C$DW$521, DW_AT_data_member_location[DW_OP_plus_uconst 0x2002]
    6058                      .dwattr $C$DW$521, DW_AT_accessibility(DW_ACCESS_public)
    6059              $C$DW$522       .dwtag  DW_TAG_member
    6060                      .dwattr $C$DW$522, DW_AT_type(*$C$DW$T$51)
    6061                      .dwattr $C$DW$522, DW_AT_name("CDMASCHETBLWORD")
    6062                      .dwattr $C$DW$522, DW_AT_TI_symbol_name("_CDMASCHETBLWORD")
    6063                      .dwattr $C$DW$522, DW_AT_data_member_location[DW_OP_plus_uconst 0x2800]
    6064                      .dwattr $C$DW$522, DW_AT_accessibility(DW_ACCESS_public)
    6065              $C$DW$523       .dwtag  DW_TAG_member
    6066                      .dwattr $C$DW$523, DW_AT_type(*$C$DW$T$52)
    6067                      .dwattr $C$DW$523, DW_AT_name("RSVD51")
    6068                      .dwattr $C$DW$523, DW_AT_TI_symbol_name("_RSVD51")
    6069                      .dwattr $C$DW$523, DW_AT_data_member_location[DW_OP_plus_uconst 0x2900]
    6070                      .dwattr $C$DW$523, DW_AT_accessibility(DW_ACCESS_public)
    6071              $C$DW$524       .dwtag  DW_TAG_member
    6072                      .dwattr $C$DW$524, DW_AT_type(*$C$DW$T$20)
    6073                      .dwattr $C$DW$524, DW_AT_name("QMGRREVID1")
    6074                      .dwattr $C$DW$524, DW_AT_TI_symbol_name("_QMGRREVID1")
    6075                      .dwattr $C$DW$524, DW_AT_data_member_location[DW_OP_plus_uconst 0x4000]
    6076                      .dwattr $C$DW$524, DW_AT_accessibility(DW_ACCESS_public)
TMS320C55x Assembler PC v4.4.1 Mon Aug 15 03:55:17 2016

Tools Copyright (c) 1996-2012 Texas Instruments Incorporated
usb.asm                                                              PAGE  145

    6077              $C$DW$525       .dwtag  DW_TAG_member
    6078                      .dwattr $C$DW$525, DW_AT_type(*$C$DW$T$20)
    6079                      .dwattr $C$DW$525, DW_AT_name("QMGRREVID2")
    6080                      .dwattr $C$DW$525, DW_AT_TI_symbol_name("_QMGRREVID2")
    6081                      .dwattr $C$DW$525, DW_AT_data_member_location[DW_OP_plus_uconst 0x4001]
    6082                      .dwattr $C$DW$525, DW_AT_accessibility(DW_ACCESS_public)
    6083              $C$DW$526       .dwtag  DW_TAG_member
    6084                      .dwattr $C$DW$526, DW_AT_type(*$C$DW$T$25)
    6085                      .dwattr $C$DW$526, DW_AT_name("RSVD52")
    6086                      .dwattr $C$DW$526, DW_AT_TI_symbol_name("_RSVD52")
    6087                      .dwattr $C$DW$526, DW_AT_data_member_location[DW_OP_plus_uconst 0x4002]
    6088                      .dwattr $C$DW$526, DW_AT_accessibility(DW_ACCESS_public)
    6089              $C$DW$527       .dwtag  DW_TAG_member
    6090                      .dwattr $C$DW$527, DW_AT_type(*$C$DW$T$20)
    6091                      .dwattr $C$DW$527, DW_AT_name("DIVERSION1")
    6092                      .dwattr $C$DW$527, DW_AT_TI_symbol_name("_DIVERSION1")
    6093                      .dwattr $C$DW$527, DW_AT_data_member_location[DW_OP_plus_uconst 0x4008]
    6094                      .dwattr $C$DW$527, DW_AT_accessibility(DW_ACCESS_public)
    6095              $C$DW$528       .dwtag  DW_TAG_member
    6096                      .dwattr $C$DW$528, DW_AT_type(*$C$DW$T$20)
    6097                      .dwattr $C$DW$528, DW_AT_name("DIVERSION2")
    6098                      .dwattr $C$DW$528, DW_AT_TI_symbol_name("_DIVERSION2")
    6099                      .dwattr $C$DW$528, DW_AT_data_member_location[DW_OP_plus_uconst 0x4009]
    6100                      .dwattr $C$DW$528, DW_AT_accessibility(DW_ACCESS_public)
    6101              $C$DW$529       .dwtag  DW_TAG_member
    6102                      .dwattr $C$DW$529, DW_AT_type(*$C$DW$T$53)
    6103                      .dwattr $C$DW$529, DW_AT_name("RSVD53")
    6104                      .dwattr $C$DW$529, DW_AT_TI_symbol_name("_RSVD53")
    6105                      .dwattr $C$DW$529, DW_AT_data_member_location[DW_OP_plus_uconst 0x400a]
    6106                      .dwattr $C$DW$529, DW_AT_accessibility(DW_ACCESS_public)
    6107              $C$DW$530       .dwtag  DW_TAG_member
    6108                      .dwattr $C$DW$530, DW_AT_type(*$C$DW$T$20)
    6109                      .dwattr $C$DW$530, DW_AT_name("FDBSC0")
    6110                      .dwattr $C$DW$530, DW_AT_TI_symbol_name("_FDBSC0")
    6111                      .dwattr $C$DW$530, DW_AT_data_member_location[DW_OP_plus_uconst 0x4020]
    6112                      .dwattr $C$DW$530, DW_AT_accessibility(DW_ACCESS_public)
    6113              $C$DW$531       .dwtag  DW_TAG_member
    6114                      .dwattr $C$DW$531, DW_AT_type(*$C$DW$T$20)
    6115                      .dwattr $C$DW$531, DW_AT_name("FDBSC1")
    6116                      .dwattr $C$DW$531, DW_AT_TI_symbol_name("_FDBSC1")
    6117                      .dwattr $C$DW$531, DW_AT_data_member_location[DW_OP_plus_uconst 0x4021]
    6118                      .dwattr $C$DW$531, DW_AT_accessibility(DW_ACCESS_public)
    6119              $C$DW$532       .dwtag  DW_TAG_member
    6120                      .dwattr $C$DW$532, DW_AT_type(*$C$DW$T$21)
    6121                      .dwattr $C$DW$532, DW_AT_name("RSVD54")
    6122                      .dwattr $C$DW$532, DW_AT_TI_symbol_name("_RSVD54")
    6123                      .dwattr $C$DW$532, DW_AT_data_member_location[DW_OP_plus_uconst 0x4022]
    6124                      .dwattr $C$DW$532, DW_AT_accessibility(DW_ACCESS_public)
    6125              $C$DW$533       .dwtag  DW_TAG_member
    6126                      .dwattr $C$DW$533, DW_AT_type(*$C$DW$T$20)
    6127                      .dwattr $C$DW$533, DW_AT_name("FDBSC2")
    6128                      .dwattr $C$DW$533, DW_AT_TI_symbol_name("_FDBSC2")
    6129                      .dwattr $C$DW$533, DW_AT_data_member_location[DW_OP_plus_uconst 0x4024]
    6130                      .dwattr $C$DW$533, DW_AT_accessibility(DW_ACCESS_public)
    6131              $C$DW$534       .dwtag  DW_TAG_member
TMS320C55x Assembler PC v4.4.1 Mon Aug 15 03:55:17 2016

Tools Copyright (c) 1996-2012 Texas Instruments Incorporated
usb.asm                                                              PAGE  146

    6132                      .dwattr $C$DW$534, DW_AT_type(*$C$DW$T$20)
    6133                      .dwattr $C$DW$534, DW_AT_name("FDBSC3")
    6134                      .dwattr $C$DW$534, DW_AT_TI_symbol_name("_FDBSC3")
    6135                      .dwattr $C$DW$534, DW_AT_data_member_location[DW_OP_plus_uconst 0x4025]
    6136                      .dwattr $C$DW$534, DW_AT_accessibility(DW_ACCESS_public)
    6137              $C$DW$535       .dwtag  DW_TAG_member
    6138                      .dwattr $C$DW$535, DW_AT_type(*$C$DW$T$21)
    6139                      .dwattr $C$DW$535, DW_AT_name("RSVD55")
    6140                      .dwattr $C$DW$535, DW_AT_TI_symbol_name("_RSVD55")
    6141                      .dwattr $C$DW$535, DW_AT_data_member_location[DW_OP_plus_uconst 0x4026]
    6142                      .dwattr $C$DW$535, DW_AT_accessibility(DW_ACCESS_public)
    6143              $C$DW$536       .dwtag  DW_TAG_member
    6144                      .dwattr $C$DW$536, DW_AT_type(*$C$DW$T$20)
    6145                      .dwattr $C$DW$536, DW_AT_name("FDBSC4")
    6146                      .dwattr $C$DW$536, DW_AT_TI_symbol_name("_FDBSC4")
    6147                      .dwattr $C$DW$536, DW_AT_data_member_location[DW_OP_plus_uconst 0x4028]
    6148                      .dwattr $C$DW$536, DW_AT_accessibility(DW_ACCESS_public)
    6149              $C$DW$537       .dwtag  DW_TAG_member
    6150                      .dwattr $C$DW$537, DW_AT_type(*$C$DW$T$20)
    6151                      .dwattr $C$DW$537, DW_AT_name("FDBSC5")
    6152                      .dwattr $C$DW$537, DW_AT_TI_symbol_name("_FDBSC5")
    6153                      .dwattr $C$DW$537, DW_AT_data_member_location[DW_OP_plus_uconst 0x4029]
    6154                      .dwattr $C$DW$537, DW_AT_accessibility(DW_ACCESS_public)
    6155              $C$DW$538       .dwtag  DW_TAG_member
    6156                      .dwattr $C$DW$538, DW_AT_type(*$C$DW$T$21)
    6157                      .dwattr $C$DW$538, DW_AT_name("RSVD56")
    6158                      .dwattr $C$DW$538, DW_AT_TI_symbol_name("_RSVD56")
    6159                      .dwattr $C$DW$538, DW_AT_data_member_location[DW_OP_plus_uconst 0x402a]
    6160                      .dwattr $C$DW$538, DW_AT_accessibility(DW_ACCESS_public)
    6161              $C$DW$539       .dwtag  DW_TAG_member
    6162                      .dwattr $C$DW$539, DW_AT_type(*$C$DW$T$20)
    6163                      .dwattr $C$DW$539, DW_AT_name("FDBSC6")
    6164                      .dwattr $C$DW$539, DW_AT_TI_symbol_name("_FDBSC6")
    6165                      .dwattr $C$DW$539, DW_AT_data_member_location[DW_OP_plus_uconst 0x402c]
    6166                      .dwattr $C$DW$539, DW_AT_accessibility(DW_ACCESS_public)
    6167              $C$DW$540       .dwtag  DW_TAG_member
    6168                      .dwattr $C$DW$540, DW_AT_type(*$C$DW$T$20)
    6169                      .dwattr $C$DW$540, DW_AT_name("FDBSC7")
    6170                      .dwattr $C$DW$540, DW_AT_TI_symbol_name("_FDBSC7")
    6171                      .dwattr $C$DW$540, DW_AT_data_member_location[DW_OP_plus_uconst 0x402d]
    6172                      .dwattr $C$DW$540, DW_AT_accessibility(DW_ACCESS_public)
    6173              $C$DW$541       .dwtag  DW_TAG_member
    6174                      .dwattr $C$DW$541, DW_AT_type(*$C$DW$T$54)
    6175                      .dwattr $C$DW$541, DW_AT_name("RSVD57")
    6176                      .dwattr $C$DW$541, DW_AT_TI_symbol_name("_RSVD57")
    6177                      .dwattr $C$DW$541, DW_AT_data_member_location[DW_OP_plus_uconst 0x402e]
    6178                      .dwattr $C$DW$541, DW_AT_accessibility(DW_ACCESS_public)
    6179              $C$DW$542       .dwtag  DW_TAG_member
    6180                      .dwattr $C$DW$542, DW_AT_type(*$C$DW$T$20)
    6181                      .dwattr $C$DW$542, DW_AT_name("LRAM0BASE1")
    6182                      .dwattr $C$DW$542, DW_AT_TI_symbol_name("_LRAM0BASE1")
    6183                      .dwattr $C$DW$542, DW_AT_data_member_location[DW_OP_plus_uconst 0x4080]
    6184                      .dwattr $C$DW$542, DW_AT_accessibility(DW_ACCESS_public)
    6185              $C$DW$543       .dwtag  DW_TAG_member
    6186                      .dwattr $C$DW$543, DW_AT_type(*$C$DW$T$20)
TMS320C55x Assembler PC v4.4.1 Mon Aug 15 03:55:17 2016

Tools Copyright (c) 1996-2012 Texas Instruments Incorporated
usb.asm                                                              PAGE  147

    6187                      .dwattr $C$DW$543, DW_AT_name("LRAM0BASE2")
    6188                      .dwattr $C$DW$543, DW_AT_TI_symbol_name("_LRAM0BASE2")
    6189                      .dwattr $C$DW$543, DW_AT_data_member_location[DW_OP_plus_uconst 0x4081]
    6190                      .dwattr $C$DW$543, DW_AT_accessibility(DW_ACCESS_public)
    6191              $C$DW$544       .dwtag  DW_TAG_member
    6192                      .dwattr $C$DW$544, DW_AT_type(*$C$DW$T$21)
    6193                      .dwattr $C$DW$544, DW_AT_name("RSVD58")
    6194                      .dwattr $C$DW$544, DW_AT_TI_symbol_name("_RSVD58")
    6195                      .dwattr $C$DW$544, DW_AT_data_member_location[DW_OP_plus_uconst 0x4082]
    6196                      .dwattr $C$DW$544, DW_AT_accessibility(DW_ACCESS_public)
    6197              $C$DW$545       .dwtag  DW_TAG_member
    6198                      .dwattr $C$DW$545, DW_AT_type(*$C$DW$T$20)
    6199                      .dwattr $C$DW$545, DW_AT_name("LRAM0SIZE")
    6200                      .dwattr $C$DW$545, DW_AT_TI_symbol_name("_LRAM0SIZE")
    6201                      .dwattr $C$DW$545, DW_AT_data_member_location[DW_OP_plus_uconst 0x4084]
    6202                      .dwattr $C$DW$545, DW_AT_accessibility(DW_ACCESS_public)
    6203              $C$DW$546       .dwtag  DW_TAG_member
    6204                      .dwattr $C$DW$546, DW_AT_type(*$C$DW$T$33)
    6205                      .dwattr $C$DW$546, DW_AT_name("RSVD59")
    6206                      .dwattr $C$DW$546, DW_AT_TI_symbol_name("_RSVD59")
    6207                      .dwattr $C$DW$546, DW_AT_data_member_location[DW_OP_plus_uconst 0x4085]
    6208                      .dwattr $C$DW$546, DW_AT_accessibility(DW_ACCESS_public)
    6209              $C$DW$547       .dwtag  DW_TAG_member
    6210                      .dwattr $C$DW$547, DW_AT_type(*$C$DW$T$20)
    6211                      .dwattr $C$DW$547, DW_AT_name("LRAM1BASE1")
    6212                      .dwattr $C$DW$547, DW_AT_TI_symbol_name("_LRAM1BASE1")
    6213                      .dwattr $C$DW$547, DW_AT_data_member_location[DW_OP_plus_uconst 0x4088]
    6214                      .dwattr $C$DW$547, DW_AT_accessibility(DW_ACCESS_public)
    6215              $C$DW$548       .dwtag  DW_TAG_member
    6216                      .dwattr $C$DW$548, DW_AT_type(*$C$DW$T$20)
    6217                      .dwattr $C$DW$548, DW_AT_name("LRAM1BASE2")
    6218                      .dwattr $C$DW$548, DW_AT_TI_symbol_name("_LRAM1BASE2")
    6219                      .dwattr $C$DW$548, DW_AT_data_member_location[DW_OP_plus_uconst 0x4089]
    6220                      .dwattr $C$DW$548, DW_AT_accessibility(DW_ACCESS_public)
    6221              $C$DW$549       .dwtag  DW_TAG_member
    6222                      .dwattr $C$DW$549, DW_AT_type(*$C$DW$T$25)
    6223                      .dwattr $C$DW$549, DW_AT_name("RSVD60")
    6224                      .dwattr $C$DW$549, DW_AT_TI_symbol_name("_RSVD60")
    6225                      .dwattr $C$DW$549, DW_AT_data_member_location[DW_OP_plus_uconst 0x408a]
    6226                      .dwattr $C$DW$549, DW_AT_accessibility(DW_ACCESS_public)
    6227              $C$DW$550       .dwtag  DW_TAG_member
    6228                      .dwattr $C$DW$550, DW_AT_type(*$C$DW$T$20)
    6229                      .dwattr $C$DW$550, DW_AT_name("PEND0")
    6230                      .dwattr $C$DW$550, DW_AT_TI_symbol_name("_PEND0")
    6231                      .dwattr $C$DW$550, DW_AT_data_member_location[DW_OP_plus_uconst 0x4090]
    6232                      .dwattr $C$DW$550, DW_AT_accessibility(DW_ACCESS_public)
    6233              $C$DW$551       .dwtag  DW_TAG_member
    6234                      .dwattr $C$DW$551, DW_AT_type(*$C$DW$T$20)
    6235                      .dwattr $C$DW$551, DW_AT_name("PEND1")
    6236                      .dwattr $C$DW$551, DW_AT_TI_symbol_name("_PEND1")
    6237                      .dwattr $C$DW$551, DW_AT_data_member_location[DW_OP_plus_uconst 0x4091]
    6238                      .dwattr $C$DW$551, DW_AT_accessibility(DW_ACCESS_public)
    6239              $C$DW$552       .dwtag  DW_TAG_member
    6240                      .dwattr $C$DW$552, DW_AT_type(*$C$DW$T$21)
    6241                      .dwattr $C$DW$552, DW_AT_name("RSVD61")
TMS320C55x Assembler PC v4.4.1 Mon Aug 15 03:55:17 2016

Tools Copyright (c) 1996-2012 Texas Instruments Incorporated
usb.asm                                                              PAGE  148

    6242                      .dwattr $C$DW$552, DW_AT_TI_symbol_name("_RSVD61")
    6243                      .dwattr $C$DW$552, DW_AT_data_member_location[DW_OP_plus_uconst 0x4092]
    6244                      .dwattr $C$DW$552, DW_AT_accessibility(DW_ACCESS_public)
    6245              $C$DW$553       .dwtag  DW_TAG_member
    6246                      .dwattr $C$DW$553, DW_AT_type(*$C$DW$T$20)
    6247                      .dwattr $C$DW$553, DW_AT_name("PEND2")
    6248                      .dwattr $C$DW$553, DW_AT_TI_symbol_name("_PEND2")
    6249                      .dwattr $C$DW$553, DW_AT_data_member_location[DW_OP_plus_uconst 0x4094]
    6250                      .dwattr $C$DW$553, DW_AT_accessibility(DW_ACCESS_public)
    6251              $C$DW$554       .dwtag  DW_TAG_member
    6252                      .dwattr $C$DW$554, DW_AT_type(*$C$DW$T$20)
    6253                      .dwattr $C$DW$554, DW_AT_name("PEND3")
    6254                      .dwattr $C$DW$554, DW_AT_TI_symbol_name("_PEND3")
    6255                      .dwattr $C$DW$554, DW_AT_data_member_location[DW_OP_plus_uconst 0x4095]
    6256                      .dwattr $C$DW$554, DW_AT_accessibility(DW_ACCESS_public)
    6257              $C$DW$555       .dwtag  DW_TAG_member
    6258                      .dwattr $C$DW$555, DW_AT_type(*$C$DW$T$21)
    6259                      .dwattr $C$DW$555, DW_AT_name("RSVD62")
    6260                      .dwattr $C$DW$555, DW_AT_TI_symbol_name("_RSVD62")
    6261                      .dwattr $C$DW$555, DW_AT_data_member_location[DW_OP_plus_uconst 0x4096]
    6262                      .dwattr $C$DW$555, DW_AT_accessibility(DW_ACCESS_public)
    6263              $C$DW$556       .dwtag  DW_TAG_member
    6264                      .dwattr $C$DW$556, DW_AT_type(*$C$DW$T$20)
    6265                      .dwattr $C$DW$556, DW_AT_name("PEND4")
    6266                      .dwattr $C$DW$556, DW_AT_TI_symbol_name("_PEND4")
    6267                      .dwattr $C$DW$556, DW_AT_data_member_location[DW_OP_plus_uconst 0x4098]
    6268                      .dwattr $C$DW$556, DW_AT_accessibility(DW_ACCESS_public)
    6269              $C$DW$557       .dwtag  DW_TAG_member
    6270                      .dwattr $C$DW$557, DW_AT_type(*$C$DW$T$20)
    6271                      .dwattr $C$DW$557, DW_AT_name("PEND5")
    6272                      .dwattr $C$DW$557, DW_AT_TI_symbol_name("_PEND5")
    6273                      .dwattr $C$DW$557, DW_AT_data_member_location[DW_OP_plus_uconst 0x4099]
    6274                      .dwattr $C$DW$557, DW_AT_accessibility(DW_ACCESS_public)
    6275              $C$DW$558       .dwtag  DW_TAG_member
    6276                      .dwattr $C$DW$558, DW_AT_type(*$C$DW$T$55)
    6277                      .dwattr $C$DW$558, DW_AT_name("RSVD64")
    6278                      .dwattr $C$DW$558, DW_AT_TI_symbol_name("_RSVD64")
    6279                      .dwattr $C$DW$558, DW_AT_data_member_location[DW_OP_plus_uconst 0x409a]
    6280                      .dwattr $C$DW$558, DW_AT_accessibility(DW_ACCESS_public)
    6281              $C$DW$559       .dwtag  DW_TAG_member
    6282                      .dwattr $C$DW$559, DW_AT_type(*$C$DW$T$57)
    6283                      .dwattr $C$DW$559, DW_AT_name("QMMEMREGR")
    6284                      .dwattr $C$DW$559, DW_AT_TI_symbol_name("_QMMEMREGR")
    6285                      .dwattr $C$DW$559, DW_AT_data_member_location[DW_OP_plus_uconst 0x5000]
    6286                      .dwattr $C$DW$559, DW_AT_accessibility(DW_ACCESS_public)
    6287              $C$DW$560       .dwtag  DW_TAG_member
    6288                      .dwattr $C$DW$560, DW_AT_type(*$C$DW$T$58)
    6289                      .dwattr $C$DW$560, DW_AT_name("RSVD66")
    6290                      .dwattr $C$DW$560, DW_AT_TI_symbol_name("_RSVD66")
    6291                      .dwattr $C$DW$560, DW_AT_data_member_location[DW_OP_plus_uconst 0x5100]
    6292                      .dwattr $C$DW$560, DW_AT_accessibility(DW_ACCESS_public)
    6293              $C$DW$561       .dwtag  DW_TAG_member
    6294                      .dwattr $C$DW$561, DW_AT_type(*$C$DW$T$60)
    6295                      .dwattr $C$DW$561, DW_AT_name("QMQN")
    6296                      .dwattr $C$DW$561, DW_AT_TI_symbol_name("_QMQN")
TMS320C55x Assembler PC v4.4.1 Mon Aug 15 03:55:17 2016

Tools Copyright (c) 1996-2012 Texas Instruments Incorporated
usb.asm                                                              PAGE  149

    6297                      .dwattr $C$DW$561, DW_AT_data_member_location[DW_OP_plus_uconst 0x6000]
    6298                      .dwattr $C$DW$561, DW_AT_accessibility(DW_ACCESS_public)
    6299              $C$DW$562       .dwtag  DW_TAG_member
    6300                      .dwattr $C$DW$562, DW_AT_type(*$C$DW$T$61)
    6301                      .dwattr $C$DW$562, DW_AT_name("RSVD68")
    6302                      .dwattr $C$DW$562, DW_AT_TI_symbol_name("_RSVD68")
    6303                      .dwattr $C$DW$562, DW_AT_data_member_location[DW_OP_plus_uconst 0x6400]
    6304                      .dwattr $C$DW$562, DW_AT_accessibility(DW_ACCESS_public)
    6305              $C$DW$563       .dwtag  DW_TAG_member
    6306                      .dwattr $C$DW$563, DW_AT_type(*$C$DW$T$63)
    6307                      .dwattr $C$DW$563, DW_AT_name("QMQNS")
    6308                      .dwattr $C$DW$563, DW_AT_TI_symbol_name("_QMQNS")
    6309                      .dwattr $C$DW$563, DW_AT_data_member_location[DW_OP_plus_uconst 0x6800]
    6310                      .dwattr $C$DW$563, DW_AT_accessibility(DW_ACCESS_public)
    6311                      .dwendtag $C$DW$T$64
    6312              
    6313              $C$DW$T$133     .dwtag  DW_TAG_typedef, DW_AT_name("CSL_UsbRegs")
    6314                      .dwattr $C$DW$T$133, DW_AT_type(*$C$DW$T$64)
    6315                      .dwattr $C$DW$T$133, DW_AT_language(DW_LANG_C)
    6316              $C$DW$564       .dwtag  DW_TAG_TI_far_type
    6317                      .dwattr $C$DW$564, DW_AT_type(*$C$DW$T$133)
    6318              $C$DW$565       .dwtag  DW_TAG_TI_ioport_type
    6319                      .dwattr $C$DW$565, DW_AT_type(*$C$DW$564)
    6320              $C$DW$T$134     .dwtag  DW_TAG_volatile_type
    6321                      .dwattr $C$DW$T$134, DW_AT_type(*$C$DW$565)
    6322              $C$DW$T$135     .dwtag  DW_TAG_pointer_type
    6323                      .dwattr $C$DW$T$135, DW_AT_type(*$C$DW$T$134)
    6324                      .dwattr $C$DW$T$135, DW_AT_address_class(0x10)
    6325              $C$DW$T$136     .dwtag  DW_TAG_typedef, DW_AT_name("CSL_UsbRegsOvly")
    6326                      .dwattr $C$DW$T$136, DW_AT_type(*$C$DW$T$135)
    6327                      .dwattr $C$DW$T$136, DW_AT_language(DW_LANG_C)
    6328              
    6329              $C$DW$T$66      .dwtag  DW_TAG_structure_type
    6330                      .dwattr $C$DW$T$66, DW_AT_byte_size(0x48)
    6331              $C$DW$566       .dwtag  DW_TAG_member
    6332                      .dwattr $C$DW$566, DW_AT_type(*$C$DW$T$20)
    6333                      .dwattr $C$DW$566, DW_AT_name("EBSR")
    6334                      .dwattr $C$DW$566, DW_AT_TI_symbol_name("_EBSR")
    6335                      .dwattr $C$DW$566, DW_AT_data_member_location[DW_OP_plus_uconst 0x0]
    6336                      .dwattr $C$DW$566, DW_AT_accessibility(DW_ACCESS_public)
    6337              $C$DW$567       .dwtag  DW_TAG_member
    6338                      .dwattr $C$DW$567, DW_AT_type(*$C$DW$T$20)
    6339                      .dwattr $C$DW$567, DW_AT_name("RSVD0")
    6340                      .dwattr $C$DW$567, DW_AT_TI_symbol_name("_RSVD0")
    6341                      .dwattr $C$DW$567, DW_AT_data_member_location[DW_OP_plus_uconst 0x1]
    6342                      .dwattr $C$DW$567, DW_AT_accessibility(DW_ACCESS_public)
    6343              $C$DW$568       .dwtag  DW_TAG_member
    6344                      .dwattr $C$DW$568, DW_AT_type(*$C$DW$T$20)
    6345                      .dwattr $C$DW$568, DW_AT_name("PCGCR1")
    6346                      .dwattr $C$DW$568, DW_AT_TI_symbol_name("_PCGCR1")
    6347                      .dwattr $C$DW$568, DW_AT_data_member_location[DW_OP_plus_uconst 0x2]
    6348                      .dwattr $C$DW$568, DW_AT_accessibility(DW_ACCESS_public)
    6349              $C$DW$569       .dwtag  DW_TAG_member
    6350                      .dwattr $C$DW$569, DW_AT_type(*$C$DW$T$20)
    6351                      .dwattr $C$DW$569, DW_AT_name("PCGCR2")
TMS320C55x Assembler PC v4.4.1 Mon Aug 15 03:55:17 2016

Tools Copyright (c) 1996-2012 Texas Instruments Incorporated
usb.asm                                                              PAGE  150

    6352                      .dwattr $C$DW$569, DW_AT_TI_symbol_name("_PCGCR2")
    6353                      .dwattr $C$DW$569, DW_AT_data_member_location[DW_OP_plus_uconst 0x3]
    6354                      .dwattr $C$DW$569, DW_AT_accessibility(DW_ACCESS_public)
    6355              $C$DW$570       .dwtag  DW_TAG_member
    6356                      .dwattr $C$DW$570, DW_AT_type(*$C$DW$T$20)
    6357                      .dwattr $C$DW$570, DW_AT_name("PSRCR")
    6358                      .dwattr $C$DW$570, DW_AT_TI_symbol_name("_PSRCR")
    6359                      .dwattr $C$DW$570, DW_AT_data_member_location[DW_OP_plus_uconst 0x4]
    6360                      .dwattr $C$DW$570, DW_AT_accessibility(DW_ACCESS_public)
    6361              $C$DW$571       .dwtag  DW_TAG_member
    6362                      .dwattr $C$DW$571, DW_AT_type(*$C$DW$T$20)
    6363                      .dwattr $C$DW$571, DW_AT_name("PRCR")
    6364                      .dwattr $C$DW$571, DW_AT_TI_symbol_name("_PRCR")
    6365                      .dwattr $C$DW$571, DW_AT_data_member_location[DW_OP_plus_uconst 0x5]
    6366                      .dwattr $C$DW$571, DW_AT_accessibility(DW_ACCESS_public)
    6367              $C$DW$572       .dwtag  DW_TAG_member
    6368                      .dwattr $C$DW$572, DW_AT_type(*$C$DW$T$26)
    6369                      .dwattr $C$DW$572, DW_AT_name("RSVD1")
    6370                      .dwattr $C$DW$572, DW_AT_TI_symbol_name("_RSVD1")
    6371                      .dwattr $C$DW$572, DW_AT_data_member_location[DW_OP_plus_uconst 0x6]
    6372                      .dwattr $C$DW$572, DW_AT_accessibility(DW_ACCESS_public)
    6373              $C$DW$573       .dwtag  DW_TAG_member
    6374                      .dwattr $C$DW$573, DW_AT_type(*$C$DW$T$20)
    6375                      .dwattr $C$DW$573, DW_AT_name("TIAFR")
    6376                      .dwattr $C$DW$573, DW_AT_TI_symbol_name("_TIAFR")
    6377                      .dwattr $C$DW$573, DW_AT_data_member_location[DW_OP_plus_uconst 0x14]
    6378                      .dwattr $C$DW$573, DW_AT_accessibility(DW_ACCESS_public)
    6379              $C$DW$574       .dwtag  DW_TAG_member
    6380                      .dwattr $C$DW$574, DW_AT_type(*$C$DW$T$20)
    6381                      .dwattr $C$DW$574, DW_AT_name("RSVD2")
    6382                      .dwattr $C$DW$574, DW_AT_TI_symbol_name("_RSVD2")
    6383                      .dwattr $C$DW$574, DW_AT_data_member_location[DW_OP_plus_uconst 0x15]
    6384                      .dwattr $C$DW$574, DW_AT_accessibility(DW_ACCESS_public)
    6385              $C$DW$575       .dwtag  DW_TAG_member
    6386                      .dwattr $C$DW$575, DW_AT_type(*$C$DW$T$20)
    6387                      .dwattr $C$DW$575, DW_AT_name("ODSCR")
    6388                      .dwattr $C$DW$575, DW_AT_TI_symbol_name("_ODSCR")
    6389                      .dwattr $C$DW$575, DW_AT_data_member_location[DW_OP_plus_uconst 0x16]
    6390                      .dwattr $C$DW$575, DW_AT_accessibility(DW_ACCESS_public)
    6391              $C$DW$576       .dwtag  DW_TAG_member
    6392                      .dwattr $C$DW$576, DW_AT_type(*$C$DW$T$20)
    6393                      .dwattr $C$DW$576, DW_AT_name("PDINHIBR1")
    6394                      .dwattr $C$DW$576, DW_AT_TI_symbol_name("_PDINHIBR1")
    6395                      .dwattr $C$DW$576, DW_AT_data_member_location[DW_OP_plus_uconst 0x17]
    6396                      .dwattr $C$DW$576, DW_AT_accessibility(DW_ACCESS_public)
    6397              $C$DW$577       .dwtag  DW_TAG_member
    6398                      .dwattr $C$DW$577, DW_AT_type(*$C$DW$T$20)
    6399                      .dwattr $C$DW$577, DW_AT_name("PDINHIBR2")
    6400                      .dwattr $C$DW$577, DW_AT_TI_symbol_name("_PDINHIBR2")
    6401                      .dwattr $C$DW$577, DW_AT_data_member_location[DW_OP_plus_uconst 0x18]
    6402                      .dwattr $C$DW$577, DW_AT_accessibility(DW_ACCESS_public)
    6403              $C$DW$578       .dwtag  DW_TAG_member
    6404                      .dwattr $C$DW$578, DW_AT_type(*$C$DW$T$20)
    6405                      .dwattr $C$DW$578, DW_AT_name("PDINHIBR3")
    6406                      .dwattr $C$DW$578, DW_AT_TI_symbol_name("_PDINHIBR3")
TMS320C55x Assembler PC v4.4.1 Mon Aug 15 03:55:17 2016

Tools Copyright (c) 1996-2012 Texas Instruments Incorporated
usb.asm                                                              PAGE  151

    6407                      .dwattr $C$DW$578, DW_AT_data_member_location[DW_OP_plus_uconst 0x19]
    6408                      .dwattr $C$DW$578, DW_AT_accessibility(DW_ACCESS_public)
    6409              $C$DW$579       .dwtag  DW_TAG_member
    6410                      .dwattr $C$DW$579, DW_AT_type(*$C$DW$T$20)
    6411                      .dwattr $C$DW$579, DW_AT_name("DMA0CESR1")
    6412                      .dwattr $C$DW$579, DW_AT_TI_symbol_name("_DMA0CESR1")
    6413                      .dwattr $C$DW$579, DW_AT_data_member_location[DW_OP_plus_uconst 0x1a]
    6414                      .dwattr $C$DW$579, DW_AT_accessibility(DW_ACCESS_public)
    6415              $C$DW$580       .dwtag  DW_TAG_member
    6416                      .dwattr $C$DW$580, DW_AT_type(*$C$DW$T$20)
    6417                      .dwattr $C$DW$580, DW_AT_name("DMA0CESR2")
    6418                      .dwattr $C$DW$580, DW_AT_TI_symbol_name("_DMA0CESR2")
    6419                      .dwattr $C$DW$580, DW_AT_data_member_location[DW_OP_plus_uconst 0x1b]
    6420                      .dwattr $C$DW$580, DW_AT_accessibility(DW_ACCESS_public)
    6421              $C$DW$581       .dwtag  DW_TAG_member
    6422                      .dwattr $C$DW$581, DW_AT_type(*$C$DW$T$20)
    6423                      .dwattr $C$DW$581, DW_AT_name("DMA1CESR1")
    6424                      .dwattr $C$DW$581, DW_AT_TI_symbol_name("_DMA1CESR1")
    6425                      .dwattr $C$DW$581, DW_AT_data_member_location[DW_OP_plus_uconst 0x1c]
    6426                      .dwattr $C$DW$581, DW_AT_accessibility(DW_ACCESS_public)
    6427              $C$DW$582       .dwtag  DW_TAG_member
    6428                      .dwattr $C$DW$582, DW_AT_type(*$C$DW$T$20)
    6429                      .dwattr $C$DW$582, DW_AT_name("DMA1CESR2")
    6430                      .dwattr $C$DW$582, DW_AT_TI_symbol_name("_DMA1CESR2")
    6431                      .dwattr $C$DW$582, DW_AT_data_member_location[DW_OP_plus_uconst 0x1d]
    6432                      .dwattr $C$DW$582, DW_AT_accessibility(DW_ACCESS_public)
    6433              $C$DW$583       .dwtag  DW_TAG_member
    6434                      .dwattr $C$DW$583, DW_AT_type(*$C$DW$T$20)
    6435                      .dwattr $C$DW$583, DW_AT_name("SDRAMCCR")
    6436                      .dwattr $C$DW$583, DW_AT_TI_symbol_name("_SDRAMCCR")
    6437                      .dwattr $C$DW$583, DW_AT_data_member_location[DW_OP_plus_uconst 0x1e]
    6438                      .dwattr $C$DW$583, DW_AT_accessibility(DW_ACCESS_public)
    6439              $C$DW$584       .dwtag  DW_TAG_member
    6440                      .dwattr $C$DW$584, DW_AT_type(*$C$DW$T$20)
    6441                      .dwattr $C$DW$584, DW_AT_name("CCR2")
    6442                      .dwattr $C$DW$584, DW_AT_TI_symbol_name("_CCR2")
    6443                      .dwattr $C$DW$584, DW_AT_data_member_location[DW_OP_plus_uconst 0x1f]
    6444                      .dwattr $C$DW$584, DW_AT_accessibility(DW_ACCESS_public)
    6445              $C$DW$585       .dwtag  DW_TAG_member
    6446                      .dwattr $C$DW$585, DW_AT_type(*$C$DW$T$20)
    6447                      .dwattr $C$DW$585, DW_AT_name("CGCR1")
    6448                      .dwattr $C$DW$585, DW_AT_TI_symbol_name("_CGCR1")
    6449                      .dwattr $C$DW$585, DW_AT_data_member_location[DW_OP_plus_uconst 0x20]
    6450                      .dwattr $C$DW$585, DW_AT_accessibility(DW_ACCESS_public)
    6451              $C$DW$586       .dwtag  DW_TAG_member
    6452                      .dwattr $C$DW$586, DW_AT_type(*$C$DW$T$20)
    6453                      .dwattr $C$DW$586, DW_AT_name("CGICR")
    6454                      .dwattr $C$DW$586, DW_AT_TI_symbol_name("_CGICR")
    6455                      .dwattr $C$DW$586, DW_AT_data_member_location[DW_OP_plus_uconst 0x21]
    6456                      .dwattr $C$DW$586, DW_AT_accessibility(DW_ACCESS_public)
    6457              $C$DW$587       .dwtag  DW_TAG_member
    6458                      .dwattr $C$DW$587, DW_AT_type(*$C$DW$T$20)
    6459                      .dwattr $C$DW$587, DW_AT_name("CGCR2")
    6460                      .dwattr $C$DW$587, DW_AT_TI_symbol_name("_CGCR2")
    6461                      .dwattr $C$DW$587, DW_AT_data_member_location[DW_OP_plus_uconst 0x22]
TMS320C55x Assembler PC v4.4.1 Mon Aug 15 03:55:17 2016

Tools Copyright (c) 1996-2012 Texas Instruments Incorporated
usb.asm                                                              PAGE  152

    6462                      .dwattr $C$DW$587, DW_AT_accessibility(DW_ACCESS_public)
    6463              $C$DW$588       .dwtag  DW_TAG_member
    6464                      .dwattr $C$DW$588, DW_AT_type(*$C$DW$T$20)
    6465                      .dwattr $C$DW$588, DW_AT_name("CGOCR")
    6466                      .dwattr $C$DW$588, DW_AT_TI_symbol_name("_CGOCR")
    6467                      .dwattr $C$DW$588, DW_AT_data_member_location[DW_OP_plus_uconst 0x23]
    6468                      .dwattr $C$DW$588, DW_AT_accessibility(DW_ACCESS_public)
    6469              $C$DW$589       .dwtag  DW_TAG_member
    6470                      .dwattr $C$DW$589, DW_AT_type(*$C$DW$T$20)
    6471                      .dwattr $C$DW$589, DW_AT_name("CCSSR")
    6472                      .dwattr $C$DW$589, DW_AT_TI_symbol_name("_CCSSR")
    6473                      .dwattr $C$DW$589, DW_AT_data_member_location[DW_OP_plus_uconst 0x24]
    6474                      .dwattr $C$DW$589, DW_AT_accessibility(DW_ACCESS_public)
    6475              $C$DW$590       .dwtag  DW_TAG_member
    6476                      .dwattr $C$DW$590, DW_AT_type(*$C$DW$T$20)
    6477                      .dwattr $C$DW$590, DW_AT_name("RSVD3")
    6478                      .dwattr $C$DW$590, DW_AT_TI_symbol_name("_RSVD3")
    6479                      .dwattr $C$DW$590, DW_AT_data_member_location[DW_OP_plus_uconst 0x25]
    6480                      .dwattr $C$DW$590, DW_AT_accessibility(DW_ACCESS_public)
    6481              $C$DW$591       .dwtag  DW_TAG_member
    6482                      .dwattr $C$DW$591, DW_AT_type(*$C$DW$T$20)
    6483                      .dwattr $C$DW$591, DW_AT_name("ECDR")
    6484                      .dwattr $C$DW$591, DW_AT_TI_symbol_name("_ECDR")
    6485                      .dwattr $C$DW$591, DW_AT_data_member_location[DW_OP_plus_uconst 0x26]
    6486                      .dwattr $C$DW$591, DW_AT_accessibility(DW_ACCESS_public)
    6487              $C$DW$592       .dwtag  DW_TAG_member
    6488                      .dwattr $C$DW$592, DW_AT_type(*$C$DW$T$20)
    6489                      .dwattr $C$DW$592, DW_AT_name("RSVD4")
    6490                      .dwattr $C$DW$592, DW_AT_TI_symbol_name("_RSVD4")
    6491                      .dwattr $C$DW$592, DW_AT_data_member_location[DW_OP_plus_uconst 0x27]
    6492                      .dwattr $C$DW$592, DW_AT_accessibility(DW_ACCESS_public)
    6493              $C$DW$593       .dwtag  DW_TAG_member
    6494                      .dwattr $C$DW$593, DW_AT_type(*$C$DW$T$20)
    6495                      .dwattr $C$DW$593, DW_AT_name("RAMSLPMDCNTLR1")
    6496                      .dwattr $C$DW$593, DW_AT_TI_symbol_name("_RAMSLPMDCNTLR1")
    6497                      .dwattr $C$DW$593, DW_AT_data_member_location[DW_OP_plus_uconst 0x28]
    6498                      .dwattr $C$DW$593, DW_AT_accessibility(DW_ACCESS_public)
    6499              $C$DW$594       .dwtag  DW_TAG_member
    6500                      .dwattr $C$DW$594, DW_AT_type(*$C$DW$T$20)
    6501                      .dwattr $C$DW$594, DW_AT_name("RSVD5")
    6502                      .dwattr $C$DW$594, DW_AT_TI_symbol_name("_RSVD5")
    6503                      .dwattr $C$DW$594, DW_AT_data_member_location[DW_OP_plus_uconst 0x29]
    6504                      .dwattr $C$DW$594, DW_AT_accessibility(DW_ACCESS_public)
    6505              $C$DW$595       .dwtag  DW_TAG_member
    6506                      .dwattr $C$DW$595, DW_AT_type(*$C$DW$T$20)
    6507                      .dwattr $C$DW$595, DW_AT_name("RAMSLPMDCNTLR2")
    6508                      .dwattr $C$DW$595, DW_AT_TI_symbol_name("_RAMSLPMDCNTLR2")
    6509                      .dwattr $C$DW$595, DW_AT_data_member_location[DW_OP_plus_uconst 0x2a]
    6510                      .dwattr $C$DW$595, DW_AT_accessibility(DW_ACCESS_public)
    6511              $C$DW$596       .dwtag  DW_TAG_member
    6512                      .dwattr $C$DW$596, DW_AT_type(*$C$DW$T$20)
    6513                      .dwattr $C$DW$596, DW_AT_name("RAMSLPMDCNTLR3")
    6514                      .dwattr $C$DW$596, DW_AT_TI_symbol_name("_RAMSLPMDCNTLR3")
    6515                      .dwattr $C$DW$596, DW_AT_data_member_location[DW_OP_plus_uconst 0x2b]
    6516                      .dwattr $C$DW$596, DW_AT_accessibility(DW_ACCESS_public)
TMS320C55x Assembler PC v4.4.1 Mon Aug 15 03:55:17 2016

Tools Copyright (c) 1996-2012 Texas Instruments Incorporated
usb.asm                                                              PAGE  153

    6517              $C$DW$597       .dwtag  DW_TAG_member
    6518                      .dwattr $C$DW$597, DW_AT_type(*$C$DW$T$20)
    6519                      .dwattr $C$DW$597, DW_AT_name("RAMSLPMDCNTLR4")
    6520                      .dwattr $C$DW$597, DW_AT_TI_symbol_name("_RAMSLPMDCNTLR4")
    6521                      .dwattr $C$DW$597, DW_AT_data_member_location[DW_OP_plus_uconst 0x2c]
    6522                      .dwattr $C$DW$597, DW_AT_accessibility(DW_ACCESS_public)
    6523              $C$DW$598       .dwtag  DW_TAG_member
    6524                      .dwattr $C$DW$598, DW_AT_type(*$C$DW$T$20)
    6525                      .dwattr $C$DW$598, DW_AT_name("RAMSLPMDCNTLR5")
    6526                      .dwattr $C$DW$598, DW_AT_TI_symbol_name("_RAMSLPMDCNTLR5")
    6527                      .dwattr $C$DW$598, DW_AT_data_member_location[DW_OP_plus_uconst 0x2d]
    6528                      .dwattr $C$DW$598, DW_AT_accessibility(DW_ACCESS_public)
    6529              $C$DW$599       .dwtag  DW_TAG_member
    6530                      .dwattr $C$DW$599, DW_AT_type(*$C$DW$T$21)
    6531                      .dwattr $C$DW$599, DW_AT_name("RSVD6")
    6532                      .dwattr $C$DW$599, DW_AT_TI_symbol_name("_RSVD6")
    6533                      .dwattr $C$DW$599, DW_AT_data_member_location[DW_OP_plus_uconst 0x2e]
    6534                      .dwattr $C$DW$599, DW_AT_accessibility(DW_ACCESS_public)
    6535              $C$DW$600       .dwtag  DW_TAG_member
    6536                      .dwattr $C$DW$600, DW_AT_type(*$C$DW$T$20)
    6537                      .dwattr $C$DW$600, DW_AT_name("DMAIFR")
    6538                      .dwattr $C$DW$600, DW_AT_TI_symbol_name("_DMAIFR")
    6539                      .dwattr $C$DW$600, DW_AT_data_member_location[DW_OP_plus_uconst 0x30]
    6540                      .dwattr $C$DW$600, DW_AT_accessibility(DW_ACCESS_public)
    6541              $C$DW$601       .dwtag  DW_TAG_member
    6542                      .dwattr $C$DW$601, DW_AT_type(*$C$DW$T$20)
    6543                      .dwattr $C$DW$601, DW_AT_name("DMAIER")
    6544                      .dwattr $C$DW$601, DW_AT_TI_symbol_name("_DMAIER")
    6545                      .dwattr $C$DW$601, DW_AT_data_member_location[DW_OP_plus_uconst 0x31]
    6546                      .dwattr $C$DW$601, DW_AT_accessibility(DW_ACCESS_public)
    6547              $C$DW$602       .dwtag  DW_TAG_member
    6548                      .dwattr $C$DW$602, DW_AT_type(*$C$DW$T$20)
    6549                      .dwattr $C$DW$602, DW_AT_name("USBSCR")
    6550                      .dwattr $C$DW$602, DW_AT_TI_symbol_name("_USBSCR")
    6551                      .dwattr $C$DW$602, DW_AT_data_member_location[DW_OP_plus_uconst 0x32]
    6552                      .dwattr $C$DW$602, DW_AT_accessibility(DW_ACCESS_public)
    6553              $C$DW$603       .dwtag  DW_TAG_member
    6554                      .dwattr $C$DW$603, DW_AT_type(*$C$DW$T$20)
    6555                      .dwattr $C$DW$603, DW_AT_name("ESCR")
    6556                      .dwattr $C$DW$603, DW_AT_TI_symbol_name("_ESCR")
    6557                      .dwattr $C$DW$603, DW_AT_data_member_location[DW_OP_plus_uconst 0x33]
    6558                      .dwattr $C$DW$603, DW_AT_accessibility(DW_ACCESS_public)
    6559              $C$DW$604       .dwtag  DW_TAG_member
    6560                      .dwattr $C$DW$604, DW_AT_type(*$C$DW$T$21)
    6561                      .dwattr $C$DW$604, DW_AT_name("RSVD7")
    6562                      .dwattr $C$DW$604, DW_AT_TI_symbol_name("_RSVD7")
    6563                      .dwattr $C$DW$604, DW_AT_data_member_location[DW_OP_plus_uconst 0x34]
    6564                      .dwattr $C$DW$604, DW_AT_accessibility(DW_ACCESS_public)
    6565              $C$DW$605       .dwtag  DW_TAG_member
    6566                      .dwattr $C$DW$605, DW_AT_type(*$C$DW$T$20)
    6567                      .dwattr $C$DW$605, DW_AT_name("DMA2CESR1")
    6568                      .dwattr $C$DW$605, DW_AT_TI_symbol_name("_DMA2CESR1")
    6569                      .dwattr $C$DW$605, DW_AT_data_member_location[DW_OP_plus_uconst 0x36]
    6570                      .dwattr $C$DW$605, DW_AT_accessibility(DW_ACCESS_public)
    6571              $C$DW$606       .dwtag  DW_TAG_member
TMS320C55x Assembler PC v4.4.1 Mon Aug 15 03:55:17 2016

Tools Copyright (c) 1996-2012 Texas Instruments Incorporated
usb.asm                                                              PAGE  154

    6572                      .dwattr $C$DW$606, DW_AT_type(*$C$DW$T$20)
    6573                      .dwattr $C$DW$606, DW_AT_name("DMA2CESR2")
    6574                      .dwattr $C$DW$606, DW_AT_TI_symbol_name("_DMA2CESR2")
    6575                      .dwattr $C$DW$606, DW_AT_data_member_location[DW_OP_plus_uconst 0x37]
    6576                      .dwattr $C$DW$606, DW_AT_accessibility(DW_ACCESS_public)
    6577              $C$DW$607       .dwtag  DW_TAG_member
    6578                      .dwattr $C$DW$607, DW_AT_type(*$C$DW$T$20)
    6579                      .dwattr $C$DW$607, DW_AT_name("DMA3CESR1")
    6580                      .dwattr $C$DW$607, DW_AT_TI_symbol_name("_DMA3CESR1")
    6581                      .dwattr $C$DW$607, DW_AT_data_member_location[DW_OP_plus_uconst 0x38]
    6582                      .dwattr $C$DW$607, DW_AT_accessibility(DW_ACCESS_public)
    6583              $C$DW$608       .dwtag  DW_TAG_member
    6584                      .dwattr $C$DW$608, DW_AT_type(*$C$DW$T$20)
    6585                      .dwattr $C$DW$608, DW_AT_name("DMA3CESR2")
    6586                      .dwattr $C$DW$608, DW_AT_TI_symbol_name("_DMA3CESR2")
    6587                      .dwattr $C$DW$608, DW_AT_data_member_location[DW_OP_plus_uconst 0x39]
    6588                      .dwattr $C$DW$608, DW_AT_accessibility(DW_ACCESS_public)
    6589              $C$DW$609       .dwtag  DW_TAG_member
    6590                      .dwattr $C$DW$609, DW_AT_type(*$C$DW$T$20)
    6591                      .dwattr $C$DW$609, DW_AT_name("CLKSTOP")
    6592                      .dwattr $C$DW$609, DW_AT_TI_symbol_name("_CLKSTOP")
    6593                      .dwattr $C$DW$609, DW_AT_data_member_location[DW_OP_plus_uconst 0x3a]
    6594                      .dwattr $C$DW$609, DW_AT_accessibility(DW_ACCESS_public)
    6595              $C$DW$610       .dwtag  DW_TAG_member
    6596                      .dwattr $C$DW$610, DW_AT_type(*$C$DW$T$65)
    6597                      .dwattr $C$DW$610, DW_AT_name("RSVD8")
    6598                      .dwattr $C$DW$610, DW_AT_TI_symbol_name("_RSVD8")
    6599                      .dwattr $C$DW$610, DW_AT_data_member_location[DW_OP_plus_uconst 0x3b]
    6600                      .dwattr $C$DW$610, DW_AT_accessibility(DW_ACCESS_public)
    6601              $C$DW$611       .dwtag  DW_TAG_member
    6602                      .dwattr $C$DW$611, DW_AT_type(*$C$DW$T$20)
    6603                      .dwattr $C$DW$611, DW_AT_name("DIEIDR0")
    6604                      .dwattr $C$DW$611, DW_AT_TI_symbol_name("_DIEIDR0")
    6605                      .dwattr $C$DW$611, DW_AT_data_member_location[DW_OP_plus_uconst 0x40]
    6606                      .dwattr $C$DW$611, DW_AT_accessibility(DW_ACCESS_public)
    6607              $C$DW$612       .dwtag  DW_TAG_member
    6608                      .dwattr $C$DW$612, DW_AT_type(*$C$DW$T$20)
    6609                      .dwattr $C$DW$612, DW_AT_name("DIEIDR1")
    6610                      .dwattr $C$DW$612, DW_AT_TI_symbol_name("_DIEIDR1")
    6611                      .dwattr $C$DW$612, DW_AT_data_member_location[DW_OP_plus_uconst 0x41]
    6612                      .dwattr $C$DW$612, DW_AT_accessibility(DW_ACCESS_public)
    6613              $C$DW$613       .dwtag  DW_TAG_member
    6614                      .dwattr $C$DW$613, DW_AT_type(*$C$DW$T$20)
    6615                      .dwattr $C$DW$613, DW_AT_name("DIEIDR2")
    6616                      .dwattr $C$DW$613, DW_AT_TI_symbol_name("_DIEIDR2")
    6617                      .dwattr $C$DW$613, DW_AT_data_member_location[DW_OP_plus_uconst 0x42]
    6618                      .dwattr $C$DW$613, DW_AT_accessibility(DW_ACCESS_public)
    6619              $C$DW$614       .dwtag  DW_TAG_member
    6620                      .dwattr $C$DW$614, DW_AT_type(*$C$DW$T$20)
    6621                      .dwattr $C$DW$614, DW_AT_name("DIEIDR3")
    6622                      .dwattr $C$DW$614, DW_AT_TI_symbol_name("_DIEIDR3")
    6623                      .dwattr $C$DW$614, DW_AT_data_member_location[DW_OP_plus_uconst 0x43]
    6624                      .dwattr $C$DW$614, DW_AT_accessibility(DW_ACCESS_public)
    6625              $C$DW$615       .dwtag  DW_TAG_member
    6626                      .dwattr $C$DW$615, DW_AT_type(*$C$DW$T$20)
TMS320C55x Assembler PC v4.4.1 Mon Aug 15 03:55:17 2016

Tools Copyright (c) 1996-2012 Texas Instruments Incorporated
usb.asm                                                              PAGE  155

    6627                      .dwattr $C$DW$615, DW_AT_name("DIEIDR4")
    6628                      .dwattr $C$DW$615, DW_AT_TI_symbol_name("_DIEIDR4")
    6629                      .dwattr $C$DW$615, DW_AT_data_member_location[DW_OP_plus_uconst 0x44]
    6630                      .dwattr $C$DW$615, DW_AT_accessibility(DW_ACCESS_public)
    6631              $C$DW$616       .dwtag  DW_TAG_member
    6632                      .dwattr $C$DW$616, DW_AT_type(*$C$DW$T$20)
    6633                      .dwattr $C$DW$616, DW_AT_name("DIEIDR5")
    6634                      .dwattr $C$DW$616, DW_AT_TI_symbol_name("_DIEIDR5")
    6635                      .dwattr $C$DW$616, DW_AT_data_member_location[DW_OP_plus_uconst 0x45]
    6636                      .dwattr $C$DW$616, DW_AT_accessibility(DW_ACCESS_public)
    6637              $C$DW$617       .dwtag  DW_TAG_member
    6638                      .dwattr $C$DW$617, DW_AT_type(*$C$DW$T$20)
    6639                      .dwattr $C$DW$617, DW_AT_name("DIEIDR6")
    6640                      .dwattr $C$DW$617, DW_AT_TI_symbol_name("_DIEIDR6")
    6641                      .dwattr $C$DW$617, DW_AT_data_member_location[DW_OP_plus_uconst 0x46]
    6642                      .dwattr $C$DW$617, DW_AT_accessibility(DW_ACCESS_public)
    6643              $C$DW$618       .dwtag  DW_TAG_member
    6644                      .dwattr $C$DW$618, DW_AT_type(*$C$DW$T$20)
    6645                      .dwattr $C$DW$618, DW_AT_name("DIEIDR7")
    6646                      .dwattr $C$DW$618, DW_AT_TI_symbol_name("_DIEIDR7")
    6647                      .dwattr $C$DW$618, DW_AT_data_member_location[DW_OP_plus_uconst 0x47]
    6648                      .dwattr $C$DW$618, DW_AT_accessibility(DW_ACCESS_public)
    6649                      .dwendtag $C$DW$T$66
    6650              
    6651              $C$DW$T$137     .dwtag  DW_TAG_typedef, DW_AT_name("CSL_SysRegs")
    6652                      .dwattr $C$DW$T$137, DW_AT_type(*$C$DW$T$66)
    6653                      .dwattr $C$DW$T$137, DW_AT_language(DW_LANG_C)
    6654              $C$DW$619       .dwtag  DW_TAG_TI_far_type
    6655                      .dwattr $C$DW$619, DW_AT_type(*$C$DW$T$137)
    6656              $C$DW$620       .dwtag  DW_TAG_TI_ioport_type
    6657                      .dwattr $C$DW$620, DW_AT_type(*$C$DW$619)
    6658              $C$DW$T$138     .dwtag  DW_TAG_volatile_type
    6659                      .dwattr $C$DW$T$138, DW_AT_type(*$C$DW$620)
    6660              $C$DW$T$139     .dwtag  DW_TAG_pointer_type
    6661                      .dwattr $C$DW$T$139, DW_AT_type(*$C$DW$T$138)
    6662                      .dwattr $C$DW$T$139, DW_AT_address_class(0x10)
    6663              $C$DW$T$140     .dwtag  DW_TAG_typedef, DW_AT_name("CSL_SysRegsOvly")
    6664                      .dwattr $C$DW$T$140, DW_AT_type(*$C$DW$T$139)
    6665                      .dwattr $C$DW$T$140, DW_AT_language(DW_LANG_C)
    6666              
    6667              $C$DW$T$71      .dwtag  DW_TAG_structure_type
    6668                      .dwattr $C$DW$T$71, DW_AT_byte_size(0x08)
    6669              $C$DW$621       .dwtag  DW_TAG_member
    6670                      .dwattr $C$DW$621, DW_AT_type(*$C$DW$T$69)
    6671                      .dwattr $C$DW$621, DW_AT_name("funcAddr")
    6672                      .dwattr $C$DW$621, DW_AT_TI_symbol_name("_funcAddr")
    6673                      .dwattr $C$DW$621, DW_AT_data_member_location[DW_OP_plus_uconst 0x0]
    6674                      .dwattr $C$DW$621, DW_AT_accessibility(DW_ACCESS_public)
    6675              $C$DW$622       .dwtag  DW_TAG_member
    6676                      .dwattr $C$DW$622, DW_AT_type(*$C$DW$T$70)
    6677                      .dwattr $C$DW$622, DW_AT_name("funcArg")
    6678                      .dwattr $C$DW$622, DW_AT_TI_symbol_name("_funcArg")
    6679                      .dwattr $C$DW$622, DW_AT_data_member_location[DW_OP_plus_uconst 0x2]
    6680                      .dwattr $C$DW$622, DW_AT_accessibility(DW_ACCESS_public)
    6681              $C$DW$623       .dwtag  DW_TAG_member
TMS320C55x Assembler PC v4.4.1 Mon Aug 15 03:55:17 2016

Tools Copyright (c) 1996-2012 Texas Instruments Incorporated
usb.asm                                                              PAGE  156

    6682                      .dwattr $C$DW$623, DW_AT_type(*$C$DW$T$70)
    6683                      .dwattr $C$DW$623, DW_AT_name("ierMask")
    6684                      .dwattr $C$DW$623, DW_AT_TI_symbol_name("_ierMask")
    6685                      .dwattr $C$DW$623, DW_AT_data_member_location[DW_OP_plus_uconst 0x4]
    6686                      .dwattr $C$DW$623, DW_AT_accessibility(DW_ACCESS_public)
    6687              $C$DW$624       .dwtag  DW_TAG_member
    6688                      .dwattr $C$DW$624, DW_AT_type(*$C$DW$T$70)
    6689                      .dwattr $C$DW$624, DW_AT_name("cacheCtrl")
    6690                      .dwattr $C$DW$624, DW_AT_TI_symbol_name("_cacheCtrl")
    6691                      .dwattr $C$DW$624, DW_AT_data_member_location[DW_OP_plus_uconst 0x6]
    6692                      .dwattr $C$DW$624, DW_AT_accessibility(DW_ACCESS_public)
    6693                      .dwendtag $C$DW$T$71
    6694              
    6695              $C$DW$T$141     .dwtag  DW_TAG_typedef, DW_AT_name("CSL_IRQ_Config")
    6696                      .dwattr $C$DW$T$141, DW_AT_type(*$C$DW$T$71)
    6697                      .dwattr $C$DW$T$141, DW_AT_language(DW_LANG_C)
    6698              
    6699              $C$DW$T$84      .dwtag  DW_TAG_structure_type
    6700                      .dwattr $C$DW$T$84, DW_AT_name("CSL_UsbConfig")
    6701                      .dwattr $C$DW$T$84, DW_AT_byte_size(0x0c)
    6702              $C$DW$625       .dwtag  DW_TAG_member
    6703                      .dwattr $C$DW$625, DW_AT_type(*$C$DW$T$73)
    6704                      .dwattr $C$DW$625, DW_AT_name("devNum")
    6705                      .dwattr $C$DW$625, DW_AT_TI_symbol_name("_devNum")
    6706                      .dwattr $C$DW$625, DW_AT_data_member_location[DW_OP_plus_uconst 0x0]
    6707                      .dwattr $C$DW$625, DW_AT_accessibility(DW_ACCESS_public)
    6708              $C$DW$626       .dwtag  DW_TAG_member
    6709                      .dwattr $C$DW$626, DW_AT_type(*$C$DW$T$75)
    6710                      .dwattr $C$DW$626, DW_AT_name("opMode")
    6711                      .dwattr $C$DW$626, DW_AT_TI_symbol_name("_opMode")
    6712                      .dwattr $C$DW$626, DW_AT_data_member_location[DW_OP_plus_uconst 0x1]
    6713                      .dwattr $C$DW$626, DW_AT_accessibility(DW_ACCESS_public)
    6714              $C$DW$627       .dwtag  DW_TAG_member
    6715                      .dwattr $C$DW$627, DW_AT_type(*$C$DW$T$19)
    6716                      .dwattr $C$DW$627, DW_AT_name("maxCurrent")
    6717                      .dwattr $C$DW$627, DW_AT_TI_symbol_name("_maxCurrent")
    6718                      .dwattr $C$DW$627, DW_AT_data_member_location[DW_OP_plus_uconst 0x2]
    6719                      .dwattr $C$DW$627, DW_AT_accessibility(DW_ACCESS_public)
    6720              $C$DW$628       .dwtag  DW_TAG_member
    6721                      .dwattr $C$DW$628, DW_AT_type(*$C$DW$T$78)
    6722                      .dwattr $C$DW$628, DW_AT_name("appSuspendCallBack")
    6723                      .dwattr $C$DW$628, DW_AT_TI_symbol_name("_appSuspendCallBack")
    6724                      .dwattr $C$DW$628, DW_AT_data_member_location[DW_OP_plus_uconst 0x4]
    6725                      .dwattr $C$DW$628, DW_AT_accessibility(DW_ACCESS_public)
    6726              $C$DW$629       .dwtag  DW_TAG_member
    6727                      .dwattr $C$DW$629, DW_AT_type(*$C$DW$T$78)
    6728                      .dwattr $C$DW$629, DW_AT_name("appWakeupCallBack")
    6729                      .dwattr $C$DW$629, DW_AT_TI_symbol_name("_appWakeupCallBack")
    6730                      .dwattr $C$DW$629, DW_AT_data_member_location[DW_OP_plus_uconst 0x6]
    6731                      .dwattr $C$DW$629, DW_AT_accessibility(DW_ACCESS_public)
    6732              $C$DW$630       .dwtag  DW_TAG_member
    6733                      .dwattr $C$DW$630, DW_AT_type(*$C$DW$T$83)
    6734                      .dwattr $C$DW$630, DW_AT_name("startTransferCallback")
    6735                      .dwattr $C$DW$630, DW_AT_TI_symbol_name("_startTransferCallback")
    6736                      .dwattr $C$DW$630, DW_AT_data_member_location[DW_OP_plus_uconst 0x8]
TMS320C55x Assembler PC v4.4.1 Mon Aug 15 03:55:17 2016

Tools Copyright (c) 1996-2012 Texas Instruments Incorporated
usb.asm                                                              PAGE  157

    6737                      .dwattr $C$DW$630, DW_AT_accessibility(DW_ACCESS_public)
    6738              $C$DW$631       .dwtag  DW_TAG_member
    6739                      .dwattr $C$DW$631, DW_AT_type(*$C$DW$T$83)
    6740                      .dwattr $C$DW$631, DW_AT_name("completeTransferCallback")
    6741                      .dwattr $C$DW$631, DW_AT_TI_symbol_name("_completeTransferCallback")
    6742                      .dwattr $C$DW$631, DW_AT_data_member_location[DW_OP_plus_uconst 0xa]
    6743                      .dwattr $C$DW$631, DW_AT_accessibility(DW_ACCESS_public)
    6744                      .dwendtag $C$DW$T$84
    6745              
    6746              $C$DW$T$142     .dwtag  DW_TAG_typedef, DW_AT_name("CSL_UsbConfig")
    6747                      .dwattr $C$DW$T$142, DW_AT_type(*$C$DW$T$84)
    6748                      .dwattr $C$DW$T$142, DW_AT_language(DW_LANG_C)
    6749              $C$DW$T$143     .dwtag  DW_TAG_pointer_type
    6750                      .dwattr $C$DW$T$143, DW_AT_type(*$C$DW$T$142)
    6751                      .dwattr $C$DW$T$143, DW_AT_address_class(0x17)
    6752              
    6753              $C$DW$T$108     .dwtag  DW_TAG_structure_type
    6754                      .dwattr $C$DW$T$108, DW_AT_name("CSL_UsbContext")
    6755                      .dwattr $C$DW$T$108, DW_AT_byte_size(0xc8)
    6756              $C$DW$632       .dwtag  DW_TAG_member
    6757                      .dwattr $C$DW$632, DW_AT_type(*$C$DW$T$75)
    6758                      .dwattr $C$DW$632, DW_AT_name("opMode")
    6759                      .dwattr $C$DW$632, DW_AT_TI_symbol_name("_opMode")
    6760                      .dwattr $C$DW$632, DW_AT_data_member_location[DW_OP_plus_uconst 0x0]
    6761                      .dwattr $C$DW$632, DW_AT_accessibility(DW_ACCESS_public)
    6762              $C$DW$633       .dwtag  DW_TAG_member
    6763                      .dwattr $C$DW$633, DW_AT_type(*$C$DW$T$85)
    6764                      .dwattr $C$DW$633, DW_AT_name("maxCurrent")
    6765                      .dwattr $C$DW$633, DW_AT_TI_symbol_name("_maxCurrent")
    6766                      .dwattr $C$DW$633, DW_AT_data_member_location[DW_OP_plus_uconst 0x1]
    6767                      .dwattr $C$DW$633, DW_AT_accessibility(DW_ACCESS_public)
    6768              $C$DW$634       .dwtag  DW_TAG_member
    6769                      .dwattr $C$DW$634, DW_AT_type(*$C$DW$T$86)
    6770                      .dwattr $C$DW$634, DW_AT_name("fInitialized")
    6771                      .dwattr $C$DW$634, DW_AT_TI_symbol_name("_fInitialized")
    6772                      .dwattr $C$DW$634, DW_AT_data_member_location[DW_OP_plus_uconst 0x2]
    6773                      .dwattr $C$DW$634, DW_AT_accessibility(DW_ACCESS_public)
    6774              $C$DW$635       .dwtag  DW_TAG_member
    6775                      .dwattr $C$DW$635, DW_AT_type(*$C$DW$T$86)
    6776                      .dwattr $C$DW$635, DW_AT_name("fSetupPktCmd")
    6777                      .dwattr $C$DW$635, DW_AT_TI_symbol_name("_fSetupPktCmd")
    6778                      .dwattr $C$DW$635, DW_AT_data_member_location[DW_OP_plus_uconst 0x3]
    6779                      .dwattr $C$DW$635, DW_AT_accessibility(DW_ACCESS_public)
    6780              $C$DW$636       .dwtag  DW_TAG_member
    6781                      .dwattr $C$DW$636, DW_AT_type(*$C$DW$T$86)
    6782                      .dwattr $C$DW$636, DW_AT_name("fOutPhaseCmd")
    6783                      .dwattr $C$DW$636, DW_AT_TI_symbol_name("_fOutPhaseCmd")
    6784                      .dwattr $C$DW$636, DW_AT_data_member_location[DW_OP_plus_uconst 0x4]
    6785                      .dwattr $C$DW$636, DW_AT_accessibility(DW_ACCESS_public)
    6786              $C$DW$637       .dwtag  DW_TAG_member
    6787                      .dwattr $C$DW$637, DW_AT_type(*$C$DW$T$86)
    6788                      .dwattr $C$DW$637, DW_AT_name("fWaitingOnFlagA")
    6789                      .dwattr $C$DW$637, DW_AT_TI_symbol_name("_fWaitingOnFlagA")
    6790                      .dwattr $C$DW$637, DW_AT_data_member_location[DW_OP_plus_uconst 0x5]
    6791                      .dwattr $C$DW$637, DW_AT_accessibility(DW_ACCESS_public)
TMS320C55x Assembler PC v4.4.1 Mon Aug 15 03:55:17 2016

Tools Copyright (c) 1996-2012 Texas Instruments Incorporated
usb.asm                                                              PAGE  158

    6792              $C$DW$638       .dwtag  DW_TAG_member
    6793                      .dwattr $C$DW$638, DW_AT_type(*$C$DW$T$86)
    6794                      .dwattr $C$DW$638, DW_AT_name("fWaitingOnFlagB")
    6795                      .dwattr $C$DW$638, DW_AT_TI_symbol_name("_fWaitingOnFlagB")
    6796                      .dwattr $C$DW$638, DW_AT_data_member_location[DW_OP_plus_uconst 0x6]
    6797                      .dwattr $C$DW$638, DW_AT_accessibility(DW_ACCESS_public)
    6798              $C$DW$639       .dwtag  DW_TAG_member
    6799                      .dwattr $C$DW$639, DW_AT_type(*$C$DW$T$86)
    6800                      .dwattr $C$DW$639, DW_AT_name("fWaitingOnEP0BUFAvail")
    6801                      .dwattr $C$DW$639, DW_AT_TI_symbol_name("_fWaitingOnEP0BUFAvail")
    6802                      .dwattr $C$DW$639, DW_AT_data_member_location[DW_OP_plus_uconst 0x7]
    6803                      .dwattr $C$DW$639, DW_AT_accessibility(DW_ACCESS_public)
    6804              $C$DW$640       .dwtag  DW_TAG_member
    6805                      .dwattr $C$DW$640, DW_AT_type(*$C$DW$T$86)
    6806                      .dwattr $C$DW$640, DW_AT_name("fWaitingOnEP1InBUFAvail")
    6807                      .dwattr $C$DW$640, DW_AT_TI_symbol_name("_fWaitingOnEP1InBUFAvail")
    6808                      .dwattr $C$DW$640, DW_AT_data_member_location[DW_OP_plus_uconst 0x8]
    6809                      .dwattr $C$DW$640, DW_AT_accessibility(DW_ACCESS_public)
    6810              $C$DW$641       .dwtag  DW_TAG_member
    6811                      .dwattr $C$DW$641, DW_AT_type(*$C$DW$T$87)
    6812                      .dwattr $C$DW$641, DW_AT_name("rgbDescriptors")
    6813                      .dwattr $C$DW$641, DW_AT_TI_symbol_name("_rgbDescriptors")
    6814                      .dwattr $C$DW$641, DW_AT_data_member_location[DW_OP_plus_uconst 0xa]
    6815                      .dwattr $C$DW$641, DW_AT_accessibility(DW_ACCESS_public)
    6816              $C$DW$642       .dwtag  DW_TAG_member
    6817                      .dwattr $C$DW$642, DW_AT_type(*$C$DW$T$85)
    6818                      .dwattr $C$DW$642, DW_AT_name("cbDescriptors")
    6819                      .dwattr $C$DW$642, DW_AT_TI_symbol_name("_cbDescriptors")
    6820                      .dwattr $C$DW$642, DW_AT_data_member_location[DW_OP_plus_uconst 0xc]
    6821                      .dwattr $C$DW$642, DW_AT_accessibility(DW_ACCESS_public)
    6822              $C$DW$643       .dwtag  DW_TAG_member
    6823                      .dwattr $C$DW$643, DW_AT_type(*$C$DW$T$88)
    6824                      .dwattr $C$DW$643, DW_AT_name("dwFlagAEndpointAssigned")
    6825                      .dwattr $C$DW$643, DW_AT_TI_symbol_name("_dwFlagAEndpointAssigned")
    6826                      .dwattr $C$DW$643, DW_AT_data_member_location[DW_OP_plus_uconst 0xe]
    6827                      .dwattr $C$DW$643, DW_AT_accessibility(DW_ACCESS_public)
    6828              $C$DW$644       .dwtag  DW_TAG_member
    6829                      .dwattr $C$DW$644, DW_AT_type(*$C$DW$T$88)
    6830                      .dwattr $C$DW$644, DW_AT_name("dwFlagBEndpointAssigned")
    6831                      .dwattr $C$DW$644, DW_AT_TI_symbol_name("_dwFlagBEndpointAssigned")
    6832                      .dwattr $C$DW$644, DW_AT_data_member_location[DW_OP_plus_uconst 0x10]
    6833                      .dwattr $C$DW$644, DW_AT_accessibility(DW_ACCESS_public)
    6834              $C$DW$645       .dwtag  DW_TAG_member
    6835                      .dwattr $C$DW$645, DW_AT_type(*$C$DW$T$89)
    6836                      .dwattr $C$DW$645, DW_AT_name("pFIFOBaseAddress")
    6837                      .dwattr $C$DW$645, DW_AT_TI_symbol_name("_pFIFOBaseAddress")
    6838                      .dwattr $C$DW$645, DW_AT_data_member_location[DW_OP_plus_uconst 0x12]
    6839                      .dwattr $C$DW$645, DW_AT_accessibility(DW_ACCESS_public)
    6840              $C$DW$646       .dwtag  DW_TAG_member
    6841                      .dwattr $C$DW$646, DW_AT_type(*$C$DW$T$89)
    6842                      .dwattr $C$DW$646, DW_AT_name("pInterruptAddr")
    6843                      .dwattr $C$DW$646, DW_AT_TI_symbol_name("_pInterruptAddr")
    6844                      .dwattr $C$DW$646, DW_AT_data_member_location[DW_OP_plus_uconst 0x14]
    6845                      .dwattr $C$DW$646, DW_AT_accessibility(DW_ACCESS_public)
    6846              $C$DW$647       .dwtag  DW_TAG_member
TMS320C55x Assembler PC v4.4.1 Mon Aug 15 03:55:17 2016

Tools Copyright (c) 1996-2012 Texas Instruments Incorporated
usb.asm                                                              PAGE  159

    6847                      .dwattr $C$DW$647, DW_AT_type(*$C$DW$T$86)
    6848                      .dwattr $C$DW$647, DW_AT_name("fSendHandshake")
    6849                      .dwattr $C$DW$647, DW_AT_TI_symbol_name("_fSendHandshake")
    6850                      .dwattr $C$DW$647, DW_AT_data_member_location[DW_OP_plus_uconst 0x16]
    6851                      .dwattr $C$DW$647, DW_AT_accessibility(DW_ACCESS_public)
    6852              $C$DW$648       .dwtag  DW_TAG_member
    6853                      .dwattr $C$DW$648, DW_AT_type(*$C$DW$T$86)
    6854                      .dwattr $C$DW$648, DW_AT_name("fMUSBIsReady")
    6855                      .dwattr $C$DW$648, DW_AT_TI_symbol_name("_fMUSBIsReady")
    6856                      .dwattr $C$DW$648, DW_AT_data_member_location[DW_OP_plus_uconst 0x17]
    6857                      .dwattr $C$DW$648, DW_AT_accessibility(DW_ACCESS_public)
    6858              $C$DW$649       .dwtag  DW_TAG_member
    6859                      .dwattr $C$DW$649, DW_AT_type(*$C$DW$T$85)
    6860                      .dwattr $C$DW$649, DW_AT_name("cbOutEP0Buf")
    6861                      .dwattr $C$DW$649, DW_AT_TI_symbol_name("_cbOutEP0Buf")
    6862                      .dwattr $C$DW$649, DW_AT_data_member_location[DW_OP_plus_uconst 0x18]
    6863                      .dwattr $C$DW$649, DW_AT_accessibility(DW_ACCESS_public)
    6864              $C$DW$650       .dwtag  DW_TAG_member
    6865                      .dwattr $C$DW$650, DW_AT_type(*$C$DW$T$85)
    6866                      .dwattr $C$DW$650, DW_AT_name("cbOutEP0DataReceived")
    6867                      .dwattr $C$DW$650, DW_AT_TI_symbol_name("_cbOutEP0DataReceived")
    6868                      .dwattr $C$DW$650, DW_AT_data_member_location[DW_OP_plus_uconst 0x19]
    6869                      .dwattr $C$DW$650, DW_AT_accessibility(DW_ACCESS_public)
    6870              $C$DW$651       .dwtag  DW_TAG_member
    6871                      .dwattr $C$DW$651, DW_AT_type(*$C$DW$T$90)
    6872                      .dwattr $C$DW$651, DW_AT_name("dwOutEP0Buf")
    6873                      .dwattr $C$DW$651, DW_AT_TI_symbol_name("_dwOutEP0Buf")
    6874                      .dwattr $C$DW$651, DW_AT_data_member_location[DW_OP_plus_uconst 0x1a]
    6875                      .dwattr $C$DW$651, DW_AT_accessibility(DW_ACCESS_public)
    6876              $C$DW$652       .dwtag  DW_TAG_member
    6877                      .dwattr $C$DW$652, DW_AT_type(*$C$DW$T$86)
    6878                      .dwattr $C$DW$652, DW_AT_name("fEP0BUFAvailable")
    6879                      .dwattr $C$DW$652, DW_AT_TI_symbol_name("_fEP0BUFAvailable")
    6880                      .dwattr $C$DW$652, DW_AT_data_member_location[DW_OP_plus_uconst 0x5a]
    6881                      .dwattr $C$DW$652, DW_AT_accessibility(DW_ACCESS_public)
    6882              $C$DW$653       .dwtag  DW_TAG_member
    6883                      .dwattr $C$DW$653, DW_AT_type(*$C$DW$T$86)
    6884                      .dwattr $C$DW$653, DW_AT_name("fEP1InBUFAvailable")
    6885                      .dwattr $C$DW$653, DW_AT_TI_symbol_name("_fEP1InBUFAvailable")
    6886                      .dwattr $C$DW$653, DW_AT_data_member_location[DW_OP_plus_uconst 0x5b]
    6887                      .dwattr $C$DW$653, DW_AT_accessibility(DW_ACCESS_public)
    6888              $C$DW$654       .dwtag  DW_TAG_member
    6889                      .dwattr $C$DW$654, DW_AT_type(*$C$DW$T$85)
    6890                      .dwattr $C$DW$654, DW_AT_name("dwQueuePend1")
    6891                      .dwattr $C$DW$654, DW_AT_TI_symbol_name("_dwQueuePend1")
    6892                      .dwattr $C$DW$654, DW_AT_data_member_location[DW_OP_plus_uconst 0x5c]
    6893                      .dwattr $C$DW$654, DW_AT_accessibility(DW_ACCESS_public)
    6894              $C$DW$655       .dwtag  DW_TAG_member
    6895                      .dwattr $C$DW$655, DW_AT_type(*$C$DW$T$86)
    6896                      .dwattr $C$DW$655, DW_AT_name("fEP3InBUFAvailable")
    6897                      .dwattr $C$DW$655, DW_AT_TI_symbol_name("_fEP3InBUFAvailable")
    6898                      .dwattr $C$DW$655, DW_AT_data_member_location[DW_OP_plus_uconst 0x5d]
    6899                      .dwattr $C$DW$655, DW_AT_accessibility(DW_ACCESS_public)
    6900              $C$DW$656       .dwtag  DW_TAG_member
    6901                      .dwattr $C$DW$656, DW_AT_type(*$C$DW$T$85)
TMS320C55x Assembler PC v4.4.1 Mon Aug 15 03:55:17 2016

Tools Copyright (c) 1996-2012 Texas Instruments Incorporated
usb.asm                                                              PAGE  160

    6902                      .dwattr $C$DW$656, DW_AT_name("dwIntSourceL")
    6903                      .dwattr $C$DW$656, DW_AT_TI_symbol_name("_dwIntSourceL")
    6904                      .dwattr $C$DW$656, DW_AT_data_member_location[DW_OP_plus_uconst 0x5e]
    6905                      .dwattr $C$DW$656, DW_AT_accessibility(DW_ACCESS_public)
    6906              $C$DW$657       .dwtag  DW_TAG_member
    6907                      .dwattr $C$DW$657, DW_AT_type(*$C$DW$T$85)
    6908                      .dwattr $C$DW$657, DW_AT_name("dwIntSourceH")
    6909                      .dwattr $C$DW$657, DW_AT_TI_symbol_name("_dwIntSourceH")
    6910                      .dwattr $C$DW$657, DW_AT_data_member_location[DW_OP_plus_uconst 0x5f]
    6911                      .dwattr $C$DW$657, DW_AT_accessibility(DW_ACCESS_public)
    6912              $C$DW$658       .dwtag  DW_TAG_member
    6913                      .dwattr $C$DW$658, DW_AT_type(*$C$DW$T$92)
    6914                      .dwattr $C$DW$658, DW_AT_name("remoteWkpStat")
    6915                      .dwattr $C$DW$658, DW_AT_TI_symbol_name("_remoteWkpStat")
    6916                      .dwattr $C$DW$658, DW_AT_data_member_location[DW_OP_plus_uconst 0x60]
    6917                      .dwattr $C$DW$658, DW_AT_accessibility(DW_ACCESS_public)
    6918              $C$DW$659       .dwtag  DW_TAG_member
    6919                      .dwattr $C$DW$659, DW_AT_type(*$C$DW$T$94)
    6920                      .dwattr $C$DW$659, DW_AT_name("pEpStatus")
    6921                      .dwattr $C$DW$659, DW_AT_TI_symbol_name("_pEpStatus")
    6922                      .dwattr $C$DW$659, DW_AT_data_member_location[DW_OP_plus_uconst 0x62]
    6923                      .dwattr $C$DW$659, DW_AT_accessibility(DW_ACCESS_public)
    6924              $C$DW$660       .dwtag  DW_TAG_member
    6925                      .dwattr $C$DW$660, DW_AT_type(*$C$DW$T$96)
    6926                      .dwattr $C$DW$660, DW_AT_name("busSpeed")
    6927                      .dwattr $C$DW$660, DW_AT_TI_symbol_name("_busSpeed")
    6928                      .dwattr $C$DW$660, DW_AT_data_member_location[DW_OP_plus_uconst 0x64]
    6929                      .dwattr $C$DW$660, DW_AT_accessibility(DW_ACCESS_public)
    6930              $C$DW$661       .dwtag  DW_TAG_member
    6931                      .dwattr $C$DW$661, DW_AT_type(*$C$DW$T$98)
    6932                      .dwattr $C$DW$661, DW_AT_name("ep0State")
    6933                      .dwattr $C$DW$661, DW_AT_TI_symbol_name("_ep0State")
    6934                      .dwattr $C$DW$661, DW_AT_data_member_location[DW_OP_plus_uconst 0x65]
    6935                      .dwattr $C$DW$661, DW_AT_accessibility(DW_ACCESS_public)
    6936              $C$DW$662       .dwtag  DW_TAG_member
    6937                      .dwattr $C$DW$662, DW_AT_type(*$C$DW$T$100)
    6938                      .dwattr $C$DW$662, DW_AT_name("cableState")
    6939                      .dwattr $C$DW$662, DW_AT_TI_symbol_name("_cableState")
    6940                      .dwattr $C$DW$662, DW_AT_data_member_location[DW_OP_plus_uconst 0x66]
    6941                      .dwattr $C$DW$662, DW_AT_accessibility(DW_ACCESS_public)
    6942              $C$DW$663       .dwtag  DW_TAG_member
    6943                      .dwattr $C$DW$663, DW_AT_type(*$C$DW$T$101)
    6944                      .dwattr $C$DW$663, DW_AT_name("usbSetup")
    6945                      .dwattr $C$DW$663, DW_AT_TI_symbol_name("_usbSetup")
    6946                      .dwattr $C$DW$663, DW_AT_data_member_location[DW_OP_plus_uconst 0x67]
    6947                      .dwattr $C$DW$663, DW_AT_accessibility(DW_ACCESS_public)
    6948              $C$DW$664       .dwtag  DW_TAG_member
    6949                      .dwattr $C$DW$664, DW_AT_type(*$C$DW$T$78)
    6950                      .dwattr $C$DW$664, DW_AT_name("suspendCallBackFxn")
    6951                      .dwattr $C$DW$664, DW_AT_TI_symbol_name("_suspendCallBackFxn")
    6952                      .dwattr $C$DW$664, DW_AT_data_member_location[DW_OP_plus_uconst 0x6e]
    6953                      .dwattr $C$DW$664, DW_AT_accessibility(DW_ACCESS_public)
    6954              $C$DW$665       .dwtag  DW_TAG_member
    6955                      .dwattr $C$DW$665, DW_AT_type(*$C$DW$T$78)
    6956                      .dwattr $C$DW$665, DW_AT_name("wakeupCallBackFxn")
TMS320C55x Assembler PC v4.4.1 Mon Aug 15 03:55:17 2016

Tools Copyright (c) 1996-2012 Texas Instruments Incorporated
usb.asm                                                              PAGE  161

    6957                      .dwattr $C$DW$665, DW_AT_TI_symbol_name("_wakeupCallBackFxn")
    6958                      .dwattr $C$DW$665, DW_AT_data_member_location[DW_OP_plus_uconst 0x70]
    6959                      .dwattr $C$DW$665, DW_AT_accessibility(DW_ACCESS_public)
    6960              $C$DW$666       .dwtag  DW_TAG_member
    6961                      .dwattr $C$DW$666, DW_AT_type(*$C$DW$T$83)
    6962                      .dwattr $C$DW$666, DW_AT_name("startTransferCallback")
    6963                      .dwattr $C$DW$666, DW_AT_TI_symbol_name("_startTransferCallback")
    6964                      .dwattr $C$DW$666, DW_AT_data_member_location[DW_OP_plus_uconst 0x72]
    6965                      .dwattr $C$DW$666, DW_AT_accessibility(DW_ACCESS_public)
    6966              $C$DW$667       .dwtag  DW_TAG_member
    6967                      .dwattr $C$DW$667, DW_AT_type(*$C$DW$T$83)
    6968                      .dwattr $C$DW$667, DW_AT_name("completeTransferCallback")
    6969                      .dwattr $C$DW$667, DW_AT_TI_symbol_name("_completeTransferCallback")
    6970                      .dwattr $C$DW$667, DW_AT_data_member_location[DW_OP_plus_uconst 0x74]
    6971                      .dwattr $C$DW$667, DW_AT_accessibility(DW_ACCESS_public)
    6972              $C$DW$668       .dwtag  DW_TAG_member
    6973                      .dwattr $C$DW$668, DW_AT_type(*$C$DW$T$85)
    6974                      .dwattr $C$DW$668, DW_AT_name("dwFIFOStartAddr")
    6975                      .dwattr $C$DW$668, DW_AT_TI_symbol_name("_dwFIFOStartAddr")
    6976                      .dwattr $C$DW$668, DW_AT_data_member_location[DW_OP_plus_uconst 0x76]
    6977                      .dwattr $C$DW$668, DW_AT_accessibility(DW_ACCESS_public)
    6978              $C$DW$669       .dwtag  DW_TAG_member
    6979                      .dwattr $C$DW$669, DW_AT_type(*$C$DW$T$102)
    6980                      .dwattr $C$DW$669, DW_AT_name("deviceDescPtr")
    6981                      .dwattr $C$DW$669, DW_AT_TI_symbol_name("_deviceDescPtr")
    6982                      .dwattr $C$DW$669, DW_AT_data_member_location[DW_OP_plus_uconst 0x78]
    6983                      .dwattr $C$DW$669, DW_AT_accessibility(DW_ACCESS_public)
    6984              $C$DW$670       .dwtag  DW_TAG_member
    6985                      .dwattr $C$DW$670, DW_AT_type(*$C$DW$T$102)
    6986                      .dwattr $C$DW$670, DW_AT_name("deviceQualDescPtr")
    6987                      .dwattr $C$DW$670, DW_AT_TI_symbol_name("_deviceQualDescPtr")
    6988                      .dwattr $C$DW$670, DW_AT_data_member_location[DW_OP_plus_uconst 0x7a]
    6989                      .dwattr $C$DW$670, DW_AT_accessibility(DW_ACCESS_public)
    6990              $C$DW$671       .dwtag  DW_TAG_member
    6991                      .dwattr $C$DW$671, DW_AT_type(*$C$DW$T$102)
    6992                      .dwattr $C$DW$671, DW_AT_name("cfgDescPtr")
    6993                      .dwattr $C$DW$671, DW_AT_TI_symbol_name("_cfgDescPtr")
    6994                      .dwattr $C$DW$671, DW_AT_data_member_location[DW_OP_plus_uconst 0x7c]
    6995                      .dwattr $C$DW$671, DW_AT_accessibility(DW_ACCESS_public)
    6996              $C$DW$672       .dwtag  DW_TAG_member
    6997                      .dwattr $C$DW$672, DW_AT_type(*$C$DW$T$102)
    6998                      .dwattr $C$DW$672, DW_AT_name("cfgDescFSPtr")
    6999                      .dwattr $C$DW$672, DW_AT_TI_symbol_name("_cfgDescFSPtr")
    7000                      .dwattr $C$DW$672, DW_AT_data_member_location[DW_OP_plus_uconst 0x7e]
    7001                      .dwattr $C$DW$672, DW_AT_accessibility(DW_ACCESS_public)
    7002              $C$DW$673       .dwtag  DW_TAG_member
    7003                      .dwattr $C$DW$673, DW_AT_type(*$C$DW$T$103)
    7004                      .dwattr $C$DW$673, DW_AT_name("strDescPtr")
    7005                      .dwattr $C$DW$673, DW_AT_TI_symbol_name("_strDescPtr")
    7006                      .dwattr $C$DW$673, DW_AT_data_member_location[DW_OP_plus_uconst 0x80]
    7007                      .dwattr $C$DW$673, DW_AT_accessibility(DW_ACCESS_public)
    7008              $C$DW$674       .dwtag  DW_TAG_member
    7009                      .dwattr $C$DW$674, DW_AT_type(*$C$DW$T$19)
    7010                      .dwattr $C$DW$674, DW_AT_name("devAddr")
    7011                      .dwattr $C$DW$674, DW_AT_TI_symbol_name("_devAddr")
TMS320C55x Assembler PC v4.4.1 Mon Aug 15 03:55:17 2016

Tools Copyright (c) 1996-2012 Texas Instruments Incorporated
usb.asm                                                              PAGE  162

    7012                      .dwattr $C$DW$674, DW_AT_data_member_location[DW_OP_plus_uconst 0x88]
    7013                      .dwattr $C$DW$674, DW_AT_accessibility(DW_ACCESS_public)
    7014              $C$DW$675       .dwtag  DW_TAG_member
    7015                      .dwattr $C$DW$675, DW_AT_type(*$C$DW$T$104)
    7016                      .dwattr $C$DW$675, DW_AT_name("ctrlInEpObj")
    7017                      .dwattr $C$DW$675, DW_AT_TI_symbol_name("_ctrlInEpObj")
    7018                      .dwattr $C$DW$675, DW_AT_data_member_location[DW_OP_plus_uconst 0x8a]
    7019                      .dwattr $C$DW$675, DW_AT_accessibility(DW_ACCESS_public)
    7020              $C$DW$676       .dwtag  DW_TAG_member
    7021                      .dwattr $C$DW$676, DW_AT_type(*$C$DW$T$73)
    7022                      .dwattr $C$DW$676, DW_AT_name("devNum")
    7023                      .dwattr $C$DW$676, DW_AT_TI_symbol_name("_devNum")
    7024                      .dwattr $C$DW$676, DW_AT_data_member_location[DW_OP_plus_uconst 0x9e]
    7025                      .dwattr $C$DW$676, DW_AT_accessibility(DW_ACCESS_public)
    7026              $C$DW$677       .dwtag  DW_TAG_member
    7027                      .dwattr $C$DW$677, DW_AT_type(*$C$DW$T$104)
    7028                      .dwattr $C$DW$677, DW_AT_name("ctrlOutEpObj")
    7029                      .dwattr $C$DW$677, DW_AT_TI_symbol_name("_ctrlOutEpObj")
    7030                      .dwattr $C$DW$677, DW_AT_data_member_location[DW_OP_plus_uconst 0xa0]
    7031                      .dwattr $C$DW$677, DW_AT_accessibility(DW_ACCESS_public)
    7032              $C$DW$678       .dwtag  DW_TAG_member
    7033                      .dwattr $C$DW$678, DW_AT_type(*$C$DW$T$19)
    7034                      .dwattr $C$DW$678, DW_AT_name("suspendFlag")
    7035                      .dwattr $C$DW$678, DW_AT_TI_symbol_name("_suspendFlag")
    7036                      .dwattr $C$DW$678, DW_AT_data_member_location[DW_OP_plus_uconst 0xb4]
    7037                      .dwattr $C$DW$678, DW_AT_accessibility(DW_ACCESS_public)
    7038              $C$DW$679       .dwtag  DW_TAG_member
    7039                      .dwattr $C$DW$679, DW_AT_type(*$C$DW$T$107)
    7040                      .dwattr $C$DW$679, DW_AT_name("hEpObjArray")
    7041                      .dwattr $C$DW$679, DW_AT_TI_symbol_name("_hEpObjArray")
    7042                      .dwattr $C$DW$679, DW_AT_data_member_location[DW_OP_plus_uconst 0xb6]
    7043                      .dwattr $C$DW$679, DW_AT_accessibility(DW_ACCESS_public)
    7044              $C$DW$680       .dwtag  DW_TAG_member
    7045                      .dwattr $C$DW$680, DW_AT_type(*$C$DW$T$19)
    7046                      .dwattr $C$DW$680, DW_AT_name("curConfigStat")
    7047                      .dwattr $C$DW$680, DW_AT_TI_symbol_name("_curConfigStat")
    7048                      .dwattr $C$DW$680, DW_AT_data_member_location[DW_OP_plus_uconst 0xc6]
    7049                      .dwattr $C$DW$680, DW_AT_accessibility(DW_ACCESS_public)
    7050              $C$DW$681       .dwtag  DW_TAG_member
    7051                      .dwattr $C$DW$681, DW_AT_type(*$C$DW$T$86)
    7052                      .dwattr $C$DW$681, DW_AT_name("usbSpeedCfg")
    7053                      .dwattr $C$DW$681, DW_AT_TI_symbol_name("_usbSpeedCfg")
    7054                      .dwattr $C$DW$681, DW_AT_data_member_location[DW_OP_plus_uconst 0xc7]
    7055                      .dwattr $C$DW$681, DW_AT_accessibility(DW_ACCESS_public)
    7056                      .dwendtag $C$DW$T$108
    7057              
    7058              $C$DW$T$144     .dwtag  DW_TAG_typedef, DW_AT_name("CSL_UsbContext")
    7059                      .dwattr $C$DW$T$144, DW_AT_type(*$C$DW$T$108)
    7060                      .dwattr $C$DW$T$144, DW_AT_language(DW_LANG_C)
    7061              $C$DW$T$145     .dwtag  DW_TAG_pointer_type
    7062                      .dwattr $C$DW$T$145, DW_AT_type(*$C$DW$T$144)
    7063                      .dwattr $C$DW$T$145, DW_AT_address_class(0x17)
    7064              $C$DW$T$146     .dwtag  DW_TAG_typedef, DW_AT_name("pUsbContext")
    7065                      .dwattr $C$DW$T$146, DW_AT_type(*$C$DW$T$145)
    7066                      .dwattr $C$DW$T$146, DW_AT_language(DW_LANG_C)
TMS320C55x Assembler PC v4.4.1 Mon Aug 15 03:55:17 2016

Tools Copyright (c) 1996-2012 Texas Instruments Incorporated
usb.asm                                                              PAGE  163

    7067              
    7068              $C$DW$T$110     .dwtag  DW_TAG_structure_type
    7069                      .dwattr $C$DW$T$110, DW_AT_name("CSL_UsbDataStruct")
    7070                      .dwattr $C$DW$T$110, DW_AT_byte_size(0x06)
    7071              $C$DW$682       .dwtag  DW_TAG_member
    7072                      .dwattr $C$DW$682, DW_AT_type(*$C$DW$T$19)
    7073                      .dwattr $C$DW$682, DW_AT_name("bytes")
    7074                      .dwattr $C$DW$682, DW_AT_TI_symbol_name("_bytes")
    7075                      .dwattr $C$DW$682, DW_AT_data_member_location[DW_OP_plus_uconst 0x0]
    7076                      .dwattr $C$DW$682, DW_AT_accessibility(DW_ACCESS_public)
    7077              $C$DW$683       .dwtag  DW_TAG_member
    7078                      .dwattr $C$DW$683, DW_AT_type(*$C$DW$T$102)
    7079                      .dwattr $C$DW$683, DW_AT_name("pBuffer")
    7080                      .dwattr $C$DW$683, DW_AT_TI_symbol_name("_pBuffer")
    7081                      .dwattr $C$DW$683, DW_AT_data_member_location[DW_OP_plus_uconst 0x2]
    7082                      .dwattr $C$DW$683, DW_AT_accessibility(DW_ACCESS_public)
    7083              $C$DW$684       .dwtag  DW_TAG_member
    7084                      .dwattr $C$DW$684, DW_AT_type(*$C$DW$T$109)
    7085                      .dwattr $C$DW$684, DW_AT_name("pNextBuffer")
    7086                      .dwattr $C$DW$684, DW_AT_TI_symbol_name("_pNextBuffer")
    7087                      .dwattr $C$DW$684, DW_AT_data_member_location[DW_OP_plus_uconst 0x4]
    7088                      .dwattr $C$DW$684, DW_AT_accessibility(DW_ACCESS_public)
    7089                      .dwendtag $C$DW$T$110
    7090              
    7091              $C$DW$T$118     .dwtag  DW_TAG_typedef, DW_AT_name("CSL_UsbDataStruct")
    7092                      .dwattr $C$DW$T$118, DW_AT_type(*$C$DW$T$110)
    7093                      .dwattr $C$DW$T$118, DW_AT_language(DW_LANG_C)
    7094              $C$DW$T$119     .dwtag  DW_TAG_pointer_type
    7095                      .dwattr $C$DW$T$119, DW_AT_type(*$C$DW$T$118)
    7096                      .dwattr $C$DW$T$119, DW_AT_address_class(0x17)
    7097              $C$DW$T$109     .dwtag  DW_TAG_pointer_type
    7098                      .dwattr $C$DW$T$109, DW_AT_type(*$C$DW$T$110)
    7099                      .dwattr $C$DW$T$109, DW_AT_address_class(0x17)
    7100              
    7101              $C$DW$T$120     .dwtag  DW_TAG_structure_type
    7102                      .dwattr $C$DW$T$120, DW_AT_name("CSL_UsbEpObj")
    7103                      .dwattr $C$DW$T$120, DW_AT_byte_size(0x14)
    7104              $C$DW$685       .dwtag  DW_TAG_member
    7105                      .dwattr $C$DW$685, DW_AT_type(*$C$DW$T$112)
    7106                      .dwattr $C$DW$685, DW_AT_name("epNum")
    7107                      .dwattr $C$DW$685, DW_AT_TI_symbol_name("_epNum")
    7108                      .dwattr $C$DW$685, DW_AT_data_member_location[DW_OP_plus_uconst 0x0]
    7109                      .dwattr $C$DW$685, DW_AT_accessibility(DW_ACCESS_public)
    7110              $C$DW$686       .dwtag  DW_TAG_member
    7111                      .dwattr $C$DW$686, DW_AT_type(*$C$DW$T$114)
    7112                      .dwattr $C$DW$686, DW_AT_name("xferType")
    7113                      .dwattr $C$DW$686, DW_AT_TI_symbol_name("_xferType")
    7114                      .dwattr $C$DW$686, DW_AT_data_member_location[DW_OP_plus_uconst 0x1]
    7115                      .dwattr $C$DW$686, DW_AT_accessibility(DW_ACCESS_public)
    7116              $C$DW$687       .dwtag  DW_TAG_member
    7117                      .dwattr $C$DW$687, DW_AT_type(*$C$DW$T$19)
    7118                      .dwattr $C$DW$687, DW_AT_name("maxPktSiz")
    7119                      .dwattr $C$DW$687, DW_AT_TI_symbol_name("_maxPktSiz")
    7120                      .dwattr $C$DW$687, DW_AT_data_member_location[DW_OP_plus_uconst 0x2]
    7121                      .dwattr $C$DW$687, DW_AT_accessibility(DW_ACCESS_public)
TMS320C55x Assembler PC v4.4.1 Mon Aug 15 03:55:17 2016

Tools Copyright (c) 1996-2012 Texas Instruments Incorporated
usb.asm                                                              PAGE  164

    7122              $C$DW$688       .dwtag  DW_TAG_member
    7123                      .dwattr $C$DW$688, DW_AT_type(*$C$DW$T$19)
    7124                      .dwattr $C$DW$688, DW_AT_name("eventMask")
    7125                      .dwattr $C$DW$688, DW_AT_TI_symbol_name("_eventMask")
    7126                      .dwattr $C$DW$688, DW_AT_data_member_location[DW_OP_plus_uconst 0x3]
    7127                      .dwattr $C$DW$688, DW_AT_accessibility(DW_ACCESS_public)
    7128              $C$DW$689       .dwtag  DW_TAG_member
    7129                      .dwattr $C$DW$689, DW_AT_type(*$C$DW$T$117)
    7130                      .dwattr $C$DW$689, DW_AT_name("fxn")
    7131                      .dwattr $C$DW$689, DW_AT_TI_symbol_name("_fxn")
    7132                      .dwattr $C$DW$689, DW_AT_data_member_location[DW_OP_plus_uconst 0x4]
    7133                      .dwattr $C$DW$689, DW_AT_accessibility(DW_ACCESS_public)
    7134              $C$DW$690       .dwtag  DW_TAG_member
    7135                      .dwattr $C$DW$690, DW_AT_type(*$C$DW$T$19)
    7136                      .dwattr $C$DW$690, DW_AT_name("dataFlags")
    7137                      .dwattr $C$DW$690, DW_AT_TI_symbol_name("_dataFlags")
    7138                      .dwattr $C$DW$690, DW_AT_data_member_location[DW_OP_plus_uconst 0x6]
    7139                      .dwattr $C$DW$690, DW_AT_accessibility(DW_ACCESS_public)
    7140              $C$DW$691       .dwtag  DW_TAG_member
    7141                      .dwattr $C$DW$691, DW_AT_type(*$C$DW$T$19)
    7142                      .dwattr $C$DW$691, DW_AT_name("status")
    7143                      .dwattr $C$DW$691, DW_AT_TI_symbol_name("_status")
    7144                      .dwattr $C$DW$691, DW_AT_data_member_location[DW_OP_plus_uconst 0x7]
    7145                      .dwattr $C$DW$691, DW_AT_accessibility(DW_ACCESS_public)
    7146              $C$DW$692       .dwtag  DW_TAG_member
    7147                      .dwattr $C$DW$692, DW_AT_type(*$C$DW$T$19)
    7148                      .dwattr $C$DW$692, DW_AT_name("epDescRegSAddr")
    7149                      .dwattr $C$DW$692, DW_AT_TI_symbol_name("_epDescRegSAddr")
    7150                      .dwattr $C$DW$692, DW_AT_data_member_location[DW_OP_plus_uconst 0x8]
    7151                      .dwattr $C$DW$692, DW_AT_accessibility(DW_ACCESS_public)
    7152              $C$DW$693       .dwtag  DW_TAG_member
    7153                      .dwattr $C$DW$693, DW_AT_type(*$C$DW$T$19)
    7154                      .dwattr $C$DW$693, DW_AT_name("dmaRegSAddr")
    7155                      .dwattr $C$DW$693, DW_AT_TI_symbol_name("_dmaRegSAddr")
    7156                      .dwattr $C$DW$693, DW_AT_data_member_location[DW_OP_plus_uconst 0x9]
    7157                      .dwattr $C$DW$693, DW_AT_accessibility(DW_ACCESS_public)
    7158              $C$DW$694       .dwtag  DW_TAG_member
    7159                      .dwattr $C$DW$694, DW_AT_type(*$C$DW$T$19)
    7160                      .dwattr $C$DW$694, DW_AT_name("totByteCnt")
    7161                      .dwattr $C$DW$694, DW_AT_TI_symbol_name("_totByteCnt")
    7162                      .dwattr $C$DW$694, DW_AT_data_member_location[DW_OP_plus_uconst 0xa]
    7163                      .dwattr $C$DW$694, DW_AT_accessibility(DW_ACCESS_public)
    7164              $C$DW$695       .dwtag  DW_TAG_member
    7165                      .dwattr $C$DW$695, DW_AT_type(*$C$DW$T$19)
    7166                      .dwattr $C$DW$695, DW_AT_name("byteInThisSeg")
    7167                      .dwattr $C$DW$695, DW_AT_TI_symbol_name("_byteInThisSeg")
    7168                      .dwattr $C$DW$695, DW_AT_data_member_location[DW_OP_plus_uconst 0xb]
    7169                      .dwattr $C$DW$695, DW_AT_accessibility(DW_ACCESS_public)
    7170              $C$DW$696       .dwtag  DW_TAG_member
    7171                      .dwattr $C$DW$696, DW_AT_type(*$C$DW$T$102)
    7172                      .dwattr $C$DW$696, DW_AT_name("xferBytCnt")
    7173                      .dwattr $C$DW$696, DW_AT_TI_symbol_name("_xferBytCnt")
    7174                      .dwattr $C$DW$696, DW_AT_data_member_location[DW_OP_plus_uconst 0xc]
    7175                      .dwattr $C$DW$696, DW_AT_accessibility(DW_ACCESS_public)
    7176              $C$DW$697       .dwtag  DW_TAG_member
TMS320C55x Assembler PC v4.4.1 Mon Aug 15 03:55:17 2016

Tools Copyright (c) 1996-2012 Texas Instruments Incorporated
usb.asm                                                              PAGE  165

    7177                      .dwattr $C$DW$697, DW_AT_type(*$C$DW$T$102)
    7178                      .dwattr $C$DW$697, DW_AT_name("pBuffer")
    7179                      .dwattr $C$DW$697, DW_AT_TI_symbol_name("_pBuffer")
    7180                      .dwattr $C$DW$697, DW_AT_data_member_location[DW_OP_plus_uconst 0xe]
    7181                      .dwattr $C$DW$697, DW_AT_accessibility(DW_ACCESS_public)
    7182              $C$DW$698       .dwtag  DW_TAG_member
    7183                      .dwattr $C$DW$698, DW_AT_type(*$C$DW$T$119)
    7184                      .dwattr $C$DW$698, DW_AT_name("pNextBuffer")
    7185                      .dwattr $C$DW$698, DW_AT_TI_symbol_name("_pNextBuffer")
    7186                      .dwattr $C$DW$698, DW_AT_data_member_location[DW_OP_plus_uconst 0x10]
    7187                      .dwattr $C$DW$698, DW_AT_accessibility(DW_ACCESS_public)
    7188              $C$DW$699       .dwtag  DW_TAG_member
    7189                      .dwattr $C$DW$699, DW_AT_type(*$C$DW$T$19)
    7190                      .dwattr $C$DW$699, DW_AT_name("eventFlag")
    7191                      .dwattr $C$DW$699, DW_AT_TI_symbol_name("_eventFlag")
    7192                      .dwattr $C$DW$699, DW_AT_data_member_location[DW_OP_plus_uconst 0x12]
    7193                      .dwattr $C$DW$699, DW_AT_accessibility(DW_ACCESS_public)
    7194                      .dwendtag $C$DW$T$120
    7195              
    7196              $C$DW$T$104     .dwtag  DW_TAG_typedef, DW_AT_name("CSL_UsbEpObj")
    7197                      .dwattr $C$DW$T$104, DW_AT_type(*$C$DW$T$120)
    7198                      .dwattr $C$DW$T$104, DW_AT_language(DW_LANG_C)
    7199              $C$DW$T$105     .dwtag  DW_TAG_pointer_type
    7200                      .dwattr $C$DW$T$105, DW_AT_type(*$C$DW$T$104)
    7201                      .dwattr $C$DW$T$105, DW_AT_address_class(0x17)
    7202              $C$DW$T$106     .dwtag  DW_TAG_typedef, DW_AT_name("pUsbEpHandle")
    7203                      .dwattr $C$DW$T$106, DW_AT_type(*$C$DW$T$105)
    7204                      .dwattr $C$DW$T$106, DW_AT_language(DW_LANG_C)
    7205              
    7206              $C$DW$T$107     .dwtag  DW_TAG_array_type
    7207                      .dwattr $C$DW$T$107, DW_AT_type(*$C$DW$T$106)
    7208                      .dwattr $C$DW$T$107, DW_AT_language(DW_LANG_C)
    7209                      .dwattr $C$DW$T$107, DW_AT_byte_size(0x10)
    7210              $C$DW$700       .dwtag  DW_TAG_subrange_type
    7211                      .dwattr $C$DW$700, DW_AT_upper_bound(0x07)
    7212                      .dwendtag $C$DW$T$107
    7213              
    7214              $C$DW$T$149     .dwtag  DW_TAG_pointer_type
    7215                      .dwattr $C$DW$T$149, DW_AT_type(*$C$DW$T$106)
    7216                      .dwattr $C$DW$T$149, DW_AT_address_class(0x17)
    7217              
    7218              $C$DW$T$123     .dwtag  DW_TAG_structure_type
    7219                      .dwattr $C$DW$T$123, DW_AT_name("CSL_UsbEpStatus")
    7220                      .dwattr $C$DW$T$123, DW_AT_byte_size(0x12)
    7221              $C$DW$701       .dwtag  DW_TAG_member
    7222                      .dwattr $C$DW$701, DW_AT_type(*$C$DW$T$88)
    7223                      .dwattr $C$DW$701, DW_AT_name("dwEndpoint")
    7224                      .dwattr $C$DW$701, DW_AT_TI_symbol_name("_dwEndpoint")
    7225                      .dwattr $C$DW$701, DW_AT_data_member_location[DW_OP_plus_uconst 0x0]
    7226                      .dwattr $C$DW$701, DW_AT_accessibility(DW_ACCESS_public)
    7227              $C$DW$702       .dwtag  DW_TAG_member
    7228                      .dwattr $C$DW$702, DW_AT_type(*$C$DW$T$114)
    7229                      .dwattr $C$DW$702, DW_AT_name("xferType")
    7230                      .dwattr $C$DW$702, DW_AT_TI_symbol_name("_xferType")
    7231                      .dwattr $C$DW$702, DW_AT_data_member_location[DW_OP_plus_uconst 0x2]
TMS320C55x Assembler PC v4.4.1 Mon Aug 15 03:55:17 2016

Tools Copyright (c) 1996-2012 Texas Instruments Incorporated
usb.asm                                                              PAGE  166

    7232                      .dwattr $C$DW$702, DW_AT_accessibility(DW_ACCESS_public)
    7233              $C$DW$703       .dwtag  DW_TAG_member
    7234                      .dwattr $C$DW$703, DW_AT_type(*$C$DW$T$88)
    7235                      .dwattr $C$DW$703, DW_AT_name("dwPacketSizeAssigned")
    7236                      .dwattr $C$DW$703, DW_AT_TI_symbol_name("_dwPacketSizeAssigned")
    7237                      .dwattr $C$DW$703, DW_AT_data_member_location[DW_OP_plus_uconst 0x4]
    7238                      .dwattr $C$DW$703, DW_AT_accessibility(DW_ACCESS_public)
    7239              $C$DW$704       .dwtag  DW_TAG_member
    7240                      .dwattr $C$DW$704, DW_AT_type(*$C$DW$T$86)
    7241                      .dwattr $C$DW$704, DW_AT_name("fInitialized")
    7242                      .dwattr $C$DW$704, DW_AT_TI_symbol_name("_fInitialized")
    7243                      .dwattr $C$DW$704, DW_AT_data_member_location[DW_OP_plus_uconst 0x6]
    7244                      .dwattr $C$DW$704, DW_AT_accessibility(DW_ACCESS_public)
    7245              $C$DW$705       .dwtag  DW_TAG_member
    7246                      .dwattr $C$DW$705, DW_AT_type(*$C$DW$T$89)
    7247                      .dwattr $C$DW$705, DW_AT_name("pFifoAddr")
    7248                      .dwattr $C$DW$705, DW_AT_TI_symbol_name("_pFifoAddr")
    7249                      .dwattr $C$DW$705, DW_AT_data_member_location[DW_OP_plus_uconst 0x8]
    7250                      .dwattr $C$DW$705, DW_AT_accessibility(DW_ACCESS_public)
    7251              $C$DW$706       .dwtag  DW_TAG_member
    7252                      .dwattr $C$DW$706, DW_AT_type(*$C$DW$T$122)
    7253                      .dwattr $C$DW$706, DW_AT_name("pTransfer")
    7254                      .dwattr $C$DW$706, DW_AT_TI_symbol_name("_pTransfer")
    7255                      .dwattr $C$DW$706, DW_AT_data_member_location[DW_OP_plus_uconst 0xa]
    7256                      .dwattr $C$DW$706, DW_AT_accessibility(DW_ACCESS_public)
    7257              $C$DW$707       .dwtag  DW_TAG_member
    7258                      .dwattr $C$DW$707, DW_AT_type(*$C$DW$T$85)
    7259                      .dwattr $C$DW$707, DW_AT_name("wUSBEvents")
    7260                      .dwattr $C$DW$707, DW_AT_TI_symbol_name("_wUSBEvents")
    7261                      .dwattr $C$DW$707, DW_AT_data_member_location[DW_OP_plus_uconst 0xc]
    7262                      .dwattr $C$DW$707, DW_AT_accessibility(DW_ACCESS_public)
    7263              $C$DW$708       .dwtag  DW_TAG_member
    7264                      .dwattr $C$DW$708, DW_AT_type(*$C$DW$T$85)
    7265                      .dwattr $C$DW$708, DW_AT_name("dataReadFromFifo")
    7266                      .dwattr $C$DW$708, DW_AT_TI_symbol_name("_dataReadFromFifo")
    7267                      .dwattr $C$DW$708, DW_AT_data_member_location[DW_OP_plus_uconst 0xd]
    7268                      .dwattr $C$DW$708, DW_AT_accessibility(DW_ACCESS_public)
    7269              $C$DW$709       .dwtag  DW_TAG_member
    7270                      .dwattr $C$DW$709, DW_AT_type(*$C$DW$T$117)
    7271                      .dwattr $C$DW$709, DW_AT_name("hEventHandler")
    7272                      .dwattr $C$DW$709, DW_AT_TI_symbol_name("_hEventHandler")
    7273                      .dwattr $C$DW$709, DW_AT_data_member_location[DW_OP_plus_uconst 0xe]
    7274                      .dwattr $C$DW$709, DW_AT_accessibility(DW_ACCESS_public)
    7275              $C$DW$710       .dwtag  DW_TAG_member
    7276                      .dwattr $C$DW$710, DW_AT_type(*$C$DW$T$86)
    7277                      .dwattr $C$DW$710, DW_AT_name("fStalled")
    7278                      .dwattr $C$DW$710, DW_AT_TI_symbol_name("_fStalled")
    7279                      .dwattr $C$DW$710, DW_AT_data_member_location[DW_OP_plus_uconst 0x10]
    7280                      .dwattr $C$DW$710, DW_AT_accessibility(DW_ACCESS_public)
    7281              $C$DW$711       .dwtag  DW_TAG_member
    7282                      .dwattr $C$DW$711, DW_AT_type(*$C$DW$T$86)
    7283                      .dwattr $C$DW$711, DW_AT_name("fSelected")
    7284                      .dwattr $C$DW$711, DW_AT_TI_symbol_name("_fSelected")
    7285                      .dwattr $C$DW$711, DW_AT_data_member_location[DW_OP_plus_uconst 0x11]
    7286                      .dwattr $C$DW$711, DW_AT_accessibility(DW_ACCESS_public)
TMS320C55x Assembler PC v4.4.1 Mon Aug 15 03:55:17 2016

Tools Copyright (c) 1996-2012 Texas Instruments Incorporated
usb.asm                                                              PAGE  167

    7287                      .dwendtag $C$DW$T$123
    7288              
    7289              $C$DW$T$93      .dwtag  DW_TAG_typedef, DW_AT_name("CSL_UsbEpStatus")
    7290                      .dwattr $C$DW$T$93, DW_AT_type(*$C$DW$T$123)
    7291                      .dwattr $C$DW$T$93, DW_AT_language(DW_LANG_C)
    7292              $C$DW$T$94      .dwtag  DW_TAG_pointer_type
    7293                      .dwattr $C$DW$T$94, DW_AT_type(*$C$DW$T$93)
    7294                      .dwattr $C$DW$T$94, DW_AT_address_class(0x17)
    7295              $C$DW$T$150     .dwtag  DW_TAG_typedef, DW_AT_name("pUsbEpStatus")
    7296                      .dwattr $C$DW$T$150, DW_AT_type(*$C$DW$T$94)
    7297                      .dwattr $C$DW$T$150, DW_AT_language(DW_LANG_C)
    7298              
    7299              $C$DW$T$124     .dwtag  DW_TAG_structure_type
    7300                      .dwattr $C$DW$T$124, DW_AT_name("CSL_UsbSetupStruct")
    7301                      .dwattr $C$DW$T$124, DW_AT_byte_size(0x06)
    7302              $C$DW$712       .dwtag  DW_TAG_member
    7303                      .dwattr $C$DW$712, DW_AT_type(*$C$DW$T$10)
    7304                      .dwattr $C$DW$712, DW_AT_name("newPacket")
    7305                      .dwattr $C$DW$712, DW_AT_TI_symbol_name("_newPacket")
    7306                      .dwattr $C$DW$712, DW_AT_data_member_location[DW_OP_plus_uconst 0x0]
    7307                      .dwattr $C$DW$712, DW_AT_accessibility(DW_ACCESS_public)
    7308              $C$DW$713       .dwtag  DW_TAG_member
    7309                      .dwattr $C$DW$713, DW_AT_type(*$C$DW$T$19)
    7310                      .dwattr $C$DW$713, DW_AT_name("bmRequestType")
    7311                      .dwattr $C$DW$713, DW_AT_TI_symbol_name("_bmRequestType")
    7312                      .dwattr $C$DW$713, DW_AT_data_member_location[DW_OP_plus_uconst 0x1]
    7313                      .dwattr $C$DW$713, DW_AT_accessibility(DW_ACCESS_public)
    7314              $C$DW$714       .dwtag  DW_TAG_member
    7315                      .dwattr $C$DW$714, DW_AT_type(*$C$DW$T$19)
    7316                      .dwattr $C$DW$714, DW_AT_name("bRequest")
    7317                      .dwattr $C$DW$714, DW_AT_TI_symbol_name("_bRequest")
    7318                      .dwattr $C$DW$714, DW_AT_data_member_location[DW_OP_plus_uconst 0x2]
    7319                      .dwattr $C$DW$714, DW_AT_accessibility(DW_ACCESS_public)
    7320              $C$DW$715       .dwtag  DW_TAG_member
    7321                      .dwattr $C$DW$715, DW_AT_type(*$C$DW$T$19)
    7322                      .dwattr $C$DW$715, DW_AT_name("wValue")
    7323                      .dwattr $C$DW$715, DW_AT_TI_symbol_name("_wValue")
    7324                      .dwattr $C$DW$715, DW_AT_data_member_location[DW_OP_plus_uconst 0x3]
    7325                      .dwattr $C$DW$715, DW_AT_accessibility(DW_ACCESS_public)
    7326              $C$DW$716       .dwtag  DW_TAG_member
    7327                      .dwattr $C$DW$716, DW_AT_type(*$C$DW$T$19)
    7328                      .dwattr $C$DW$716, DW_AT_name("wIndex")
    7329                      .dwattr $C$DW$716, DW_AT_TI_symbol_name("_wIndex")
    7330                      .dwattr $C$DW$716, DW_AT_data_member_location[DW_OP_plus_uconst 0x4]
    7331                      .dwattr $C$DW$716, DW_AT_accessibility(DW_ACCESS_public)
    7332              $C$DW$717       .dwtag  DW_TAG_member
    7333                      .dwattr $C$DW$717, DW_AT_type(*$C$DW$T$19)
    7334                      .dwattr $C$DW$717, DW_AT_name("wLength")
    7335                      .dwattr $C$DW$717, DW_AT_TI_symbol_name("_wLength")
    7336                      .dwattr $C$DW$717, DW_AT_data_member_location[DW_OP_plus_uconst 0x5]
    7337                      .dwattr $C$DW$717, DW_AT_accessibility(DW_ACCESS_public)
    7338                      .dwendtag $C$DW$T$124
    7339              
    7340              $C$DW$T$101     .dwtag  DW_TAG_typedef, DW_AT_name("CSL_UsbSetupStruct")
    7341                      .dwattr $C$DW$T$101, DW_AT_type(*$C$DW$T$124)
TMS320C55x Assembler PC v4.4.1 Mon Aug 15 03:55:17 2016

Tools Copyright (c) 1996-2012 Texas Instruments Incorporated
usb.asm                                                              PAGE  168

    7342                      .dwattr $C$DW$T$101, DW_AT_language(DW_LANG_C)
    7343              $C$DW$T$151     .dwtag  DW_TAG_pointer_type
    7344                      .dwattr $C$DW$T$151, DW_AT_type(*$C$DW$T$101)
    7345                      .dwattr $C$DW$T$151, DW_AT_address_class(0x17)
    7346              
    7347              $C$DW$T$127     .dwtag  DW_TAG_structure_type
    7348                      .dwattr $C$DW$T$127, DW_AT_name("CSL_UsbTransfer")
    7349                      .dwattr $C$DW$T$127, DW_AT_byte_size(0x0e)
    7350              $C$DW$718       .dwtag  DW_TAG_member
    7351                      .dwattr $C$DW$718, DW_AT_type(*$C$DW$T$88)
    7352                      .dwattr $C$DW$718, DW_AT_name("dwFlags")
    7353                      .dwattr $C$DW$718, DW_AT_TI_symbol_name("_dwFlags")
    7354                      .dwattr $C$DW$718, DW_AT_data_member_location[DW_OP_plus_uconst 0x0]
    7355                      .dwattr $C$DW$718, DW_AT_accessibility(DW_ACCESS_public)
    7356              $C$DW$719       .dwtag  DW_TAG_member
    7357                      .dwattr $C$DW$719, DW_AT_type(*$C$DW$T$88)
    7358                      .dwattr $C$DW$719, DW_AT_name("dwEndpoint")
    7359                      .dwattr $C$DW$719, DW_AT_TI_symbol_name("_dwEndpoint")
    7360                      .dwattr $C$DW$719, DW_AT_data_member_location[DW_OP_plus_uconst 0x2]
    7361                      .dwattr $C$DW$719, DW_AT_accessibility(DW_ACCESS_public)
    7362              $C$DW$720       .dwtag  DW_TAG_member
    7363                      .dwattr $C$DW$720, DW_AT_type(*$C$DW$T$125)
    7364                      .dwattr $C$DW$720, DW_AT_name("pvBuffer")
    7365                      .dwattr $C$DW$720, DW_AT_TI_symbol_name("_pvBuffer")
    7366                      .dwattr $C$DW$720, DW_AT_data_member_location[DW_OP_plus_uconst 0x4]
    7367                      .dwattr $C$DW$720, DW_AT_accessibility(DW_ACCESS_public)
    7368              $C$DW$721       .dwtag  DW_TAG_member
    7369                      .dwattr $C$DW$721, DW_AT_type(*$C$DW$T$88)
    7370                      .dwattr $C$DW$721, DW_AT_name("cbBuffer")
    7371                      .dwattr $C$DW$721, DW_AT_TI_symbol_name("_cbBuffer")
    7372                      .dwattr $C$DW$721, DW_AT_data_member_location[DW_OP_plus_uconst 0x6]
    7373                      .dwattr $C$DW$721, DW_AT_accessibility(DW_ACCESS_public)
    7374              $C$DW$722       .dwtag  DW_TAG_member
    7375                      .dwattr $C$DW$722, DW_AT_type(*$C$DW$T$88)
    7376                      .dwattr $C$DW$722, DW_AT_name("cbTransferred")
    7377                      .dwattr $C$DW$722, DW_AT_TI_symbol_name("_cbTransferred")
    7378                      .dwattr $C$DW$722, DW_AT_data_member_location[DW_OP_plus_uconst 0x8]
    7379                      .dwattr $C$DW$722, DW_AT_accessibility(DW_ACCESS_public)
    7380              $C$DW$723       .dwtag  DW_TAG_member
    7381                      .dwattr $C$DW$723, DW_AT_type(*$C$DW$T$88)
    7382                      .dwattr $C$DW$723, DW_AT_name("prevTxferLen")
    7383                      .dwattr $C$DW$723, DW_AT_TI_symbol_name("_prevTxferLen")
    7384                      .dwattr $C$DW$723, DW_AT_data_member_location[DW_OP_plus_uconst 0xa]
    7385                      .dwattr $C$DW$723, DW_AT_accessibility(DW_ACCESS_public)
    7386              $C$DW$724       .dwtag  DW_TAG_member
    7387                      .dwattr $C$DW$724, DW_AT_type(*$C$DW$T$86)
    7388                      .dwattr $C$DW$724, DW_AT_name("fComplete")
    7389                      .dwattr $C$DW$724, DW_AT_TI_symbol_name("_fComplete")
    7390                      .dwattr $C$DW$724, DW_AT_data_member_location[DW_OP_plus_uconst 0xc]
    7391                      .dwattr $C$DW$724, DW_AT_accessibility(DW_ACCESS_public)
    7392              $C$DW$725       .dwtag  DW_TAG_member
    7393                      .dwattr $C$DW$725, DW_AT_type(*$C$DW$T$126)
    7394                      .dwattr $C$DW$725, DW_AT_name("ioFlags")
    7395                      .dwattr $C$DW$725, DW_AT_TI_symbol_name("_ioFlags")
    7396                      .dwattr $C$DW$725, DW_AT_data_member_location[DW_OP_plus_uconst 0xd]
TMS320C55x Assembler PC v4.4.1 Mon Aug 15 03:55:17 2016

Tools Copyright (c) 1996-2012 Texas Instruments Incorporated
usb.asm                                                              PAGE  169

    7397                      .dwattr $C$DW$725, DW_AT_accessibility(DW_ACCESS_public)
    7398                      .dwendtag $C$DW$T$127
    7399              
    7400              $C$DW$T$121     .dwtag  DW_TAG_typedef, DW_AT_name("CSL_UsbTransfer")
    7401                      .dwattr $C$DW$T$121, DW_AT_type(*$C$DW$T$127)
    7402                      .dwattr $C$DW$T$121, DW_AT_language(DW_LANG_C)
    7403              $C$DW$T$122     .dwtag  DW_TAG_pointer_type
    7404                      .dwattr $C$DW$T$122, DW_AT_type(*$C$DW$T$121)
    7405                      .dwattr $C$DW$T$122, DW_AT_address_class(0x17)
    7406              $C$DW$T$152     .dwtag  DW_TAG_typedef, DW_AT_name("pUsbTransfer")
    7407                      .dwattr $C$DW$T$152, DW_AT_type(*$C$DW$T$122)
    7408                      .dwattr $C$DW$T$152, DW_AT_language(DW_LANG_C)
    7409              $C$DW$T$3       .dwtag  DW_TAG_pointer_type
    7410                      .dwattr $C$DW$T$3, DW_AT_address_class(0x17)
    7411              $C$DW$T$125     .dwtag  DW_TAG_typedef, DW_AT_name("PVOID")
    7412                      .dwattr $C$DW$T$125, DW_AT_type(*$C$DW$T$3)
    7413                      .dwattr $C$DW$T$125, DW_AT_language(DW_LANG_C)
    7414              
    7415              $C$DW$T$67      .dwtag  DW_TAG_subroutine_type
    7416                      .dwattr $C$DW$T$67, DW_AT_language(DW_LANG_C)
    7417              $C$DW$T$68      .dwtag  DW_TAG_pointer_type
    7418                      .dwattr $C$DW$T$68, DW_AT_type(*$C$DW$T$67)
    7419                      .dwattr $C$DW$T$68, DW_AT_address_class(0x20)
    7420              $C$DW$T$69      .dwtag  DW_TAG_typedef, DW_AT_name("IRQ_IsrPtr")
    7421                      .dwattr $C$DW$T$69, DW_AT_type(*$C$DW$T$68)
    7422                      .dwattr $C$DW$T$69, DW_AT_language(DW_LANG_C)
    7423              
    7424              $C$DW$T$76      .dwtag  DW_TAG_subroutine_type
    7425                      .dwattr $C$DW$T$76, DW_AT_language(DW_LANG_C)
    7426              $C$DW$726       .dwtag  DW_TAG_formal_parameter
    7427                      .dwattr $C$DW$726, DW_AT_type(*$C$DW$T$19)
    7428                      .dwendtag $C$DW$T$76
    7429              
    7430              $C$DW$T$77      .dwtag  DW_TAG_pointer_type
    7431                      .dwattr $C$DW$T$77, DW_AT_type(*$C$DW$T$76)
    7432                      .dwattr $C$DW$T$77, DW_AT_address_class(0x20)
    7433              $C$DW$T$78      .dwtag  DW_TAG_typedef, DW_AT_name("CSL_USB_APP_CALLBACK")
    7434                      .dwattr $C$DW$T$78, DW_AT_type(*$C$DW$T$77)
    7435                      .dwattr $C$DW$T$78, DW_AT_language(DW_LANG_C)
    7436              
    7437              $C$DW$T$115     .dwtag  DW_TAG_subroutine_type
    7438                      .dwattr $C$DW$T$115, DW_AT_language(DW_LANG_C)
    7439              $C$DW$T$116     .dwtag  DW_TAG_pointer_type
    7440                      .dwattr $C$DW$T$116, DW_AT_type(*$C$DW$T$115)
    7441                      .dwattr $C$DW$T$116, DW_AT_address_class(0x20)
    7442              $C$DW$T$117     .dwtag  DW_TAG_typedef, DW_AT_name("CSL_USB_EVENT_ISR")
    7443                      .dwattr $C$DW$T$117, DW_AT_type(*$C$DW$T$116)
    7444                      .dwattr $C$DW$T$117, DW_AT_language(DW_LANG_C)
    7445              $C$DW$727       .dwtag  DW_TAG_TI_far_type
    7446              $C$DW$T$153     .dwtag  DW_TAG_const_type
    7447                      .dwattr $C$DW$T$153, DW_AT_type(*$C$DW$727)
    7448              $C$DW$T$154     .dwtag  DW_TAG_pointer_type
    7449                      .dwattr $C$DW$T$154, DW_AT_type(*$C$DW$T$153)
    7450                      .dwattr $C$DW$T$154, DW_AT_address_class(0x17)
    7451              $C$DW$T$4       .dwtag  DW_TAG_base_type
TMS320C55x Assembler PC v4.4.1 Mon Aug 15 03:55:17 2016

Tools Copyright (c) 1996-2012 Texas Instruments Incorporated
usb.asm                                                              PAGE  170

    7452                      .dwattr $C$DW$T$4, DW_AT_encoding(DW_ATE_boolean)
    7453                      .dwattr $C$DW$T$4, DW_AT_name("bool")
    7454                      .dwattr $C$DW$T$4, DW_AT_byte_size(0x01)
    7455              $C$DW$T$5       .dwtag  DW_TAG_base_type
    7456                      .dwattr $C$DW$T$5, DW_AT_encoding(DW_ATE_signed_char)
    7457                      .dwattr $C$DW$T$5, DW_AT_name("signed char")
    7458                      .dwattr $C$DW$T$5, DW_AT_byte_size(0x01)
    7459              $C$DW$T$6       .dwtag  DW_TAG_base_type
    7460                      .dwattr $C$DW$T$6, DW_AT_encoding(DW_ATE_unsigned_char)
    7461                      .dwattr $C$DW$T$6, DW_AT_name("unsigned char")
    7462                      .dwattr $C$DW$T$6, DW_AT_byte_size(0x01)
    7463              $C$DW$T$162     .dwtag  DW_TAG_typedef, DW_AT_name("Uint8")
    7464                      .dwattr $C$DW$T$162, DW_AT_type(*$C$DW$T$6)
    7465                      .dwattr $C$DW$T$162, DW_AT_language(DW_LANG_C)
    7466              $C$DW$T$7       .dwtag  DW_TAG_base_type
    7467                      .dwattr $C$DW$T$7, DW_AT_encoding(DW_ATE_signed_char)
    7468                      .dwattr $C$DW$T$7, DW_AT_name("wchar_t")
    7469                      .dwattr $C$DW$T$7, DW_AT_byte_size(0x01)
    7470              $C$DW$T$8       .dwtag  DW_TAG_base_type
    7471                      .dwattr $C$DW$T$8, DW_AT_encoding(DW_ATE_signed)
    7472                      .dwattr $C$DW$T$8, DW_AT_name("short")
    7473                      .dwattr $C$DW$T$8, DW_AT_byte_size(0x01)
    7474              $C$DW$T$79      .dwtag  DW_TAG_typedef, DW_AT_name("Int16")
    7475                      .dwattr $C$DW$T$79, DW_AT_type(*$C$DW$T$8)
    7476                      .dwattr $C$DW$T$79, DW_AT_language(DW_LANG_C)
    7477              $C$DW$T$80      .dwtag  DW_TAG_typedef, DW_AT_name("CSL_Status")
    7478                      .dwattr $C$DW$T$80, DW_AT_type(*$C$DW$T$79)
    7479                      .dwattr $C$DW$T$80, DW_AT_language(DW_LANG_C)
    7480              
    7481              $C$DW$T$81      .dwtag  DW_TAG_subroutine_type
    7482                      .dwattr $C$DW$T$81, DW_AT_type(*$C$DW$T$80)
    7483                      .dwattr $C$DW$T$81, DW_AT_language(DW_LANG_C)
    7484              $C$DW$728       .dwtag  DW_TAG_formal_parameter
    7485                      .dwattr $C$DW$728, DW_AT_type(*$C$DW$T$3)
    7486              $C$DW$729       .dwtag  DW_TAG_formal_parameter
    7487                      .dwattr $C$DW$729, DW_AT_type(*$C$DW$T$3)
    7488                      .dwendtag $C$DW$T$81
    7489              
    7490              $C$DW$T$82      .dwtag  DW_TAG_pointer_type
    7491                      .dwattr $C$DW$T$82, DW_AT_type(*$C$DW$T$81)
    7492                      .dwattr $C$DW$T$82, DW_AT_address_class(0x20)
    7493              $C$DW$T$83      .dwtag  DW_TAG_typedef, DW_AT_name("CSL_USB_APP_TRANSFER_CALLBACK")
    7494                      .dwattr $C$DW$T$83, DW_AT_type(*$C$DW$T$82)
    7495                      .dwattr $C$DW$T$83, DW_AT_language(DW_LANG_C)
    7496              $C$DW$T$128     .dwtag  DW_TAG_pointer_type
    7497                      .dwattr $C$DW$T$128, DW_AT_type(*$C$DW$T$80)
    7498                      .dwattr $C$DW$T$128, DW_AT_address_class(0x17)
    7499              $C$DW$T$9       .dwtag  DW_TAG_base_type
    7500                      .dwattr $C$DW$T$9, DW_AT_encoding(DW_ATE_unsigned)
    7501                      .dwattr $C$DW$T$9, DW_AT_name("unsigned short")
    7502                      .dwattr $C$DW$T$9, DW_AT_byte_size(0x01)
    7503              $C$DW$T$19      .dwtag  DW_TAG_typedef, DW_AT_name("Uint16")
    7504                      .dwattr $C$DW$T$19, DW_AT_type(*$C$DW$T$9)
    7505                      .dwattr $C$DW$T$19, DW_AT_language(DW_LANG_C)
    7506              $C$DW$T$126     .dwtag  DW_TAG_typedef, DW_AT_name("CSL_UsbIoFlags")
TMS320C55x Assembler PC v4.4.1 Mon Aug 15 03:55:17 2016

Tools Copyright (c) 1996-2012 Texas Instruments Incorporated
usb.asm                                                              PAGE  171

    7507                      .dwattr $C$DW$T$126, DW_AT_type(*$C$DW$T$19)
    7508                      .dwattr $C$DW$T$126, DW_AT_language(DW_LANG_C)
    7509              $C$DW$730       .dwtag  DW_TAG_TI_far_type
    7510                      .dwattr $C$DW$730, DW_AT_type(*$C$DW$T$19)
    7511              $C$DW$T$20      .dwtag  DW_TAG_volatile_type
    7512                      .dwattr $C$DW$T$20, DW_AT_type(*$C$DW$730)
    7513              
    7514              $C$DW$T$21      .dwtag  DW_TAG_array_type
    7515                      .dwattr $C$DW$T$21, DW_AT_type(*$C$DW$T$20)
    7516                      .dwattr $C$DW$T$21, DW_AT_language(DW_LANG_C)
    7517                      .dwattr $C$DW$T$21, DW_AT_byte_size(0x02)
    7518              $C$DW$731       .dwtag  DW_TAG_subrange_type
    7519                      .dwattr $C$DW$731, DW_AT_upper_bound(0x01)
    7520                      .dwendtag $C$DW$T$21
    7521              
    7522              
    7523              $C$DW$T$23      .dwtag  DW_TAG_array_type
    7524                      .dwattr $C$DW$T$23, DW_AT_type(*$C$DW$T$20)
    7525                      .dwattr $C$DW$T$23, DW_AT_language(DW_LANG_C)
    7526                      .dwattr $C$DW$T$23, DW_AT_byte_size(0x07)
    7527              $C$DW$732       .dwtag  DW_TAG_subrange_type
    7528                      .dwattr $C$DW$732, DW_AT_upper_bound(0x06)
    7529                      .dwendtag $C$DW$T$23
    7530              
    7531              
    7532              $C$DW$T$25      .dwtag  DW_TAG_array_type
    7533                      .dwattr $C$DW$T$25, DW_AT_type(*$C$DW$T$20)
    7534                      .dwattr $C$DW$T$25, DW_AT_language(DW_LANG_C)
    7535                      .dwattr $C$DW$T$25, DW_AT_byte_size(0x06)
    7536              $C$DW$733       .dwtag  DW_TAG_subrange_type
    7537                      .dwattr $C$DW$733, DW_AT_upper_bound(0x05)
    7538                      .dwendtag $C$DW$T$25
    7539              
    7540              
    7541              $C$DW$T$26      .dwtag  DW_TAG_array_type
    7542                      .dwattr $C$DW$T$26, DW_AT_type(*$C$DW$T$20)
    7543                      .dwattr $C$DW$T$26, DW_AT_language(DW_LANG_C)
    7544                      .dwattr $C$DW$T$26, DW_AT_byte_size(0x0e)
    7545              $C$DW$734       .dwtag  DW_TAG_subrange_type
    7546                      .dwattr $C$DW$734, DW_AT_upper_bound(0x0d)
    7547                      .dwendtag $C$DW$T$26
    7548              
    7549              
    7550              $C$DW$T$29      .dwtag  DW_TAG_array_type
    7551                      .dwattr $C$DW$T$29, DW_AT_type(*$C$DW$T$20)
    7552                      .dwattr $C$DW$T$29, DW_AT_language(DW_LANG_C)
    7553                      .dwattr $C$DW$T$29, DW_AT_byte_size(0x0a)
    7554              $C$DW$735       .dwtag  DW_TAG_subrange_type
    7555                      .dwattr $C$DW$735, DW_AT_upper_bound(0x09)
    7556                      .dwendtag $C$DW$T$29
    7557              
    7558              
    7559              $C$DW$T$31      .dwtag  DW_TAG_array_type
    7560                      .dwattr $C$DW$T$31, DW_AT_type(*$C$DW$T$20)
    7561                      .dwattr $C$DW$T$31, DW_AT_language(DW_LANG_C)
TMS320C55x Assembler PC v4.4.1 Mon Aug 15 03:55:17 2016

Tools Copyright (c) 1996-2012 Texas Instruments Incorporated
usb.asm                                                              PAGE  172

    7562                      .dwattr $C$DW$T$31, DW_AT_byte_size(0x0c)
    7563              $C$DW$736       .dwtag  DW_TAG_subrange_type
    7564                      .dwattr $C$DW$736, DW_AT_upper_bound(0x0b)
    7565                      .dwendtag $C$DW$T$31
    7566              
    7567              
    7568              $C$DW$T$33      .dwtag  DW_TAG_array_type
    7569                      .dwattr $C$DW$T$33, DW_AT_type(*$C$DW$T$20)
    7570                      .dwattr $C$DW$T$33, DW_AT_language(DW_LANG_C)
    7571                      .dwattr $C$DW$T$33, DW_AT_byte_size(0x03)
    7572              $C$DW$737       .dwtag  DW_TAG_subrange_type
    7573                      .dwattr $C$DW$737, DW_AT_upper_bound(0x02)
    7574                      .dwendtag $C$DW$T$33
    7575              
    7576              
    7577              $C$DW$T$35      .dwtag  DW_TAG_array_type
    7578                      .dwattr $C$DW$T$35, DW_AT_type(*$C$DW$T$20)
    7579                      .dwattr $C$DW$T$35, DW_AT_language(DW_LANG_C)
    7580                      .dwattr $C$DW$T$35, DW_AT_byte_size(0x3a3)
    7581              $C$DW$738       .dwtag  DW_TAG_subrange_type
    7582                      .dwattr $C$DW$738, DW_AT_upper_bound(0x3a2)
    7583                      .dwendtag $C$DW$T$35
    7584              
    7585              
    7586              $C$DW$T$36      .dwtag  DW_TAG_array_type
    7587                      .dwattr $C$DW$T$36, DW_AT_type(*$C$DW$T$20)
    7588                      .dwattr $C$DW$T$36, DW_AT_language(DW_LANG_C)
    7589                      .dwattr $C$DW$T$36, DW_AT_byte_size(0x04)
    7590              $C$DW$739       .dwtag  DW_TAG_subrange_type
    7591                      .dwattr $C$DW$739, DW_AT_upper_bound(0x03)
    7592                      .dwendtag $C$DW$T$36
    7593              
    7594              
    7595              $C$DW$T$37      .dwtag  DW_TAG_array_type
    7596                      .dwattr $C$DW$T$37, DW_AT_type(*$C$DW$T$20)
    7597                      .dwattr $C$DW$T$37, DW_AT_language(DW_LANG_C)
    7598                      .dwattr $C$DW$T$37, DW_AT_byte_size(0x2e)
    7599              $C$DW$740       .dwtag  DW_TAG_subrange_type
    7600                      .dwattr $C$DW$740, DW_AT_upper_bound(0x2d)
    7601                      .dwendtag $C$DW$T$37
    7602              
    7603              
    7604              $C$DW$T$38      .dwtag  DW_TAG_array_type
    7605                      .dwattr $C$DW$T$38, DW_AT_type(*$C$DW$T$20)
    7606                      .dwattr $C$DW$T$38, DW_AT_language(DW_LANG_C)
    7607                      .dwattr $C$DW$T$38, DW_AT_byte_size(0x13)
    7608              $C$DW$741       .dwtag  DW_TAG_subrange_type
    7609                      .dwattr $C$DW$741, DW_AT_upper_bound(0x12)
    7610                      .dwendtag $C$DW$T$38
    7611              
    7612              
    7613              $C$DW$T$41      .dwtag  DW_TAG_array_type
    7614                      .dwattr $C$DW$T$41, DW_AT_type(*$C$DW$T$20)
    7615                      .dwattr $C$DW$T$41, DW_AT_language(DW_LANG_C)
    7616                      .dwattr $C$DW$T$41, DW_AT_byte_size(0x59)
TMS320C55x Assembler PC v4.4.1 Mon Aug 15 03:55:17 2016

Tools Copyright (c) 1996-2012 Texas Instruments Incorporated
usb.asm                                                              PAGE  173

    7617              $C$DW$742       .dwtag  DW_TAG_subrange_type
    7618                      .dwattr $C$DW$742, DW_AT_upper_bound(0x58)
    7619                      .dwendtag $C$DW$T$41
    7620              
    7621              
    7622              $C$DW$T$44      .dwtag  DW_TAG_array_type
    7623                      .dwattr $C$DW$T$44, DW_AT_type(*$C$DW$T$20)
    7624                      .dwattr $C$DW$T$44, DW_AT_language(DW_LANG_C)
    7625                      .dwattr $C$DW$T$44, DW_AT_byte_size(0xaaf)
    7626              $C$DW$743       .dwtag  DW_TAG_subrange_type
    7627                      .dwattr $C$DW$743, DW_AT_upper_bound(0xaae)
    7628                      .dwendtag $C$DW$T$44
    7629              
    7630              
    7631              $C$DW$T$45      .dwtag  DW_TAG_array_type
    7632                      .dwattr $C$DW$T$45, DW_AT_type(*$C$DW$T$20)
    7633                      .dwattr $C$DW$T$45, DW_AT_language(DW_LANG_C)
    7634                      .dwattr $C$DW$T$45, DW_AT_byte_size(0x7f7)
    7635              $C$DW$744       .dwtag  DW_TAG_subrange_type
    7636                      .dwattr $C$DW$744, DW_AT_upper_bound(0x7f6)
    7637                      .dwendtag $C$DW$T$45
    7638              
    7639              
    7640              $C$DW$T$48      .dwtag  DW_TAG_array_type
    7641                      .dwattr $C$DW$T$48, DW_AT_type(*$C$DW$T$20)
    7642                      .dwattr $C$DW$T$48, DW_AT_language(DW_LANG_C)
    7643                      .dwattr $C$DW$T$48, DW_AT_byte_size(0x780)
    7644              $C$DW$745       .dwtag  DW_TAG_subrange_type
    7645                      .dwattr $C$DW$745, DW_AT_upper_bound(0x77f)
    7646                      .dwendtag $C$DW$T$48
    7647              
    7648              
    7649              $C$DW$T$49      .dwtag  DW_TAG_array_type
    7650                      .dwattr $C$DW$T$49, DW_AT_type(*$C$DW$T$20)
    7651                      .dwattr $C$DW$T$49, DW_AT_language(DW_LANG_C)
    7652                      .dwattr $C$DW$T$49, DW_AT_byte_size(0x7fe)
    7653              $C$DW$746       .dwtag  DW_TAG_subrange_type
    7654                      .dwattr $C$DW$746, DW_AT_upper_bound(0x7fd)
    7655                      .dwendtag $C$DW$T$49
    7656              
    7657              
    7658              $C$DW$T$52      .dwtag  DW_TAG_array_type
    7659                      .dwattr $C$DW$T$52, DW_AT_type(*$C$DW$T$20)
    7660                      .dwattr $C$DW$T$52, DW_AT_language(DW_LANG_C)
    7661                      .dwattr $C$DW$T$52, DW_AT_byte_size(0x1700)
    7662              $C$DW$747       .dwtag  DW_TAG_subrange_type
    7663                      .dwattr $C$DW$747, DW_AT_upper_bound(0x16ff)
    7664                      .dwendtag $C$DW$T$52
    7665              
    7666              
    7667              $C$DW$T$53      .dwtag  DW_TAG_array_type
    7668                      .dwattr $C$DW$T$53, DW_AT_type(*$C$DW$T$20)
    7669                      .dwattr $C$DW$T$53, DW_AT_language(DW_LANG_C)
    7670                      .dwattr $C$DW$T$53, DW_AT_byte_size(0x16)
    7671              $C$DW$748       .dwtag  DW_TAG_subrange_type
TMS320C55x Assembler PC v4.4.1 Mon Aug 15 03:55:17 2016

Tools Copyright (c) 1996-2012 Texas Instruments Incorporated
usb.asm                                                              PAGE  174

    7672                      .dwattr $C$DW$748, DW_AT_upper_bound(0x15)
    7673                      .dwendtag $C$DW$T$53
    7674              
    7675              
    7676              $C$DW$T$54      .dwtag  DW_TAG_array_type
    7677                      .dwattr $C$DW$T$54, DW_AT_type(*$C$DW$T$20)
    7678                      .dwattr $C$DW$T$54, DW_AT_language(DW_LANG_C)
    7679                      .dwattr $C$DW$T$54, DW_AT_byte_size(0x52)
    7680              $C$DW$749       .dwtag  DW_TAG_subrange_type
    7681                      .dwattr $C$DW$749, DW_AT_upper_bound(0x51)
    7682                      .dwendtag $C$DW$T$54
    7683              
    7684              
    7685              $C$DW$T$55      .dwtag  DW_TAG_array_type
    7686                      .dwattr $C$DW$T$55, DW_AT_type(*$C$DW$T$20)
    7687                      .dwattr $C$DW$T$55, DW_AT_language(DW_LANG_C)
    7688                      .dwattr $C$DW$T$55, DW_AT_byte_size(0xf66)
    7689              $C$DW$750       .dwtag  DW_TAG_subrange_type
    7690                      .dwattr $C$DW$750, DW_AT_upper_bound(0xf65)
    7691                      .dwendtag $C$DW$T$55
    7692              
    7693              
    7694              $C$DW$T$58      .dwtag  DW_TAG_array_type
    7695                      .dwattr $C$DW$T$58, DW_AT_type(*$C$DW$T$20)
    7696                      .dwattr $C$DW$T$58, DW_AT_language(DW_LANG_C)
    7697                      .dwattr $C$DW$T$58, DW_AT_byte_size(0xf00)
    7698              $C$DW$751       .dwtag  DW_TAG_subrange_type
    7699                      .dwattr $C$DW$751, DW_AT_upper_bound(0xeff)
    7700                      .dwendtag $C$DW$T$58
    7701              
    7702              
    7703              $C$DW$T$61      .dwtag  DW_TAG_array_type
    7704                      .dwattr $C$DW$T$61, DW_AT_type(*$C$DW$T$20)
    7705                      .dwattr $C$DW$T$61, DW_AT_language(DW_LANG_C)
    7706                      .dwattr $C$DW$T$61, DW_AT_byte_size(0x400)
    7707              $C$DW$752       .dwtag  DW_TAG_subrange_type
    7708                      .dwattr $C$DW$752, DW_AT_upper_bound(0x3ff)
    7709                      .dwendtag $C$DW$T$61
    7710              
    7711              
    7712              $C$DW$T$65      .dwtag  DW_TAG_array_type
    7713                      .dwattr $C$DW$T$65, DW_AT_type(*$C$DW$T$20)
    7714                      .dwattr $C$DW$T$65, DW_AT_language(DW_LANG_C)
    7715                      .dwattr $C$DW$T$65, DW_AT_byte_size(0x05)
    7716              $C$DW$753       .dwtag  DW_TAG_subrange_type
    7717                      .dwattr $C$DW$753, DW_AT_upper_bound(0x04)
    7718                      .dwendtag $C$DW$T$65
    7719              
    7720              $C$DW$754       .dwtag  DW_TAG_TI_far_type
    7721                      .dwattr $C$DW$754, DW_AT_type(*$C$DW$T$19)
    7722              $C$DW$755       .dwtag  DW_TAG_TI_ioport_type
    7723                      .dwattr $C$DW$755, DW_AT_type(*$C$DW$754)
    7724              $C$DW$T$193     .dwtag  DW_TAG_volatile_type
    7725                      .dwattr $C$DW$T$193, DW_AT_type(*$C$DW$755)
    7726              $C$DW$T$194     .dwtag  DW_TAG_pointer_type
TMS320C55x Assembler PC v4.4.1 Mon Aug 15 03:55:17 2016

Tools Copyright (c) 1996-2012 Texas Instruments Incorporated
usb.asm                                                              PAGE  175

    7727                      .dwattr $C$DW$T$194, DW_AT_type(*$C$DW$T$193)
    7728                      .dwattr $C$DW$T$194, DW_AT_address_class(0x10)
    7729              $C$DW$T$85      .dwtag  DW_TAG_typedef, DW_AT_name("WORD")
    7730                      .dwattr $C$DW$T$85, DW_AT_type(*$C$DW$T$19)
    7731                      .dwattr $C$DW$T$85, DW_AT_language(DW_LANG_C)
    7732              $C$DW$T$87      .dwtag  DW_TAG_pointer_type
    7733                      .dwattr $C$DW$T$87, DW_AT_type(*$C$DW$T$85)
    7734                      .dwattr $C$DW$T$87, DW_AT_address_class(0x17)
    7735              $C$DW$T$102     .dwtag  DW_TAG_pointer_type
    7736                      .dwattr $C$DW$T$102, DW_AT_type(*$C$DW$T$19)
    7737                      .dwattr $C$DW$T$102, DW_AT_address_class(0x17)
    7738              $C$DW$T$195     .dwtag  DW_TAG_typedef, DW_AT_name("PWORD")
    7739                      .dwattr $C$DW$T$195, DW_AT_type(*$C$DW$T$102)
    7740                      .dwattr $C$DW$T$195, DW_AT_language(DW_LANG_C)
    7741              
    7742              $C$DW$T$103     .dwtag  DW_TAG_array_type
    7743                      .dwattr $C$DW$T$103, DW_AT_type(*$C$DW$T$102)
    7744                      .dwattr $C$DW$T$103, DW_AT_language(DW_LANG_C)
    7745                      .dwattr $C$DW$T$103, DW_AT_byte_size(0x08)
    7746              $C$DW$756       .dwtag  DW_TAG_subrange_type
    7747                      .dwattr $C$DW$756, DW_AT_upper_bound(0x03)
    7748                      .dwendtag $C$DW$T$103
    7749              
    7750              
    7751              $C$DW$T$196     .dwtag  DW_TAG_array_type
    7752                      .dwattr $C$DW$T$196, DW_AT_type(*$C$DW$T$19)
    7753                      .dwattr $C$DW$T$196, DW_AT_language(DW_LANG_C)
    7754                      .dwattr $C$DW$T$196, DW_AT_byte_size(0x100)
    7755              $C$DW$757       .dwtag  DW_TAG_subrange_type
    7756                      .dwattr $C$DW$757, DW_AT_upper_bound(0xff)
    7757                      .dwendtag $C$DW$T$196
    7758              
    7759              
    7760              $C$DW$T$197     .dwtag  DW_TAG_array_type
    7761                      .dwattr $C$DW$T$197, DW_AT_type(*$C$DW$T$19)
    7762                      .dwattr $C$DW$T$197, DW_AT_language(DW_LANG_C)
    7763                      .dwattr $C$DW$T$197, DW_AT_byte_size(0x09)
    7764              $C$DW$758       .dwtag  DW_TAG_subrange_type
    7765                      .dwattr $C$DW$758, DW_AT_upper_bound(0x08)
    7766                      .dwendtag $C$DW$T$197
    7767              
    7768              
    7769              $C$DW$T$198     .dwtag  DW_TAG_array_type
    7770                      .dwattr $C$DW$T$198, DW_AT_type(*$C$DW$T$19)
    7771                      .dwattr $C$DW$T$198, DW_AT_language(DW_LANG_C)
    7772                      .dwattr $C$DW$T$198, DW_AT_byte_size(0x10)
    7773              $C$DW$759       .dwtag  DW_TAG_subrange_type
    7774                      .dwattr $C$DW$759, DW_AT_upper_bound(0x0f)
    7775                      .dwendtag $C$DW$T$198
    7776              
    7777              
    7778              $C$DW$T$199     .dwtag  DW_TAG_array_type
    7779                      .dwattr $C$DW$T$199, DW_AT_type(*$C$DW$T$19)
    7780                      .dwattr $C$DW$T$199, DW_AT_language(DW_LANG_C)
    7781                      .dwattr $C$DW$T$199, DW_AT_byte_size(0x24)
TMS320C55x Assembler PC v4.4.1 Mon Aug 15 03:55:17 2016

Tools Copyright (c) 1996-2012 Texas Instruments Incorporated
usb.asm                                                              PAGE  176

    7782              $C$DW$760       .dwtag  DW_TAG_subrange_type
    7783                      .dwattr $C$DW$760, DW_AT_upper_bound(0x23)
    7784                      .dwendtag $C$DW$T$199
    7785              
    7786              
    7787              $C$DW$T$200     .dwtag  DW_TAG_array_type
    7788                      .dwattr $C$DW$T$200, DW_AT_type(*$C$DW$T$19)
    7789                      .dwattr $C$DW$T$200, DW_AT_language(DW_LANG_C)
    7790                      .dwattr $C$DW$T$200, DW_AT_byte_size(0x90)
    7791              $C$DW$761       .dwtag  DW_TAG_subrange_type
    7792                      .dwattr $C$DW$761, DW_AT_upper_bound(0x03)
    7793              $C$DW$762       .dwtag  DW_TAG_subrange_type
    7794                      .dwattr $C$DW$762, DW_AT_upper_bound(0x23)
    7795                      .dwendtag $C$DW$T$200
    7796              
    7797              $C$DW$T$10      .dwtag  DW_TAG_base_type
    7798                      .dwattr $C$DW$T$10, DW_AT_encoding(DW_ATE_signed)
    7799                      .dwattr $C$DW$T$10, DW_AT_name("int")
    7800                      .dwattr $C$DW$T$10, DW_AT_byte_size(0x01)
    7801              $C$DW$T$86      .dwtag  DW_TAG_typedef, DW_AT_name("Bool")
    7802                      .dwattr $C$DW$T$86, DW_AT_type(*$C$DW$T$10)
    7803                      .dwattr $C$DW$T$86, DW_AT_language(DW_LANG_C)
    7804              $C$DW$763       .dwtag  DW_TAG_TI_far_type
    7805                      .dwattr $C$DW$763, DW_AT_type(*$C$DW$T$86)
    7806              $C$DW$T$202     .dwtag  DW_TAG_volatile_type
    7807                      .dwattr $C$DW$T$202, DW_AT_type(*$C$DW$763)
    7808              $C$DW$T$11      .dwtag  DW_TAG_base_type
    7809                      .dwattr $C$DW$T$11, DW_AT_encoding(DW_ATE_unsigned)
    7810                      .dwattr $C$DW$T$11, DW_AT_name("unsigned int")
    7811                      .dwattr $C$DW$T$11, DW_AT_byte_size(0x01)
    7812              $C$DW$T$12      .dwtag  DW_TAG_base_type
    7813                      .dwattr $C$DW$T$12, DW_AT_encoding(DW_ATE_signed)
    7814                      .dwattr $C$DW$T$12, DW_AT_name("long")
    7815                      .dwattr $C$DW$T$12, DW_AT_byte_size(0x02)
    7816              $C$DW$T$13      .dwtag  DW_TAG_base_type
    7817                      .dwattr $C$DW$T$13, DW_AT_encoding(DW_ATE_unsigned)
    7818                      .dwattr $C$DW$T$13, DW_AT_name("unsigned long")
    7819                      .dwattr $C$DW$T$13, DW_AT_byte_size(0x02)
    7820              $C$DW$T$70      .dwtag  DW_TAG_typedef, DW_AT_name("Uint32")
    7821                      .dwattr $C$DW$T$70, DW_AT_type(*$C$DW$T$13)
    7822                      .dwattr $C$DW$T$70, DW_AT_language(DW_LANG_C)
    7823              $C$DW$T$88      .dwtag  DW_TAG_typedef, DW_AT_name("DWORD")
    7824                      .dwattr $C$DW$T$88, DW_AT_type(*$C$DW$T$70)
    7825                      .dwattr $C$DW$T$88, DW_AT_language(DW_LANG_C)
    7826              $C$DW$T$89      .dwtag  DW_TAG_pointer_type
    7827                      .dwattr $C$DW$T$89, DW_AT_type(*$C$DW$T$88)
    7828                      .dwattr $C$DW$T$89, DW_AT_address_class(0x17)
    7829              
    7830              $C$DW$T$90      .dwtag  DW_TAG_array_type
    7831                      .dwattr $C$DW$T$90, DW_AT_type(*$C$DW$T$88)
    7832                      .dwattr $C$DW$T$90, DW_AT_language(DW_LANG_C)
    7833                      .dwattr $C$DW$T$90, DW_AT_byte_size(0x40)
    7834              $C$DW$764       .dwtag  DW_TAG_subrange_type
    7835                      .dwattr $C$DW$764, DW_AT_upper_bound(0x1f)
    7836                      .dwendtag $C$DW$T$90
TMS320C55x Assembler PC v4.4.1 Mon Aug 15 03:55:17 2016

Tools Copyright (c) 1996-2012 Texas Instruments Incorporated
usb.asm                                                              PAGE  177

    7837              
    7838              $C$DW$765       .dwtag  DW_TAG_TI_far_type
    7839                      .dwattr $C$DW$765, DW_AT_type(*$C$DW$T$70)
    7840              $C$DW$T$215     .dwtag  DW_TAG_volatile_type
    7841                      .dwattr $C$DW$T$215, DW_AT_type(*$C$DW$765)
    7842              $C$DW$T$14      .dwtag  DW_TAG_base_type
    7843                      .dwattr $C$DW$T$14, DW_AT_encoding(DW_ATE_signed)
    7844                      .dwattr $C$DW$T$14, DW_AT_name("long long")
    7845                      .dwattr $C$DW$T$14, DW_AT_byte_size(0x04)
    7846                      .dwattr $C$DW$T$14, DW_AT_bit_size(0x28)
    7847                      .dwattr $C$DW$T$14, DW_AT_bit_offset(0x18)
    7848              $C$DW$T$15      .dwtag  DW_TAG_base_type
    7849                      .dwattr $C$DW$T$15, DW_AT_encoding(DW_ATE_unsigned)
    7850                      .dwattr $C$DW$T$15, DW_AT_name("unsigned long long")
    7851                      .dwattr $C$DW$T$15, DW_AT_byte_size(0x04)
    7852                      .dwattr $C$DW$T$15, DW_AT_bit_size(0x28)
    7853                      .dwattr $C$DW$T$15, DW_AT_bit_offset(0x18)
    7854              $C$DW$T$16      .dwtag  DW_TAG_base_type
    7855                      .dwattr $C$DW$T$16, DW_AT_encoding(DW_ATE_float)
    7856                      .dwattr $C$DW$T$16, DW_AT_name("float")
    7857                      .dwattr $C$DW$T$16, DW_AT_byte_size(0x02)
    7858              $C$DW$T$17      .dwtag  DW_TAG_base_type
    7859                      .dwattr $C$DW$T$17, DW_AT_encoding(DW_ATE_float)
    7860                      .dwattr $C$DW$T$17, DW_AT_name("double")
    7861                      .dwattr $C$DW$T$17, DW_AT_byte_size(0x02)
    7862              $C$DW$T$18      .dwtag  DW_TAG_base_type
    7863                      .dwattr $C$DW$T$18, DW_AT_encoding(DW_ATE_float)
    7864                      .dwattr $C$DW$T$18, DW_AT_name("long double")
    7865                      .dwattr $C$DW$T$18, DW_AT_byte_size(0x02)
    7866              $C$DW$T$205     .dwtag  DW_TAG_base_type
    7867                      .dwattr $C$DW$T$205, DW_AT_encoding(DW_ATE_signed_char)
    7868                      .dwattr $C$DW$T$205, DW_AT_name("signed char")
    7869                      .dwattr $C$DW$T$205, DW_AT_byte_size(0x01)
    7870              $C$DW$766       .dwtag  DW_TAG_TI_far_type
    7871                      .dwattr $C$DW$766, DW_AT_type(*$C$DW$T$205)
    7872              $C$DW$T$206     .dwtag  DW_TAG_const_type
    7873                      .dwattr $C$DW$T$206, DW_AT_type(*$C$DW$766)
    7874              $C$DW$T$207     .dwtag  DW_TAG_pointer_type
    7875                      .dwattr $C$DW$T$207, DW_AT_type(*$C$DW$T$206)
    7876                      .dwattr $C$DW$T$207, DW_AT_address_class(0x17)
    7877                      .dwattr $C$DW$CU, DW_AT_language(DW_LANG_C)
    7878              
    7879              ;***************************************************************
    7880              ;* DWARF CIE ENTRIES                                           *
    7881              ;***************************************************************
    7882              
    7883              $C$DW$CIE       .dwcie 91
    7884                      .dwcfi  cfa_register, 36
    7885                      .dwcfi  cfa_offset, 0
    7886                      .dwcfi  undefined, 0
    7887                      .dwcfi  undefined, 1
    7888                      .dwcfi  undefined, 2
    7889                      .dwcfi  undefined, 3
    7890                      .dwcfi  undefined, 4
    7891                      .dwcfi  undefined, 5
TMS320C55x Assembler PC v4.4.1 Mon Aug 15 03:55:17 2016

Tools Copyright (c) 1996-2012 Texas Instruments Incorporated
usb.asm                                                              PAGE  178

    7892                      .dwcfi  undefined, 6
    7893                      .dwcfi  undefined, 7
    7894                      .dwcfi  undefined, 8
    7895                      .dwcfi  undefined, 9
    7896                      .dwcfi  undefined, 10
    7897                      .dwcfi  undefined, 11
    7898                      .dwcfi  undefined, 12
    7899                      .dwcfi  undefined, 13
    7900                      .dwcfi  same_value, 14
    7901                      .dwcfi  same_value, 15
    7902                      .dwcfi  undefined, 16
    7903                      .dwcfi  undefined, 17
    7904                      .dwcfi  undefined, 18
    7905                      .dwcfi  undefined, 19
    7906                      .dwcfi  undefined, 20
    7907                      .dwcfi  undefined, 21
    7908                      .dwcfi  undefined, 22
    7909                      .dwcfi  undefined, 23
    7910                      .dwcfi  undefined, 24
    7911                      .dwcfi  undefined, 25
    7912                      .dwcfi  same_value, 26
    7913                      .dwcfi  same_value, 27
    7914                      .dwcfi  same_value, 28
    7915                      .dwcfi  same_value, 29
    7916                      .dwcfi  same_value, 30
    7917                      .dwcfi  same_value, 31
    7918                      .dwcfi  undefined, 32
    7919                      .dwcfi  undefined, 33
    7920                      .dwcfi  undefined, 34
    7921                      .dwcfi  undefined, 35
    7922                      .dwcfi  undefined, 36
    7923                      .dwcfi  undefined, 37
    7924                      .dwcfi  undefined, 38
    7925                      .dwcfi  undefined, 39
    7926                      .dwcfi  undefined, 40
    7927                      .dwcfi  undefined, 41
    7928                      .dwcfi  undefined, 42
    7929                      .dwcfi  undefined, 43
    7930                      .dwcfi  undefined, 44
    7931                      .dwcfi  undefined, 45
    7932                      .dwcfi  undefined, 46
    7933                      .dwcfi  undefined, 47
    7934                      .dwcfi  undefined, 48
    7935                      .dwcfi  undefined, 49
    7936                      .dwcfi  undefined, 50
    7937                      .dwcfi  undefined, 51
    7938                      .dwcfi  undefined, 52
    7939                      .dwcfi  undefined, 53
    7940                      .dwcfi  undefined, 54
    7941                      .dwcfi  undefined, 55
    7942                      .dwcfi  undefined, 56
    7943                      .dwcfi  undefined, 57
    7944                      .dwcfi  undefined, 58
    7945                      .dwcfi  undefined, 59
    7946                      .dwcfi  undefined, 60
TMS320C55x Assembler PC v4.4.1 Mon Aug 15 03:55:17 2016

Tools Copyright (c) 1996-2012 Texas Instruments Incorporated
usb.asm                                                              PAGE  179

    7947                      .dwcfi  undefined, 61
    7948                      .dwcfi  undefined, 62
    7949                      .dwcfi  undefined, 63
    7950                      .dwcfi  undefined, 64
    7951                      .dwcfi  undefined, 65
    7952                      .dwcfi  undefined, 66
    7953                      .dwcfi  undefined, 67
    7954                      .dwcfi  undefined, 68
    7955                      .dwcfi  undefined, 69
    7956                      .dwcfi  undefined, 70
    7957                      .dwcfi  undefined, 71
    7958                      .dwcfi  undefined, 72
    7959                      .dwcfi  undefined, 73
    7960                      .dwcfi  undefined, 74
    7961                      .dwcfi  undefined, 75
    7962                      .dwcfi  undefined, 76
    7963                      .dwcfi  undefined, 77
    7964                      .dwcfi  undefined, 78
    7965                      .dwcfi  undefined, 79
    7966                      .dwcfi  undefined, 80
    7967                      .dwcfi  undefined, 81
    7968                      .dwcfi  undefined, 82
    7969                      .dwcfi  undefined, 83
    7970                      .dwcfi  undefined, 84
    7971                      .dwcfi  undefined, 85
    7972                      .dwcfi  undefined, 86
    7973                      .dwcfi  undefined, 87
    7974                      .dwcfi  undefined, 88
    7975                      .dwcfi  undefined, 89
    7976                      .dwcfi  undefined, 90
    7977                      .dwcfi  undefined, 91
    7978                      .dwendentry
    7979              
    7980              ;***************************************************************
    7981              ;* DWARF REGISTER MAP                                          *
    7982              ;***************************************************************
    7983              
    7984              $C$DW$767       .dwtag  DW_TAG_TI_assign_register, DW_AT_name("AC0")
    7985                      .dwattr $C$DW$767, DW_AT_location[DW_OP_reg0]
    7986              $C$DW$768       .dwtag  DW_TAG_TI_assign_register, DW_AT_name("AC0")
    7987                      .dwattr $C$DW$768, DW_AT_location[DW_OP_reg1]
    7988              $C$DW$769       .dwtag  DW_TAG_TI_assign_register, DW_AT_name("AC0_G")
    7989                      .dwattr $C$DW$769, DW_AT_location[DW_OP_reg2]
    7990              $C$DW$770       .dwtag  DW_TAG_TI_assign_register, DW_AT_name("AC1")
    7991                      .dwattr $C$DW$770, DW_AT_location[DW_OP_reg3]
    7992              $C$DW$771       .dwtag  DW_TAG_TI_assign_register, DW_AT_name("AC1")
    7993                      .dwattr $C$DW$771, DW_AT_location[DW_OP_reg4]
    7994              $C$DW$772       .dwtag  DW_TAG_TI_assign_register, DW_AT_name("AC1_G")
    7995                      .dwattr $C$DW$772, DW_AT_location[DW_OP_reg5]
    7996              $C$DW$773       .dwtag  DW_TAG_TI_assign_register, DW_AT_name("AC2")
    7997                      .dwattr $C$DW$773, DW_AT_location[DW_OP_reg6]
    7998              $C$DW$774       .dwtag  DW_TAG_TI_assign_register, DW_AT_name("AC2")
    7999                      .dwattr $C$DW$774, DW_AT_location[DW_OP_reg7]
    8000              $C$DW$775       .dwtag  DW_TAG_TI_assign_register, DW_AT_name("AC2_G")
    8001                      .dwattr $C$DW$775, DW_AT_location[DW_OP_reg8]
TMS320C55x Assembler PC v4.4.1 Mon Aug 15 03:55:17 2016

Tools Copyright (c) 1996-2012 Texas Instruments Incorporated
usb.asm                                                              PAGE  180

    8002              $C$DW$776       .dwtag  DW_TAG_TI_assign_register, DW_AT_name("AC3")
    8003                      .dwattr $C$DW$776, DW_AT_location[DW_OP_reg9]
    8004              $C$DW$777       .dwtag  DW_TAG_TI_assign_register, DW_AT_name("AC3")
    8005                      .dwattr $C$DW$777, DW_AT_location[DW_OP_reg10]
    8006              $C$DW$778       .dwtag  DW_TAG_TI_assign_register, DW_AT_name("AC3_G")
    8007                      .dwattr $C$DW$778, DW_AT_location[DW_OP_reg11]
    8008              $C$DW$779       .dwtag  DW_TAG_TI_assign_register, DW_AT_name("T0")
    8009                      .dwattr $C$DW$779, DW_AT_location[DW_OP_reg12]
    8010              $C$DW$780       .dwtag  DW_TAG_TI_assign_register, DW_AT_name("T1")
    8011                      .dwattr $C$DW$780, DW_AT_location[DW_OP_reg13]
    8012              $C$DW$781       .dwtag  DW_TAG_TI_assign_register, DW_AT_name("T2")
    8013                      .dwattr $C$DW$781, DW_AT_location[DW_OP_reg14]
    8014              $C$DW$782       .dwtag  DW_TAG_TI_assign_register, DW_AT_name("T3")
    8015                      .dwattr $C$DW$782, DW_AT_location[DW_OP_reg15]
    8016              $C$DW$783       .dwtag  DW_TAG_TI_assign_register, DW_AT_name("AR0")
    8017                      .dwattr $C$DW$783, DW_AT_location[DW_OP_reg16]
    8018              $C$DW$784       .dwtag  DW_TAG_TI_assign_register, DW_AT_name("XAR0")
    8019                      .dwattr $C$DW$784, DW_AT_location[DW_OP_reg17]
    8020              $C$DW$785       .dwtag  DW_TAG_TI_assign_register, DW_AT_name("AR1")
    8021                      .dwattr $C$DW$785, DW_AT_location[DW_OP_reg18]
    8022              $C$DW$786       .dwtag  DW_TAG_TI_assign_register, DW_AT_name("XAR1")
    8023                      .dwattr $C$DW$786, DW_AT_location[DW_OP_reg19]
    8024              $C$DW$787       .dwtag  DW_TAG_TI_assign_register, DW_AT_name("AR2")
    8025                      .dwattr $C$DW$787, DW_AT_location[DW_OP_reg20]
    8026              $C$DW$788       .dwtag  DW_TAG_TI_assign_register, DW_AT_name("XAR2")
    8027                      .dwattr $C$DW$788, DW_AT_location[DW_OP_reg21]
    8028              $C$DW$789       .dwtag  DW_TAG_TI_assign_register, DW_AT_name("AR3")
    8029                      .dwattr $C$DW$789, DW_AT_location[DW_OP_reg22]
    8030              $C$DW$790       .dwtag  DW_TAG_TI_assign_register, DW_AT_name("XAR3")
    8031                      .dwattr $C$DW$790, DW_AT_location[DW_OP_reg23]
    8032              $C$DW$791       .dwtag  DW_TAG_TI_assign_register, DW_AT_name("AR4")
    8033                      .dwattr $C$DW$791, DW_AT_location[DW_OP_reg24]
    8034              $C$DW$792       .dwtag  DW_TAG_TI_assign_register, DW_AT_name("XAR4")
    8035                      .dwattr $C$DW$792, DW_AT_location[DW_OP_reg25]
    8036              $C$DW$793       .dwtag  DW_TAG_TI_assign_register, DW_AT_name("AR5")
    8037                      .dwattr $C$DW$793, DW_AT_location[DW_OP_reg26]
    8038              $C$DW$794       .dwtag  DW_TAG_TI_assign_register, DW_AT_name("XAR5")
    8039                      .dwattr $C$DW$794, DW_AT_location[DW_OP_reg27]
    8040              $C$DW$795       .dwtag  DW_TAG_TI_assign_register, DW_AT_name("AR6")
    8041                      .dwattr $C$DW$795, DW_AT_location[DW_OP_reg28]
    8042              $C$DW$796       .dwtag  DW_TAG_TI_assign_register, DW_AT_name("XAR6")
    8043                      .dwattr $C$DW$796, DW_AT_location[DW_OP_reg29]
    8044              $C$DW$797       .dwtag  DW_TAG_TI_assign_register, DW_AT_name("AR7")
    8045                      .dwattr $C$DW$797, DW_AT_location[DW_OP_reg30]
    8046              $C$DW$798       .dwtag  DW_TAG_TI_assign_register, DW_AT_name("XAR7")
    8047                      .dwattr $C$DW$798, DW_AT_location[DW_OP_reg31]
    8048              $C$DW$799       .dwtag  DW_TAG_TI_assign_register, DW_AT_name("FP")
    8049                      .dwattr $C$DW$799, DW_AT_location[DW_OP_regx 0x20]
    8050              $C$DW$800       .dwtag  DW_TAG_TI_assign_register, DW_AT_name("XFP")
    8051                      .dwattr $C$DW$800, DW_AT_location[DW_OP_regx 0x21]
    8052              $C$DW$801       .dwtag  DW_TAG_TI_assign_register, DW_AT_name("PC")
    8053                      .dwattr $C$DW$801, DW_AT_location[DW_OP_regx 0x22]
    8054              $C$DW$802       .dwtag  DW_TAG_TI_assign_register, DW_AT_name("SP")
    8055                      .dwattr $C$DW$802, DW_AT_location[DW_OP_regx 0x23]
    8056              $C$DW$803       .dwtag  DW_TAG_TI_assign_register, DW_AT_name("XSP")
TMS320C55x Assembler PC v4.4.1 Mon Aug 15 03:55:17 2016

Tools Copyright (c) 1996-2012 Texas Instruments Incorporated
usb.asm                                                              PAGE  181

    8057                      .dwattr $C$DW$803, DW_AT_location[DW_OP_regx 0x24]
    8058              $C$DW$804       .dwtag  DW_TAG_TI_assign_register, DW_AT_name("BKC")
    8059                      .dwattr $C$DW$804, DW_AT_location[DW_OP_regx 0x25]
    8060              $C$DW$805       .dwtag  DW_TAG_TI_assign_register, DW_AT_name("BK03")
    8061                      .dwattr $C$DW$805, DW_AT_location[DW_OP_regx 0x26]
    8062              $C$DW$806       .dwtag  DW_TAG_TI_assign_register, DW_AT_name("BK47")
    8063                      .dwattr $C$DW$806, DW_AT_location[DW_OP_regx 0x27]
    8064              $C$DW$807       .dwtag  DW_TAG_TI_assign_register, DW_AT_name("ST0")
    8065                      .dwattr $C$DW$807, DW_AT_location[DW_OP_regx 0x28]
    8066              $C$DW$808       .dwtag  DW_TAG_TI_assign_register, DW_AT_name("ST1")
    8067                      .dwattr $C$DW$808, DW_AT_location[DW_OP_regx 0x29]
    8068              $C$DW$809       .dwtag  DW_TAG_TI_assign_register, DW_AT_name("ST2")
    8069                      .dwattr $C$DW$809, DW_AT_location[DW_OP_regx 0x2a]
    8070              $C$DW$810       .dwtag  DW_TAG_TI_assign_register, DW_AT_name("ST3")
    8071                      .dwattr $C$DW$810, DW_AT_location[DW_OP_regx 0x2b]
    8072              $C$DW$811       .dwtag  DW_TAG_TI_assign_register, DW_AT_name("MDP")
    8073                      .dwattr $C$DW$811, DW_AT_location[DW_OP_regx 0x2c]
    8074              $C$DW$812       .dwtag  DW_TAG_TI_assign_register, DW_AT_name("MDP05")
    8075                      .dwattr $C$DW$812, DW_AT_location[DW_OP_regx 0x2d]
    8076              $C$DW$813       .dwtag  DW_TAG_TI_assign_register, DW_AT_name("MDP67")
    8077                      .dwattr $C$DW$813, DW_AT_location[DW_OP_regx 0x2e]
    8078              $C$DW$814       .dwtag  DW_TAG_TI_assign_register, DW_AT_name("BRC0")
    8079                      .dwattr $C$DW$814, DW_AT_location[DW_OP_regx 0x2f]
    8080              $C$DW$815       .dwtag  DW_TAG_TI_assign_register, DW_AT_name("RSA0")
    8081                      .dwattr $C$DW$815, DW_AT_location[DW_OP_regx 0x30]
    8082              $C$DW$816       .dwtag  DW_TAG_TI_assign_register, DW_AT_name("RSA0_H")
    8083                      .dwattr $C$DW$816, DW_AT_location[DW_OP_regx 0x31]
    8084              $C$DW$817       .dwtag  DW_TAG_TI_assign_register, DW_AT_name("REA0")
    8085                      .dwattr $C$DW$817, DW_AT_location[DW_OP_regx 0x32]
    8086              $C$DW$818       .dwtag  DW_TAG_TI_assign_register, DW_AT_name("REA0_H")
    8087                      .dwattr $C$DW$818, DW_AT_location[DW_OP_regx 0x33]
    8088              $C$DW$819       .dwtag  DW_TAG_TI_assign_register, DW_AT_name("BRS1")
    8089                      .dwattr $C$DW$819, DW_AT_location[DW_OP_regx 0x34]
    8090              $C$DW$820       .dwtag  DW_TAG_TI_assign_register, DW_AT_name("BRC1")
    8091                      .dwattr $C$DW$820, DW_AT_location[DW_OP_regx 0x35]
    8092              $C$DW$821       .dwtag  DW_TAG_TI_assign_register, DW_AT_name("RSA1")
    8093                      .dwattr $C$DW$821, DW_AT_location[DW_OP_regx 0x36]
    8094              $C$DW$822       .dwtag  DW_TAG_TI_assign_register, DW_AT_name("RSA1_H")
    8095                      .dwattr $C$DW$822, DW_AT_location[DW_OP_regx 0x37]
    8096              $C$DW$823       .dwtag  DW_TAG_TI_assign_register, DW_AT_name("REA1")
    8097                      .dwattr $C$DW$823, DW_AT_location[DW_OP_regx 0x38]
    8098              $C$DW$824       .dwtag  DW_TAG_TI_assign_register, DW_AT_name("REA1_H")
    8099                      .dwattr $C$DW$824, DW_AT_location[DW_OP_regx 0x39]
    8100              $C$DW$825       .dwtag  DW_TAG_TI_assign_register, DW_AT_name("CSR")
    8101                      .dwattr $C$DW$825, DW_AT_location[DW_OP_regx 0x3a]
    8102              $C$DW$826       .dwtag  DW_TAG_TI_assign_register, DW_AT_name("RPTC")
    8103                      .dwattr $C$DW$826, DW_AT_location[DW_OP_regx 0x3b]
    8104              $C$DW$827       .dwtag  DW_TAG_TI_assign_register, DW_AT_name("CDP")
    8105                      .dwattr $C$DW$827, DW_AT_location[DW_OP_regx 0x3c]
    8106              $C$DW$828       .dwtag  DW_TAG_TI_assign_register, DW_AT_name("XCDP")
    8107                      .dwattr $C$DW$828, DW_AT_location[DW_OP_regx 0x3d]
    8108              $C$DW$829       .dwtag  DW_TAG_TI_assign_register, DW_AT_name("TRN0")
    8109                      .dwattr $C$DW$829, DW_AT_location[DW_OP_regx 0x3e]
    8110              $C$DW$830       .dwtag  DW_TAG_TI_assign_register, DW_AT_name("TRN1")
    8111                      .dwattr $C$DW$830, DW_AT_location[DW_OP_regx 0x3f]
TMS320C55x Assembler PC v4.4.1 Mon Aug 15 03:55:17 2016

Tools Copyright (c) 1996-2012 Texas Instruments Incorporated
usb.asm                                                              PAGE  182

    8112              $C$DW$831       .dwtag  DW_TAG_TI_assign_register, DW_AT_name("BSA01")
    8113                      .dwattr $C$DW$831, DW_AT_location[DW_OP_regx 0x40]
    8114              $C$DW$832       .dwtag  DW_TAG_TI_assign_register, DW_AT_name("BSA23")
    8115                      .dwattr $C$DW$832, DW_AT_location[DW_OP_regx 0x41]
    8116              $C$DW$833       .dwtag  DW_TAG_TI_assign_register, DW_AT_name("BSA45")
    8117                      .dwattr $C$DW$833, DW_AT_location[DW_OP_regx 0x42]
    8118              $C$DW$834       .dwtag  DW_TAG_TI_assign_register, DW_AT_name("BSA67")
    8119                      .dwattr $C$DW$834, DW_AT_location[DW_OP_regx 0x43]
    8120              $C$DW$835       .dwtag  DW_TAG_TI_assign_register, DW_AT_name("BSAC")
    8121                      .dwattr $C$DW$835, DW_AT_location[DW_OP_regx 0x44]
    8122              $C$DW$836       .dwtag  DW_TAG_TI_assign_register, DW_AT_name("CARRY")
    8123                      .dwattr $C$DW$836, DW_AT_location[DW_OP_regx 0x45]
    8124              $C$DW$837       .dwtag  DW_TAG_TI_assign_register, DW_AT_name("TC1")
    8125                      .dwattr $C$DW$837, DW_AT_location[DW_OP_regx 0x46]
    8126              $C$DW$838       .dwtag  DW_TAG_TI_assign_register, DW_AT_name("TC2")
    8127                      .dwattr $C$DW$838, DW_AT_location[DW_OP_regx 0x47]
    8128              $C$DW$839       .dwtag  DW_TAG_TI_assign_register, DW_AT_name("M40")
    8129                      .dwattr $C$DW$839, DW_AT_location[DW_OP_regx 0x48]
    8130              $C$DW$840       .dwtag  DW_TAG_TI_assign_register, DW_AT_name("SXMD")
    8131                      .dwattr $C$DW$840, DW_AT_location[DW_OP_regx 0x49]
    8132              $C$DW$841       .dwtag  DW_TAG_TI_assign_register, DW_AT_name("ARMS")
    8133                      .dwattr $C$DW$841, DW_AT_location[DW_OP_regx 0x4a]
    8134              $C$DW$842       .dwtag  DW_TAG_TI_assign_register, DW_AT_name("C54CM")
    8135                      .dwattr $C$DW$842, DW_AT_location[DW_OP_regx 0x4b]
    8136              $C$DW$843       .dwtag  DW_TAG_TI_assign_register, DW_AT_name("SATA")
    8137                      .dwattr $C$DW$843, DW_AT_location[DW_OP_regx 0x4c]
    8138              $C$DW$844       .dwtag  DW_TAG_TI_assign_register, DW_AT_name("SATD")
    8139                      .dwattr $C$DW$844, DW_AT_location[DW_OP_regx 0x4d]
    8140              $C$DW$845       .dwtag  DW_TAG_TI_assign_register, DW_AT_name("RDM")
    8141                      .dwattr $C$DW$845, DW_AT_location[DW_OP_regx 0x4e]
    8142              $C$DW$846       .dwtag  DW_TAG_TI_assign_register, DW_AT_name("FRCT")
    8143                      .dwattr $C$DW$846, DW_AT_location[DW_OP_regx 0x4f]
    8144              $C$DW$847       .dwtag  DW_TAG_TI_assign_register, DW_AT_name("SMUL")
    8145                      .dwattr $C$DW$847, DW_AT_location[DW_OP_regx 0x50]
    8146              $C$DW$848       .dwtag  DW_TAG_TI_assign_register, DW_AT_name("INTM")
    8147                      .dwattr $C$DW$848, DW_AT_location[DW_OP_regx 0x51]
    8148              $C$DW$849       .dwtag  DW_TAG_TI_assign_register, DW_AT_name("AR0LC")
    8149                      .dwattr $C$DW$849, DW_AT_location[DW_OP_regx 0x52]
    8150              $C$DW$850       .dwtag  DW_TAG_TI_assign_register, DW_AT_name("AR1LC")
    8151                      .dwattr $C$DW$850, DW_AT_location[DW_OP_regx 0x53]
    8152              $C$DW$851       .dwtag  DW_TAG_TI_assign_register, DW_AT_name("AR2LC")
    8153                      .dwattr $C$DW$851, DW_AT_location[DW_OP_regx 0x54]
    8154              $C$DW$852       .dwtag  DW_TAG_TI_assign_register, DW_AT_name("AR3LC")
    8155                      .dwattr $C$DW$852, DW_AT_location[DW_OP_regx 0x55]
    8156              $C$DW$853       .dwtag  DW_TAG_TI_assign_register, DW_AT_name("AR4LC")
    8157                      .dwattr $C$DW$853, DW_AT_location[DW_OP_regx 0x56]
    8158              $C$DW$854       .dwtag  DW_TAG_TI_assign_register, DW_AT_name("AR5LC")
    8159                      .dwattr $C$DW$854, DW_AT_location[DW_OP_regx 0x57]
    8160              $C$DW$855       .dwtag  DW_TAG_TI_assign_register, DW_AT_name("AR6LC")
    8161                      .dwattr $C$DW$855, DW_AT_location[DW_OP_regx 0x58]
    8162              $C$DW$856       .dwtag  DW_TAG_TI_assign_register, DW_AT_name("AR7LC")
    8163                      .dwattr $C$DW$856, DW_AT_location[DW_OP_regx 0x59]
    8164              $C$DW$857       .dwtag  DW_TAG_TI_assign_register, DW_AT_name("CDPLC")
    8165                      .dwattr $C$DW$857, DW_AT_location[DW_OP_regx 0x5a]
    8166              $C$DW$858       .dwtag  DW_TAG_TI_assign_register, DW_AT_name("CIE_RETA")
TMS320C55x Assembler PC v4.4.1 Mon Aug 15 03:55:17 2016

Tools Copyright (c) 1996-2012 Texas Instruments Incorporated
usb.asm                                                              PAGE  183

    8167                      .dwattr $C$DW$858, DW_AT_location[DW_OP_regx 0x5b]
    8168                      .dwendtag $C$DW$CU
    8169              
    8169              
    8169              

No Assembly Errors, No Assembly Warnings
