TMS320C55x Assembler PC v4.4.1 Mon Aug 15 03:55:17 2016

Tools Copyright (c) 1996-2012 Texas Instruments Incorporated
usb.asm                                                              PAGE    1

    8169              ; Temporary Registers Used: None
       1              ;*******************************************************************************
       2              ;* TMS320C55x C/C++ Codegen                                          PC v4.4.1 *
       3              ;* Date/Time created: Mon Aug 15 03:55:14 2016                                 *
       4              ;*******************************************************************************
       5                      .compiler_opts --hll_source=on --mem_model:code=flat --mem_model:data=large --object_format=coff --si
       6                      .mmregs
       7                      .cpl_on
       8                      .arms_on
       9                      .c54cm_off
      10                      .asg AR6, FP
      11                      .asg XAR6, XFP
      12                      .asg DPH, MDP
      13                      .model call=c55_std
      14                      .model mem=large
      15                      .noremark 5002  ; code respects overwrite rules
      16              ;*******************************************************************************
      17              ;* GLOBAL FILE PARAMETERS                                                      *
      18              ;*                                                                             *
      19              ;*   Architecture       : TMS320C55x                                           *
      20              ;*   Optimizing for     : Speed                                                *
      21              ;*   Memory             : Large Model (23-Bit Data Pointers)                   *
      22              ;*   Calls              : Normal Library ASM calls                             *
      23              ;*   Debug Info         : Standard TI Debug Information                        *
      24              ;*******************************************************************************
      25              
      26              $C$DW$CU        .dwtag  DW_TAG_compile_unit
      27                      .dwattr $C$DW$CU, DW_AT_name("../c5535_bsl_revc/ezdsp5535_v1/boot_post_SDcard/boot_post/usb.c")
      28                      .dwattr $C$DW$CU, DW_AT_producer("TMS320C55x C/C++ Codegen PC v4.4.1 Copyright (c) 1996-2012 Texas In
      29                      .dwattr $C$DW$CU, DW_AT_TI_version(0x01)
      30                      .dwattr $C$DW$CU, DW_AT_comp_dir("F:\eZDSP_5535_Files\ccsws2\test\Debug")
      31              ;******************************************************************************
      32              ;* CINIT RECORDS                                                              *
      33              ;******************************************************************************
      34 000000               .sect   ".cinit"
      35                      .align  1
      36 000000 0002          .field          2,16
      37 000001 0000-         .field          _pContext+0,24
         000002 7600 
      38 000002 7600          .field          0,8
      39 000003 0000!         .field  _gUsbContext,32         ; _pContext @ 0
         000004 0000 
      40              
      41 000005               .sect   ".cinit"
      42                      .align  1
      43 000005 0001          .field          1,16
      44 000006 0002-         .field          _curCfg+0,24
         000007 8700 
      45 000007 8700          .field          0,8
      46 000008 0000          .field  0,16                    ; _curCfg @ 0
      47              
      48 000009               .sect   ".cinit"
      49                      .align  1
      50 000009 0001          .field          1,16
      51 00000a 0002-         .field          _stopRunning+0,24
TMS320C55x Assembler PC v4.4.1 Mon Aug 15 03:55:17 2016

Tools Copyright (c) 1996-2012 Texas Instruments Incorporated
usb.asm                                                              PAGE    2

         00000b 8800 
      52 00000b 8800          .field          0,8
      53 00000c 0000          .field  0,16                    ; _stopRunning @ 0
      54              
      55 00000d               .sect   ".cinit"
      56                      .align  1
      57 00000d 0009          .field          $C$IR_1,16
      58 00000e 0002-         .field          _deviceDesc+0,24
         00000f 8900 
      59 00000f 8900          .field          0,8
      60 000010 0112          .field  274,16                  ; _deviceDesc[0] @ 0
      61 000011 0200          .field  512,16                  ; _deviceDesc[1] @ 16
      62 000012 0000          .field  0,16                    ; _deviceDesc[2] @ 32
      63 000013 4000          .field  16384,16                        ; _deviceDesc[3] @ 48
      64 000014 0451          .field  1105,16                 ; _deviceDesc[4] @ 64
      65 000015 5535          .field  21813,16                        ; _deviceDesc[5] @ 80
      66 000016 0200          .field  512,16                  ; _deviceDesc[6] @ 96
      67 000017 0203          .field  515,16                  ; _deviceDesc[7] @ 112
      68 000018 0101          .field  257,16                  ; _deviceDesc[8] @ 128
      69              $C$IR_1:        .set    9
      70              
      71 000019               .sect   ".cinit"
      72                      .align  1
      73 000019 0010          .field          $C$IR_2,16
      74 00001a 0002-         .field          _cfgDesc+0,24
         00001b 9200 
      75 00001b 9200          .field          0,8
      76 00001c 0209          .field  521,16                  ; _cfgDesc[0] @ 0
      77 00001d 0020          .field  32,16                   ; _cfgDesc[1] @ 16
      78 00001e 0101          .field  257,16                  ; _cfgDesc[2] @ 32
      79 00001f C001          .field  49153,16                        ; _cfgDesc[3] @ 48
      80 000020 0928          .field  2344,16                 ; _cfgDesc[4] @ 64
      81 000021 0004          .field  4,16                    ; _cfgDesc[5] @ 80
      82 000022 0200          .field  512,16                  ; _cfgDesc[6] @ 96
      83 000023 0000          .field  0,16                    ; _cfgDesc[7] @ 112
      84 000024 0000          .field  0,16                    ; _cfgDesc[8] @ 128
      85 000025 0507          .field  1287,16                 ; _cfgDesc[9] @ 144
      86 000026 0201          .field  513,16                  ; _cfgDesc[10] @ 160
      87 000027 0040          .field  64,16                   ; _cfgDesc[11] @ 176
      88 000028 0700          .field  1792,16                 ; _cfgDesc[12] @ 192
      89 000029 8105          .field  33029,16                        ; _cfgDesc[13] @ 208
      90 00002a 4002          .field  16386,16                        ; _cfgDesc[14] @ 224
      91 00002b 0000          .field  0,16                    ; _cfgDesc[15] @ 240
      92              $C$IR_2:        .set    16
      93              
      94 00002c               .sect   ".cinit"
      95                      .align  1
      96 00002c 0002          .field          $C$IR_3,16
      97 00002d 0002-         .field          _strDesc+0,24
         00002e A200 
      98 00002e A200          .field          0,8
      99 00002f 0304          .field  772,16                  ; _strDesc[0][0] @ 0
     100 000030 0409          .field  1033,16                 ; _strDesc[0][1] @ 16
     101              $C$IR_3:        .set    2
     102              
TMS320C55x Assembler PC v4.4.1 Mon Aug 15 03:55:17 2016

Tools Copyright (c) 1996-2012 Texas Instruments Incorporated
usb.asm                                                              PAGE    3

     103 000031               .sect   ".cinit"
     104                      .align  1
     105 000031 0012          .field          $C$IR_4,16
     106 000032 0002-         .field          _strDesc+36,24
         000033 C600 
     107 000033 C600          .field          0,8
     108 000034 0324          .field  804,16                  ; _strDesc[1][0] @ 576
     109 000035 0045          .field  69,16                   ; _strDesc[1][1] @ 592
     110 000036 0054          .field  84,16                   ; _strDesc[1][2] @ 608
     111 000037 0041          .field  65,16                   ; _strDesc[1][3] @ 624
     112 000038 0058          .field  88,16                   ; _strDesc[1][4] @ 640
     113 000039 0020          .field  32,16                   ; _strDesc[1][5] @ 656
     114 00003a 0053          .field  83,16                   ; _strDesc[1][6] @ 672
     115 00003b 004E          .field  78,16                   ; _strDesc[1][7] @ 688
     116 00003c 0049          .field  73,16                   ; _strDesc[1][8] @ 704
     117 00003d 0054          .field  84,16                   ; _strDesc[1][9] @ 720
     118 00003e 0053          .field  83,16                   ; _strDesc[1][10] @ 736
     119 00003f 0055          .field  85,16                   ; _strDesc[1][11] @ 752
     120 000040 0052          .field  82,16                   ; _strDesc[1][12] @ 768
     121 000041 0045          .field  69,16                   ; _strDesc[1][13] @ 784
     122 000042 004D          .field  77,16                   ; _strDesc[1][14] @ 800
     123 000043 0054          .field  84,16                   ; _strDesc[1][15] @ 816
     124 000044 004E          .field  78,16                   ; _strDesc[1][16] @ 832
     125 000045 0053          .field  83,16                   ; _strDesc[1][17] @ 848
     126              $C$IR_4:        .set    18
     127              
     128 000046               .sect   ".cinit"
     129                      .align  1
     130 000046 000A          .field          $C$IR_5,16
     131 000047 0002-         .field          _strDesc+72,24
         000048 EA00 
     132 000048 EA00          .field          0,8
     133 000049 0314          .field  788,16                  ; _strDesc[2][0] @ 1152
     134 00004a 0065          .field  101,16                  ; _strDesc[2][1] @ 1168
     135 00004b 005A          .field  90,16                   ; _strDesc[2][2] @ 1184
     136 00004c 0044          .field  68,16                   ; _strDesc[2][3] @ 1200
     137 00004d 0053          .field  83,16                   ; _strDesc[2][4] @ 1216
     138 00004e 0050          .field  80,16                   ; _strDesc[2][5] @ 1232
     139 00004f 0035          .field  53,16                   ; _strDesc[2][6] @ 1248
     140 000050 0035          .field  53,16                   ; _strDesc[2][7] @ 1264
     141 000051 0033          .field  51,16                   ; _strDesc[2][8] @ 1280
     142 000052 0035          .field  53,16                   ; _strDesc[2][9] @ 1296
     143              $C$IR_5:        .set    10
     144              
     145 000053               .sect   ".cinit"
     146                      .align  1
     147 000053 0006          .field          $C$IR_6,16
     148 000054 0003-         .field          _strDesc+108,24
         000055 0E00 
     149 000055 0E00          .field          0,8
     150 000056 030C          .field  780,16                  ; _strDesc[3][0] @ 1728
     151 000057 0030          .field  48,16                   ; _strDesc[3][1] @ 1744
     152 000058 0030          .field  48,16                   ; _strDesc[3][2] @ 1760
     153 000059 0030          .field  48,16                   ; _strDesc[3][3] @ 1776
     154 00005a 0030          .field  48,16                   ; _strDesc[3][4] @ 1792
TMS320C55x Assembler PC v4.4.1 Mon Aug 15 03:55:17 2016

Tools Copyright (c) 1996-2012 Texas Instruments Incorporated
usb.asm                                                              PAGE    4

     155 00005b 0031          .field  49,16                   ; _strDesc[3][5] @ 1808
     156              $C$IR_6:        .set    6
     157              
     158              
     159              $C$DW$1 .dwtag  DW_TAG_subprogram, DW_AT_name("memcpy")
     160                      .dwattr $C$DW$1, DW_AT_TI_symbol_name("_memcpy")
     161                      .dwattr $C$DW$1, DW_AT_type(*$C$DW$T$3)
     162                      .dwattr $C$DW$1, DW_AT_declaration
     163                      .dwattr $C$DW$1, DW_AT_external
     164              $C$DW$2 .dwtag  DW_TAG_formal_parameter
     165                      .dwattr $C$DW$2, DW_AT_type(*$C$DW$T$3)
     166              $C$DW$3 .dwtag  DW_TAG_formal_parameter
     167                      .dwattr $C$DW$3, DW_AT_type(*$C$DW$T$154)
     168              $C$DW$4 .dwtag  DW_TAG_formal_parameter
     169                      .dwattr $C$DW$4, DW_AT_type(*$C$DW$T$11)
     170                      .dwendtag $C$DW$1
     171              
     172              
     173              $C$DW$5 .dwtag  DW_TAG_subprogram, DW_AT_name("printf")
     174                      .dwattr $C$DW$5, DW_AT_TI_symbol_name("_printf")
     175                      .dwattr $C$DW$5, DW_AT_type(*$C$DW$T$10)
     176                      .dwattr $C$DW$5, DW_AT_declaration
     177                      .dwattr $C$DW$5, DW_AT_external
     178              $C$DW$6 .dwtag  DW_TAG_formal_parameter
     179                      .dwattr $C$DW$6, DW_AT_type(*$C$DW$T$207)
     180              $C$DW$7 .dwtag  DW_TAG_unspecified_parameters
     181                      .dwendtag $C$DW$5
     182              
     183              
     184              $C$DW$8 .dwtag  DW_TAG_subprogram, DW_AT_name("USB_init")
     185                      .dwattr $C$DW$8, DW_AT_TI_symbol_name("_USB_init")
     186                      .dwattr $C$DW$8, DW_AT_type(*$C$DW$T$80)
     187                      .dwattr $C$DW$8, DW_AT_declaration
     188                      .dwattr $C$DW$8, DW_AT_external
     189              $C$DW$9 .dwtag  DW_TAG_formal_parameter
     190                      .dwattr $C$DW$9, DW_AT_type(*$C$DW$T$143)
     191                      .dwendtag $C$DW$8
     192              
     193              
     194              $C$DW$10        .dwtag  DW_TAG_subprogram, DW_AT_name("USB_resetDev")
     195                      .dwattr $C$DW$10, DW_AT_TI_symbol_name("_USB_resetDev")
     196                      .dwattr $C$DW$10, DW_AT_type(*$C$DW$T$80)
     197                      .dwattr $C$DW$10, DW_AT_declaration
     198                      .dwattr $C$DW$10, DW_AT_external
     199              $C$DW$11        .dwtag  DW_TAG_formal_parameter
     200                      .dwattr $C$DW$11, DW_AT_type(*$C$DW$T$73)
     201                      .dwendtag $C$DW$10
     202              
     203              
     204              $C$DW$12        .dwtag  DW_TAG_subprogram, DW_AT_name("USB_initEndptObj")
     205                      .dwattr $C$DW$12, DW_AT_TI_symbol_name("_USB_initEndptObj")
     206                      .dwattr $C$DW$12, DW_AT_type(*$C$DW$T$80)
     207                      .dwattr $C$DW$12, DW_AT_declaration
     208                      .dwattr $C$DW$12, DW_AT_external
     209              $C$DW$13        .dwtag  DW_TAG_formal_parameter
TMS320C55x Assembler PC v4.4.1 Mon Aug 15 03:55:17 2016

Tools Copyright (c) 1996-2012 Texas Instruments Incorporated
usb.asm                                                              PAGE    5

     210                      .dwattr $C$DW$13, DW_AT_type(*$C$DW$T$73)
     211              $C$DW$14        .dwtag  DW_TAG_formal_parameter
     212                      .dwattr $C$DW$14, DW_AT_type(*$C$DW$T$106)
     213              $C$DW$15        .dwtag  DW_TAG_formal_parameter
     214                      .dwattr $C$DW$15, DW_AT_type(*$C$DW$T$112)
     215              $C$DW$16        .dwtag  DW_TAG_formal_parameter
     216                      .dwattr $C$DW$16, DW_AT_type(*$C$DW$T$114)
     217              $C$DW$17        .dwtag  DW_TAG_formal_parameter
     218                      .dwattr $C$DW$17, DW_AT_type(*$C$DW$T$19)
     219              $C$DW$18        .dwtag  DW_TAG_formal_parameter
     220                      .dwattr $C$DW$18, DW_AT_type(*$C$DW$T$19)
     221              $C$DW$19        .dwtag  DW_TAG_formal_parameter
     222                      .dwattr $C$DW$19, DW_AT_type(*$C$DW$T$117)
     223                      .dwendtag $C$DW$12
     224              
     225              
     226              $C$DW$20        .dwtag  DW_TAG_subprogram, DW_AT_name("USB_getSetupPacket")
     227                      .dwattr $C$DW$20, DW_AT_TI_symbol_name("_USB_getSetupPacket")
     228                      .dwattr $C$DW$20, DW_AT_type(*$C$DW$T$80)
     229                      .dwattr $C$DW$20, DW_AT_declaration
     230                      .dwattr $C$DW$20, DW_AT_external
     231              $C$DW$21        .dwtag  DW_TAG_formal_parameter
     232                      .dwattr $C$DW$21, DW_AT_type(*$C$DW$T$73)
     233              $C$DW$22        .dwtag  DW_TAG_formal_parameter
     234                      .dwattr $C$DW$22, DW_AT_type(*$C$DW$T$151)
     235              $C$DW$23        .dwtag  DW_TAG_formal_parameter
     236                      .dwattr $C$DW$23, DW_AT_type(*$C$DW$T$86)
     237                      .dwendtag $C$DW$20
     238              
     239              
     240              $C$DW$24        .dwtag  DW_TAG_subprogram, DW_AT_name("USB_postTransaction")
     241                      .dwattr $C$DW$24, DW_AT_TI_symbol_name("_USB_postTransaction")
     242                      .dwattr $C$DW$24, DW_AT_type(*$C$DW$T$80)
     243                      .dwattr $C$DW$24, DW_AT_declaration
     244                      .dwattr $C$DW$24, DW_AT_external
     245              $C$DW$25        .dwtag  DW_TAG_formal_parameter
     246                      .dwattr $C$DW$25, DW_AT_type(*$C$DW$T$106)
     247              $C$DW$26        .dwtag  DW_TAG_formal_parameter
     248                      .dwattr $C$DW$26, DW_AT_type(*$C$DW$T$19)
     249              $C$DW$27        .dwtag  DW_TAG_formal_parameter
     250                      .dwattr $C$DW$27, DW_AT_type(*$C$DW$T$3)
     251              $C$DW$28        .dwtag  DW_TAG_formal_parameter
     252                      .dwattr $C$DW$28, DW_AT_type(*$C$DW$T$126)
     253                      .dwendtag $C$DW$24
     254              
     255              
     256              $C$DW$29        .dwtag  DW_TAG_subprogram, DW_AT_name("USB_stallEndpt")
     257                      .dwattr $C$DW$29, DW_AT_TI_symbol_name("_USB_stallEndpt")
     258                      .dwattr $C$DW$29, DW_AT_type(*$C$DW$T$80)
     259                      .dwattr $C$DW$29, DW_AT_declaration
     260                      .dwattr $C$DW$29, DW_AT_external
     261              $C$DW$30        .dwtag  DW_TAG_formal_parameter
     262                      .dwattr $C$DW$30, DW_AT_type(*$C$DW$T$106)
     263                      .dwendtag $C$DW$29
     264              
TMS320C55x Assembler PC v4.4.1 Mon Aug 15 03:55:17 2016

Tools Copyright (c) 1996-2012 Texas Instruments Incorporated
usb.asm                                                              PAGE    6

     265              
     266              $C$DW$31        .dwtag  DW_TAG_subprogram, DW_AT_name("USB_clearEndptStall")
     267                      .dwattr $C$DW$31, DW_AT_TI_symbol_name("_USB_clearEndptStall")
     268                      .dwattr $C$DW$31, DW_AT_type(*$C$DW$T$80)
     269                      .dwattr $C$DW$31, DW_AT_declaration
     270                      .dwattr $C$DW$31, DW_AT_external
     271              $C$DW$32        .dwtag  DW_TAG_formal_parameter
     272                      .dwattr $C$DW$32, DW_AT_type(*$C$DW$T$106)
     273                      .dwendtag $C$DW$31
     274              
     275              
     276              $C$DW$33        .dwtag  DW_TAG_subprogram, DW_AT_name("USB_getEndptStall")
     277                      .dwattr $C$DW$33, DW_AT_TI_symbol_name("_USB_getEndptStall")
     278                      .dwattr $C$DW$33, DW_AT_type(*$C$DW$T$92)
     279                      .dwattr $C$DW$33, DW_AT_declaration
     280                      .dwattr $C$DW$33, DW_AT_external
     281              $C$DW$34        .dwtag  DW_TAG_formal_parameter
     282                      .dwattr $C$DW$34, DW_AT_type(*$C$DW$T$106)
     283              $C$DW$35        .dwtag  DW_TAG_formal_parameter
     284                      .dwattr $C$DW$35, DW_AT_type(*$C$DW$T$128)
     285                      .dwendtag $C$DW$33
     286              
     287              
     288              $C$DW$36        .dwtag  DW_TAG_subprogram, DW_AT_name("USB_epNumToHandle")
     289                      .dwattr $C$DW$36, DW_AT_TI_symbol_name("_USB_epNumToHandle")
     290                      .dwattr $C$DW$36, DW_AT_type(*$C$DW$T$106)
     291                      .dwattr $C$DW$36, DW_AT_declaration
     292                      .dwattr $C$DW$36, DW_AT_external
     293              $C$DW$37        .dwtag  DW_TAG_formal_parameter
     294                      .dwattr $C$DW$37, DW_AT_type(*$C$DW$T$73)
     295              $C$DW$38        .dwtag  DW_TAG_formal_parameter
     296                      .dwattr $C$DW$38, DW_AT_type(*$C$DW$T$19)
     297                      .dwendtag $C$DW$36
     298              
     299              
     300              $C$DW$39        .dwtag  DW_TAG_subprogram, DW_AT_name("USB_connectDev")
     301                      .dwattr $C$DW$39, DW_AT_TI_symbol_name("_USB_connectDev")
     302                      .dwattr $C$DW$39, DW_AT_type(*$C$DW$T$80)
     303                      .dwattr $C$DW$39, DW_AT_declaration
     304                      .dwattr $C$DW$39, DW_AT_external
     305              $C$DW$40        .dwtag  DW_TAG_formal_parameter
     306                      .dwattr $C$DW$40, DW_AT_type(*$C$DW$T$73)
     307                      .dwendtag $C$DW$39
     308              
     309              
     310              $C$DW$41        .dwtag  DW_TAG_subprogram, DW_AT_name("USB_disconnectDev")
     311                      .dwattr $C$DW$41, DW_AT_TI_symbol_name("_USB_disconnectDev")
     312                      .dwattr $C$DW$41, DW_AT_type(*$C$DW$T$80)
     313                      .dwattr $C$DW$41, DW_AT_declaration
     314                      .dwattr $C$DW$41, DW_AT_external
     315              $C$DW$42        .dwtag  DW_TAG_formal_parameter
     316                      .dwattr $C$DW$42, DW_AT_type(*$C$DW$T$73)
     317                      .dwendtag $C$DW$41
     318              
     319              
TMS320C55x Assembler PC v4.4.1 Mon Aug 15 03:55:17 2016

Tools Copyright (c) 1996-2012 Texas Instruments Incorporated
usb.asm                                                              PAGE    7

     320              $C$DW$43        .dwtag  DW_TAG_subprogram, DW_AT_name("USB_setRemoteWakeup")
     321                      .dwattr $C$DW$43, DW_AT_TI_symbol_name("_USB_setRemoteWakeup")
     322                      .dwattr $C$DW$43, DW_AT_type(*$C$DW$T$80)
     323                      .dwattr $C$DW$43, DW_AT_declaration
     324                      .dwattr $C$DW$43, DW_AT_external
     325              $C$DW$44        .dwtag  DW_TAG_formal_parameter
     326                      .dwattr $C$DW$44, DW_AT_type(*$C$DW$T$73)
     327              $C$DW$45        .dwtag  DW_TAG_formal_parameter
     328                      .dwattr $C$DW$45, DW_AT_type(*$C$DW$T$92)
     329                      .dwendtag $C$DW$43
     330              
     331              
     332              $C$DW$46        .dwtag  DW_TAG_subprogram, DW_AT_name("USB_getRemoteWakeupStat")
     333                      .dwattr $C$DW$46, DW_AT_TI_symbol_name("_USB_getRemoteWakeupStat")
     334                      .dwattr $C$DW$46, DW_AT_type(*$C$DW$T$92)
     335                      .dwattr $C$DW$46, DW_AT_declaration
     336                      .dwattr $C$DW$46, DW_AT_external
     337              $C$DW$47        .dwtag  DW_TAG_formal_parameter
     338                      .dwattr $C$DW$47, DW_AT_type(*$C$DW$T$73)
     339                      .dwendtag $C$DW$46
     340              
     341              
     342              $C$DW$48        .dwtag  DW_TAG_subprogram, DW_AT_name("USB_issueRemoteWakeup")
     343                      .dwattr $C$DW$48, DW_AT_TI_symbol_name("_USB_issueRemoteWakeup")
     344                      .dwattr $C$DW$48, DW_AT_type(*$C$DW$T$80)
     345                      .dwattr $C$DW$48, DW_AT_declaration
     346                      .dwattr $C$DW$48, DW_AT_external
     347              $C$DW$49        .dwtag  DW_TAG_formal_parameter
     348                      .dwattr $C$DW$49, DW_AT_type(*$C$DW$T$73)
     349              $C$DW$50        .dwtag  DW_TAG_formal_parameter
     350                      .dwattr $C$DW$50, DW_AT_type(*$C$DW$T$86)
     351                      .dwendtag $C$DW$48
     352              
     353              
     354              $C$DW$51        .dwtag  DW_TAG_subprogram, DW_AT_name("USB_setDevAddr")
     355                      .dwattr $C$DW$51, DW_AT_TI_symbol_name("_USB_setDevAddr")
     356                      .dwattr $C$DW$51, DW_AT_type(*$C$DW$T$80)
     357                      .dwattr $C$DW$51, DW_AT_declaration
     358                      .dwattr $C$DW$51, DW_AT_external
     359              $C$DW$52        .dwtag  DW_TAG_formal_parameter
     360                      .dwattr $C$DW$52, DW_AT_type(*$C$DW$T$73)
     361              $C$DW$53        .dwtag  DW_TAG_formal_parameter
     362                      .dwattr $C$DW$53, DW_AT_type(*$C$DW$T$19)
     363                      .dwendtag $C$DW$51
     364              
     365              
     366              $C$DW$54        .dwtag  DW_TAG_subprogram, DW_AT_name("USB_suspendDevice")
     367                      .dwattr $C$DW$54, DW_AT_TI_symbol_name("_USB_suspendDevice")
     368                      .dwattr $C$DW$54, DW_AT_type(*$C$DW$T$80)
     369                      .dwattr $C$DW$54, DW_AT_declaration
     370                      .dwattr $C$DW$54, DW_AT_external
     371              $C$DW$55        .dwtag  DW_TAG_formal_parameter
     372                      .dwattr $C$DW$55, DW_AT_type(*$C$DW$T$73)
     373                      .dwendtag $C$DW$54
     374              
TMS320C55x Assembler PC v4.4.1 Mon Aug 15 03:55:17 2016

Tools Copyright (c) 1996-2012 Texas Instruments Incorporated
usb.asm                                                              PAGE    8

     375              
     376              $C$DW$56        .dwtag  DW_TAG_subprogram, DW_AT_name("USB_setParams")
     377                      .dwattr $C$DW$56, DW_AT_TI_symbol_name("_USB_setParams")
     378                      .dwattr $C$DW$56, DW_AT_type(*$C$DW$T$80)
     379                      .dwattr $C$DW$56, DW_AT_declaration
     380                      .dwattr $C$DW$56, DW_AT_external
     381              $C$DW$57        .dwtag  DW_TAG_formal_parameter
     382                      .dwattr $C$DW$57, DW_AT_type(*$C$DW$T$73)
     383              $C$DW$58        .dwtag  DW_TAG_formal_parameter
     384                      .dwattr $C$DW$58, DW_AT_type(*$C$DW$T$149)
     385              $C$DW$59        .dwtag  DW_TAG_formal_parameter
     386                      .dwattr $C$DW$59, DW_AT_type(*$C$DW$T$19)
     387                      .dwendtag $C$DW$56
     388              
     389              
     390              $C$DW$60        .dwtag  DW_TAG_subprogram, DW_AT_name("IRQ_plug")
     391                      .dwattr $C$DW$60, DW_AT_TI_symbol_name("_IRQ_plug")
     392                      .dwattr $C$DW$60, DW_AT_type(*$C$DW$T$10)
     393                      .dwattr $C$DW$60, DW_AT_declaration
     394                      .dwattr $C$DW$60, DW_AT_external
     395              $C$DW$61        .dwtag  DW_TAG_formal_parameter
     396                      .dwattr $C$DW$61, DW_AT_type(*$C$DW$T$19)
     397              $C$DW$62        .dwtag  DW_TAG_formal_parameter
     398                      .dwattr $C$DW$62, DW_AT_type(*$C$DW$T$69)
     399                      .dwendtag $C$DW$60
     400              
     401              
     402              $C$DW$63        .dwtag  DW_TAG_subprogram, DW_AT_name("IRQ_enable")
     403                      .dwattr $C$DW$63, DW_AT_TI_symbol_name("_IRQ_enable")
     404                      .dwattr $C$DW$63, DW_AT_type(*$C$DW$T$10)
     405                      .dwattr $C$DW$63, DW_AT_declaration
     406                      .dwattr $C$DW$63, DW_AT_external
     407              $C$DW$64        .dwtag  DW_TAG_formal_parameter
     408                      .dwattr $C$DW$64, DW_AT_type(*$C$DW$T$19)
     409                      .dwendtag $C$DW$63
     410              
     411              
     412              $C$DW$65        .dwtag  DW_TAG_subprogram, DW_AT_name("IRQ_setVecs")
     413                      .dwattr $C$DW$65, DW_AT_TI_symbol_name("_IRQ_setVecs")
     414                      .dwattr $C$DW$65, DW_AT_type(*$C$DW$T$80)
     415                      .dwattr $C$DW$65, DW_AT_declaration
     416                      .dwattr $C$DW$65, DW_AT_external
     417              $C$DW$66        .dwtag  DW_TAG_formal_parameter
     418                      .dwattr $C$DW$66, DW_AT_type(*$C$DW$T$70)
     419                      .dwendtag $C$DW$65
     420              
     421              
     422              $C$DW$67        .dwtag  DW_TAG_subprogram, DW_AT_name("IRQ_globalEnable")
     423                      .dwattr $C$DW$67, DW_AT_TI_symbol_name("_IRQ_globalEnable")
     424                      .dwattr $C$DW$67, DW_AT_type(*$C$DW$T$86)
     425                      .dwattr $C$DW$67, DW_AT_declaration
     426                      .dwattr $C$DW$67, DW_AT_external
     427              
     428              $C$DW$68        .dwtag  DW_TAG_subprogram, DW_AT_name("VECSTART")
     429                      .dwattr $C$DW$68, DW_AT_TI_symbol_name("_VECSTART")
TMS320C55x Assembler PC v4.4.1 Mon Aug 15 03:55:17 2016

Tools Copyright (c) 1996-2012 Texas Instruments Incorporated
usb.asm                                                              PAGE    9

     430                      .dwattr $C$DW$68, DW_AT_declaration
     431                      .dwattr $C$DW$68, DW_AT_external
     432              $C$DW$69        .dwtag  DW_TAG_variable, DW_AT_name("usbRegisters")
     433                      .dwattr $C$DW$69, DW_AT_TI_symbol_name("_usbRegisters")
     434                      .dwattr $C$DW$69, DW_AT_type(*$C$DW$T$136)
     435                      .dwattr $C$DW$69, DW_AT_declaration
     436                      .dwattr $C$DW$69, DW_AT_external
     437              $C$DW$70        .dwtag  DW_TAG_variable, DW_AT_name("sysCtrlRegs")
     438                      .dwattr $C$DW$70, DW_AT_TI_symbol_name("_sysCtrlRegs")
     439                      .dwattr $C$DW$70, DW_AT_type(*$C$DW$T$140)
     440                      .dwattr $C$DW$70, DW_AT_declaration
     441                      .dwattr $C$DW$70, DW_AT_external
     442              $C$DW$71        .dwtag  DW_TAG_variable, DW_AT_name("gUsbContext")
     443                      .dwattr $C$DW$71, DW_AT_TI_symbol_name("_gUsbContext")
     444                      .dwattr $C$DW$71, DW_AT_type(*$C$DW$T$144)
     445                      .dwattr $C$DW$71, DW_AT_declaration
     446                      .dwattr $C$DW$71, DW_AT_external
     447                      .global _hEpObjArray
     448 000000               .bss    _hEpObjArray,16,0,2
     449              $C$DW$72        .dwtag  DW_TAG_variable, DW_AT_name("hEpObjArray")
     450                      .dwattr $C$DW$72, DW_AT_TI_symbol_name("_hEpObjArray")
     451                      .dwattr $C$DW$72, DW_AT_location[DW_OP_addr _hEpObjArray]
     452                      .dwattr $C$DW$72, DW_AT_type(*$C$DW$T$107)
     453                      .dwattr $C$DW$72, DW_AT_external
     454                      .global _hEPx
     455 000010               .bss    _hEPx,2,0,2
     456              $C$DW$73        .dwtag  DW_TAG_variable, DW_AT_name("hEPx")
     457                      .dwattr $C$DW$73, DW_AT_TI_symbol_name("_hEPx")
     458                      .dwattr $C$DW$73, DW_AT_location[DW_OP_addr _hEPx]
     459                      .dwattr $C$DW$73, DW_AT_type(*$C$DW$T$106)
     460                      .dwattr $C$DW$73, DW_AT_external
     461                      .global _usbCtrlOutEpObj
     462 000012               .bss    _usbCtrlOutEpObj,20,0,2
     463              $C$DW$74        .dwtag  DW_TAG_variable, DW_AT_name("usbCtrlOutEpObj")
     464                      .dwattr $C$DW$74, DW_AT_TI_symbol_name("_usbCtrlOutEpObj")
     465                      .dwattr $C$DW$74, DW_AT_location[DW_OP_addr _usbCtrlOutEpObj]
     466                      .dwattr $C$DW$74, DW_AT_type(*$C$DW$T$104)
     467                      .dwattr $C$DW$74, DW_AT_external
     468                      .global _usbCtrlInEpObj
     469 000026               .bss    _usbCtrlInEpObj,20,0,2
     470              $C$DW$75        .dwtag  DW_TAG_variable, DW_AT_name("usbCtrlInEpObj")
     471                      .dwattr $C$DW$75, DW_AT_TI_symbol_name("_usbCtrlInEpObj")
     472                      .dwattr $C$DW$75, DW_AT_location[DW_OP_addr _usbCtrlInEpObj]
     473                      .dwattr $C$DW$75, DW_AT_type(*$C$DW$T$104)
     474                      .dwattr $C$DW$75, DW_AT_external
     475                      .global _usbBulkOutEpObj
     476 00003a               .bss    _usbBulkOutEpObj,20,0,2
     477              $C$DW$76        .dwtag  DW_TAG_variable, DW_AT_name("usbBulkOutEpObj")
     478                      .dwattr $C$DW$76, DW_AT_TI_symbol_name("_usbBulkOutEpObj")
     479                      .dwattr $C$DW$76, DW_AT_location[DW_OP_addr _usbBulkOutEpObj]
     480                      .dwattr $C$DW$76, DW_AT_type(*$C$DW$T$104)
     481                      .dwattr $C$DW$76, DW_AT_external
     482                      .global _usbBulkInEpObj
     483 00004e               .bss    _usbBulkInEpObj,20,0,2
     484              $C$DW$77        .dwtag  DW_TAG_variable, DW_AT_name("usbBulkInEpObj")
TMS320C55x Assembler PC v4.4.1 Mon Aug 15 03:55:17 2016

Tools Copyright (c) 1996-2012 Texas Instruments Incorporated
usb.asm                                                              PAGE   10

     485                      .dwattr $C$DW$77, DW_AT_TI_symbol_name("_usbBulkInEpObj")
     486                      .dwattr $C$DW$77, DW_AT_location[DW_OP_addr _usbBulkInEpObj]
     487                      .dwattr $C$DW$77, DW_AT_type(*$C$DW$T$104)
     488                      .dwattr $C$DW$77, DW_AT_external
     489                      .global _usbConfig
     490 000062               .bss    _usbConfig,12,0,2
     491              $C$DW$78        .dwtag  DW_TAG_variable, DW_AT_name("usbConfig")
     492                      .dwattr $C$DW$78, DW_AT_TI_symbol_name("_usbConfig")
     493                      .dwattr $C$DW$78, DW_AT_location[DW_OP_addr _usbConfig]
     494                      .dwattr $C$DW$78, DW_AT_type(*$C$DW$T$142)
     495                      .dwattr $C$DW$78, DW_AT_external
     496                      .global _usbSetup
     497 00006e               .bss    _usbSetup,6,0,0
     498              $C$DW$79        .dwtag  DW_TAG_variable, DW_AT_name("usbSetup")
     499                      .dwattr $C$DW$79, DW_AT_TI_symbol_name("_usbSetup")
     500                      .dwattr $C$DW$79, DW_AT_location[DW_OP_addr _usbSetup]
     501                      .dwattr $C$DW$79, DW_AT_type(*$C$DW$T$101)
     502                      .dwattr $C$DW$79, DW_AT_external
     503                      .global _txRxStatus
     504 000074               .bss    _txRxStatus,1,0,0
     505              $C$DW$80        .dwtag  DW_TAG_variable, DW_AT_name("txRxStatus")
     506                      .dwattr $C$DW$80, DW_AT_TI_symbol_name("_txRxStatus")
     507                      .dwattr $C$DW$80, DW_AT_location[DW_OP_addr _txRxStatus]
     508                      .dwattr $C$DW$80, DW_AT_type(*$C$DW$T$92)
     509                      .dwattr $C$DW$80, DW_AT_external
     510                      .global _status
     511 000075               .bss    _status,1,0,0
     512              $C$DW$81        .dwtag  DW_TAG_variable, DW_AT_name("status")
     513                      .dwattr $C$DW$81, DW_AT_TI_symbol_name("_status")
     514                      .dwattr $C$DW$81, DW_AT_location[DW_OP_addr _status]
     515                      .dwattr $C$DW$81, DW_AT_type(*$C$DW$T$80)
     516                      .dwattr $C$DW$81, DW_AT_external
     517                      .global _pContext
     518 000076               .bss    _pContext,2,0,2
     519              $C$DW$82        .dwtag  DW_TAG_variable, DW_AT_name("pContext")
     520                      .dwattr $C$DW$82, DW_AT_TI_symbol_name("_pContext")
     521                      .dwattr $C$DW$82, DW_AT_location[DW_OP_addr _pContext]
     522                      .dwattr $C$DW$82, DW_AT_type(*$C$DW$T$146)
     523                      .dwattr $C$DW$82, DW_AT_external
     524                      .global _dataReadBuff
     525 000078               .bss    _dataReadBuff,256,0,0
     526              $C$DW$83        .dwtag  DW_TAG_variable, DW_AT_name("dataReadBuff")
     527                      .dwattr $C$DW$83, DW_AT_TI_symbol_name("_dataReadBuff")
     528                      .dwattr $C$DW$83, DW_AT_location[DW_OP_addr _dataReadBuff]
     529                      .dwattr $C$DW$83, DW_AT_type(*$C$DW$T$196)
     530                      .dwattr $C$DW$83, DW_AT_external
     531                      .global _dataWriteBuff
     532 000178               .bss    _dataWriteBuff,256,0,0
     533              $C$DW$84        .dwtag  DW_TAG_variable, DW_AT_name("dataWriteBuff")
     534                      .dwattr $C$DW$84, DW_AT_TI_symbol_name("_dataWriteBuff")
     535                      .dwattr $C$DW$84, DW_AT_location[DW_OP_addr _dataWriteBuff]
     536                      .dwattr $C$DW$84, DW_AT_type(*$C$DW$T$196)
     537                      .dwattr $C$DW$84, DW_AT_external
     538                      .global _dataReadBuffPtr
     539 000278               .bss    _dataReadBuffPtr,2,0,2
TMS320C55x Assembler PC v4.4.1 Mon Aug 15 03:55:17 2016

Tools Copyright (c) 1996-2012 Texas Instruments Incorporated
usb.asm                                                              PAGE   11

     540              $C$DW$85        .dwtag  DW_TAG_variable, DW_AT_name("dataReadBuffPtr")
     541                      .dwattr $C$DW$85, DW_AT_TI_symbol_name("_dataReadBuffPtr")
     542                      .dwattr $C$DW$85, DW_AT_location[DW_OP_addr _dataReadBuffPtr]
     543                      .dwattr $C$DW$85, DW_AT_type(*$C$DW$T$102)
     544                      .dwattr $C$DW$85, DW_AT_external
     545                      .global _dataWriteBuffPtr
     546 00027a               .bss    _dataWriteBuffPtr,2,0,2
     547              $C$DW$86        .dwtag  DW_TAG_variable, DW_AT_name("dataWriteBuffPtr")
     548                      .dwattr $C$DW$86, DW_AT_TI_symbol_name("_dataWriteBuffPtr")
     549                      .dwattr $C$DW$86, DW_AT_location[DW_OP_addr _dataWriteBuffPtr]
     550                      .dwattr $C$DW$86, DW_AT_type(*$C$DW$T$102)
     551                      .dwattr $C$DW$86, DW_AT_external
     552                      .global _deviceDescPtr
     553 00027c               .bss    _deviceDescPtr,2,0,2
     554              $C$DW$87        .dwtag  DW_TAG_variable, DW_AT_name("deviceDescPtr")
     555                      .dwattr $C$DW$87, DW_AT_TI_symbol_name("_deviceDescPtr")
     556                      .dwattr $C$DW$87, DW_AT_location[DW_OP_addr _deviceDescPtr]
     557                      .dwattr $C$DW$87, DW_AT_type(*$C$DW$T$102)
     558                      .dwattr $C$DW$87, DW_AT_external
     559                      .global _cfgDescPtr
     560 00027e               .bss    _cfgDescPtr,2,0,2
     561              $C$DW$88        .dwtag  DW_TAG_variable, DW_AT_name("cfgDescPtr")
     562                      .dwattr $C$DW$88, DW_AT_TI_symbol_name("_cfgDescPtr")
     563                      .dwattr $C$DW$88, DW_AT_location[DW_OP_addr _cfgDescPtr]
     564                      .dwattr $C$DW$88, DW_AT_type(*$C$DW$T$102)
     565                      .dwattr $C$DW$88, DW_AT_external
     566                      .global _strDescPtr
     567 000280               .bss    _strDescPtr,2,0,2
     568              $C$DW$89        .dwtag  DW_TAG_variable, DW_AT_name("strDescPtr")
     569                      .dwattr $C$DW$89, DW_AT_TI_symbol_name("_strDescPtr")
     570                      .dwattr $C$DW$89, DW_AT_location[DW_OP_addr _strDescPtr]
     571                      .dwattr $C$DW$89, DW_AT_type(*$C$DW$T$102)
     572                      .dwattr $C$DW$89, DW_AT_external
     573                      .global _bytesRem
     574 000282               .bss    _bytesRem,1,0,0
     575              $C$DW$90        .dwtag  DW_TAG_variable, DW_AT_name("bytesRem")
     576                      .dwattr $C$DW$90, DW_AT_TI_symbol_name("_bytesRem")
     577                      .dwattr $C$DW$90, DW_AT_location[DW_OP_addr _bytesRem]
     578                      .dwattr $C$DW$90, DW_AT_type(*$C$DW$T$19)
     579                      .dwattr $C$DW$90, DW_AT_external
     580                      .global _devAddr
     581 000283               .bss    _devAddr,1,0,0
     582              $C$DW$91        .dwtag  DW_TAG_variable, DW_AT_name("devAddr")
     583                      .dwattr $C$DW$91, DW_AT_TI_symbol_name("_devAddr")
     584                      .dwattr $C$DW$91, DW_AT_location[DW_OP_addr _devAddr]
     585                      .dwattr $C$DW$91, DW_AT_type(*$C$DW$T$19)
     586                      .dwattr $C$DW$91, DW_AT_external
     587                      .global _saveIndex
     588 000284               .bss    _saveIndex,1,0,0
     589              $C$DW$92        .dwtag  DW_TAG_variable, DW_AT_name("saveIndex")
     590                      .dwattr $C$DW$92, DW_AT_TI_symbol_name("_saveIndex")
     591                      .dwattr $C$DW$92, DW_AT_location[DW_OP_addr _saveIndex]
     592                      .dwattr $C$DW$92, DW_AT_type(*$C$DW$T$19)
     593                      .dwattr $C$DW$92, DW_AT_external
     594                      .global _endpt
TMS320C55x Assembler PC v4.4.1 Mon Aug 15 03:55:17 2016

Tools Copyright (c) 1996-2012 Texas Instruments Incorporated
usb.asm                                                              PAGE   12

     595 000285               .bss    _endpt,1,0,0
     596              $C$DW$93        .dwtag  DW_TAG_variable, DW_AT_name("endpt")
     597                      .dwattr $C$DW$93, DW_AT_TI_symbol_name("_endpt")
     598                      .dwattr $C$DW$93, DW_AT_location[DW_OP_addr _endpt]
     599                      .dwattr $C$DW$93, DW_AT_type(*$C$DW$T$19)
     600                      .dwattr $C$DW$93, DW_AT_external
     601                      .global _dataCount
     602 000286               .bss    _dataCount,1,0,0
     603              $C$DW$94        .dwtag  DW_TAG_variable, DW_AT_name("dataCount")
     604                      .dwattr $C$DW$94, DW_AT_TI_symbol_name("_dataCount")
     605                      .dwattr $C$DW$94, DW_AT_location[DW_OP_addr _dataCount]
     606                      .dwattr $C$DW$94, DW_AT_type(*$C$DW$T$19)
     607                      .dwattr $C$DW$94, DW_AT_external
     608                      .global _curCfg
     609 000287               .bss    _curCfg,1,0,0
     610              $C$DW$95        .dwtag  DW_TAG_variable, DW_AT_name("curCfg")
     611                      .dwattr $C$DW$95, DW_AT_TI_symbol_name("_curCfg")
     612                      .dwattr $C$DW$95, DW_AT_location[DW_OP_addr _curCfg]
     613                      .dwattr $C$DW$95, DW_AT_type(*$C$DW$T$162)
     614                      .dwattr $C$DW$95, DW_AT_external
     615                      .global _stopRunning
     616 000288               .bss    _stopRunning,1,0,0
     617              $C$DW$96        .dwtag  DW_TAG_variable, DW_AT_name("stopRunning")
     618                      .dwattr $C$DW$96, DW_AT_TI_symbol_name("_stopRunning")
     619                      .dwattr $C$DW$96, DW_AT_location[DW_OP_addr _stopRunning]
     620                      .dwattr $C$DW$96, DW_AT_type(*$C$DW$T$202)
     621                      .dwattr $C$DW$96, DW_AT_external
     622                      .global _deviceDesc
     623 000289               .bss    _deviceDesc,9,0,0
     624              $C$DW$97        .dwtag  DW_TAG_variable, DW_AT_name("deviceDesc")
     625                      .dwattr $C$DW$97, DW_AT_TI_symbol_name("_deviceDesc")
     626                      .dwattr $C$DW$97, DW_AT_location[DW_OP_addr _deviceDesc]
     627                      .dwattr $C$DW$97, DW_AT_type(*$C$DW$T$197)
     628                      .dwattr $C$DW$97, DW_AT_external
     629                      .global _cfgDesc
     630 000292               .bss    _cfgDesc,16,0,0
     631              $C$DW$98        .dwtag  DW_TAG_variable, DW_AT_name("cfgDesc")
     632                      .dwattr $C$DW$98, DW_AT_TI_symbol_name("_cfgDesc")
     633                      .dwattr $C$DW$98, DW_AT_location[DW_OP_addr _cfgDesc]
     634                      .dwattr $C$DW$98, DW_AT_type(*$C$DW$T$198)
     635                      .dwattr $C$DW$98, DW_AT_external
     636                      .global _strDesc
     637 0002a2               .bss    _strDesc,144,0,0
     638              $C$DW$99        .dwtag  DW_TAG_variable, DW_AT_name("strDesc")
     639                      .dwattr $C$DW$99, DW_AT_TI_symbol_name("_strDesc")
     640                      .dwattr $C$DW$99, DW_AT_location[DW_OP_addr _strDesc]
     641                      .dwattr $C$DW$99, DW_AT_type(*$C$DW$T$200)
     642                      .dwattr $C$DW$99, DW_AT_external
     643                      .global _addr
     644 000332               .bss    _addr,1,0,0
     645              $C$DW$100       .dwtag  DW_TAG_variable, DW_AT_name("addr")
     646                      .dwattr $C$DW$100, DW_AT_TI_symbol_name("_addr")
     647                      .dwattr $C$DW$100, DW_AT_location[DW_OP_addr _addr]
     648                      .dwattr $C$DW$100, DW_AT_type(*$C$DW$T$19)
     649                      .dwattr $C$DW$100, DW_AT_external
TMS320C55x Assembler PC v4.4.1 Mon Aug 15 03:55:17 2016

Tools Copyright (c) 1996-2012 Texas Instruments Incorporated
usb.asm                                                              PAGE   13

     650                      .global _len
     651 000333               .bss    _len,1,0,0
     652              $C$DW$101       .dwtag  DW_TAG_variable, DW_AT_name("len")
     653                      .dwattr $C$DW$101, DW_AT_TI_symbol_name("_len")
     654                      .dwattr $C$DW$101, DW_AT_location[DW_OP_addr _len]
     655                      .dwattr $C$DW$101, DW_AT_type(*$C$DW$T$19)
     656                      .dwattr $C$DW$101, DW_AT_external
     657                      .global _sPtr
     658 000334               .bss    _sPtr,2,0,2
     659              $C$DW$102       .dwtag  DW_TAG_variable, DW_AT_name("sPtr")
     660                      .dwattr $C$DW$102, DW_AT_TI_symbol_name("_sPtr")
     661                      .dwattr $C$DW$102, DW_AT_location[DW_OP_addr _sPtr]
     662                      .dwattr $C$DW$102, DW_AT_type(*$C$DW$T$102)
     663                      .dwattr $C$DW$102, DW_AT_external
     664              ;       E:\ti\ccsv6\tools\compiler\c5500_4.4.1\bin\acp55.exe -@e:\\users\\john\\AppData\\Local\\Temp\\0543612
     665 000000               .sect   ".text"
     666                      .align 4
     667              
     668              $C$DW$103       .dwtag  DW_TAG_subprogram, DW_AT_name("USB_dmaRxStart")
     669                      .dwattr $C$DW$103, DW_AT_low_pc(_USB_dmaRxStart)
     670                      .dwattr $C$DW$103, DW_AT_high_pc(0x00)
     671                      .dwattr $C$DW$103, DW_AT_TI_symbol_name("_USB_dmaRxStart")
     672                      .dwattr $C$DW$103, DW_AT_TI_begin_file("F:/eZDSP_5535_Files/ccsws2/test/c5535_bsl_revc/ezdsp5535_v1/c
     673                      .dwattr $C$DW$103, DW_AT_TI_begin_line(0x180)
     674                      .dwattr $C$DW$103, DW_AT_TI_begin_column(0x06)
     675                      .dwattr $C$DW$103, DW_AT_TI_max_frame_size(0x04)
     676                      .dwpsn  file "F:/eZDSP_5535_Files/ccsws2/test/c5535_bsl_revc/ezdsp5535_v1/c55xx_csl/inc/csl_usbAux.h"
     677              
     678                      .dwfde $C$DW$CIE, _USB_dmaRxStart
     679              $C$DW$104       .dwtag  DW_TAG_formal_parameter, DW_AT_name("dwEndpoint")
     680                      .dwattr $C$DW$104, DW_AT_TI_symbol_name("_dwEndpoint")
     681                      .dwattr $C$DW$104, DW_AT_type(*$C$DW$T$88)
     682                      .dwattr $C$DW$104, DW_AT_location[DW_OP_reg0]
     683              ;*******************************************************************************
     684              ;* FUNCTION NAME: USB_dmaRxStart                                               *
     685              ;*                                                                             *
     686              ;*   Function Uses Regs : AC0,AC0,T0,AR1,AR3,SP,M40,SATA,SATD,RDM,FRCT,SMUL    *
     687              ;*   Stack Frame        : Compact (No Frame Pointer, w/ debug)                 *
     688              ;*   Total Frame Size   : 4 words                                              *
     689              ;*                        (1 return address/alignment)                         *
     690              ;*                        (3 local values)                                     *
     691              ;*   Min System Stack   : 1 word                                               *
     692              ;*******************************************************************************
     693 000000       _USB_dmaRxStart:
     694                      .dwcfi  cfa_offset, 1
     695                      .dwcfi  save_reg_to_mem, 91, -1
     696 000000 4EFD          AADD #-3, SP
     697                      .dwcfi  cfa_offset, 4
     698              $C$DW$105       .dwtag  DW_TAG_variable, DW_AT_name("dwEndpoint")
     699                      .dwattr $C$DW$105, DW_AT_TI_symbol_name("_dwEndpoint")
     700                      .dwattr $C$DW$105, DW_AT_type(*$C$DW$T$88)
     701                      .dwattr $C$DW$105, DW_AT_location[DW_OP_bregx 0x24 0]
     702              $C$DW$106       .dwtag  DW_TAG_variable, DW_AT_name("saveIndex")
     703                      .dwattr $C$DW$106, DW_AT_TI_symbol_name("_saveIndex")
     704                      .dwattr $C$DW$106, DW_AT_type(*$C$DW$T$19)
TMS320C55x Assembler PC v4.4.1 Mon Aug 15 03:55:17 2016

Tools Copyright (c) 1996-2012 Texas Instruments Incorporated
usb.asm                                                              PAGE   14

     705                      .dwattr $C$DW$106, DW_AT_location[DW_OP_bregx 0x24 2]
     706 000002 EB00          MOV AC0, dbl(*SP(#0)) ; |385| 
         000004 08   
     707                      .dwpsn  file "F:/eZDSP_5535_Files/ccsws2/test/c5535_bsl_revc/ezdsp5535_v1/c55xx_csl/inc/csl_usbAux.h"
     708 000005 7604          MOV #1038, T0 ; |389| 
         000007 0E48 
     709 000009 AB31          MOV *(#_usbRegisters), AR3 ; |389| 
         00000b 0000 
         00000d 00!  
     710 00000e A96B          MOV port(*AR3(T0)), AR1 ; |389| 
         000010 99   
     711 000011 C904          MOV AR1, *SP(#2) ; |389| 
     712                      .dwpsn  file "F:/eZDSP_5535_Files/ccsws2/test/c5535_bsl_revc/ezdsp5535_v1/c55xx_csl/inc/csl_usbAux.h"
     713 000013 F46B          AND #0xfff0, port(*AR3(T0)) ; |392| 
         000015 FFF0 
         000017 9A   
     714                      .dwpsn  file "F:/eZDSP_5535_Files/ccsws2/test/c5535_bsl_revc/ezdsp5535_v1/c55xx_csl/inc/csl_usbAux.h"
     715 000018 AB31          MOV *(#_usbRegisters), AR3 ; |393| 
         00001a 0000 
         00001c 00!  
     716 00001d ED00          MOV dbl(*SP(#0)), AC0 ; |393| 
         00001f 08   
     717 000020 DA6B          OR port(*AR3(T0)), AC0, AC0 ; |393| 
         000022 00   
         000023 99   
     718 000024 C06B          MOV AC0, port(*AR3(T0)) ; |393| 
         000026 9A   
     719                      .dwpsn  file "F:/eZDSP_5535_Files/ccsws2/test/c5535_bsl_revc/ezdsp5535_v1/c55xx_csl/inc/csl_usbAux.h"
     720 000027 7604          MOV #1046, T0 ; |396| 
         000029 1648 
     721 00002b AB31          MOV *(#_usbRegisters), AR3 ; |396| 
         00002d 0000 
         00002f 00!  
     722 000030 F46B          AND #0x6fff, port(*AR3(T0)) ; |396| 
         000032 6FFF 
         000034 9A   
     723                      .dwpsn  file "F:/eZDSP_5535_Files/ccsws2/test/c5535_bsl_revc/ezdsp5535_v1/c55xx_csl/inc/csl_usbAux.h"
     724 000035 AB31          MOV *(#_usbRegisters), AR3 ; |399| 
         000037 0000 
         000039 00!  
     725 00003a F56B          OR #0x2000, port(*AR3(T0)) ; |399| 
         00003c 2000 
         00003e 9A   
     726                      .dwpsn  file "F:/eZDSP_5535_Files/ccsws2/test/c5535_bsl_revc/ezdsp5535_v1/c55xx_csl/inc/csl_usbAux.h"
     727 00003f 7604          MOV #1038, T0 ; |402| 
         000041 0E48 
     728 000043 AB31          MOV *(#_usbRegisters), AR3 ; |402| 
         000045 0000 
         000047 00!  
     729 000048 A904          MOV *SP(#2), AR1 ; |402| 
     730 00004a C96B          MOV AR1, port(*AR3(T0)) ; |402| 
         00004c 9A   
     731                      .dwpsn  file "F:/eZDSP_5535_Files/ccsws2/test/c5535_bsl_revc/ezdsp5535_v1/c55xx_csl/inc/csl_usbAux.h"
     732 00004d 4E03          AADD #3, SP
     733                      .dwcfi  cfa_offset, 1
TMS320C55x Assembler PC v4.4.1 Mon Aug 15 03:55:17 2016

Tools Copyright (c) 1996-2012 Texas Instruments Incorporated
usb.asm                                                              PAGE   15

     734              $C$DW$107       .dwtag  DW_TAG_TI_branch
     735                      .dwattr $C$DW$107, DW_AT_low_pc(0x00)
     736                      .dwattr $C$DW$107, DW_AT_TI_return
     737 00004f 4804          RET
     738                                                      ; return occurs
     739                      .dwattr $C$DW$103, DW_AT_TI_end_file("F:/eZDSP_5535_Files/ccsws2/test/c5535_bsl_revc/ezdsp5535_v1/c55
     740                      .dwattr $C$DW$103, DW_AT_TI_end_line(0x193)
     741                      .dwattr $C$DW$103, DW_AT_TI_end_column(0x01)
     742                      .dwendentry
     743                      .dwendtag $C$DW$103
     744              
     745 000051               .sect   ".text"
     746                      .align 4
     747              
     748              $C$DW$108       .dwtag  DW_TAG_subprogram, DW_AT_name("USB_dmaTxStart")
     749                      .dwattr $C$DW$108, DW_AT_low_pc(_USB_dmaTxStart)
     750                      .dwattr $C$DW$108, DW_AT_high_pc(0x00)
     751                      .dwattr $C$DW$108, DW_AT_TI_symbol_name("_USB_dmaTxStart")
     752                      .dwattr $C$DW$108, DW_AT_TI_begin_file("F:/eZDSP_5535_Files/ccsws2/test/c5535_bsl_revc/ezdsp5535_v1/c
     753                      .dwattr $C$DW$108, DW_AT_TI_begin_line(0x2da)
     754                      .dwattr $C$DW$108, DW_AT_TI_begin_column(0x06)
     755                      .dwattr $C$DW$108, DW_AT_TI_max_frame_size(0x04)
     756                      .dwpsn  file "F:/eZDSP_5535_Files/ccsws2/test/c5535_bsl_revc/ezdsp5535_v1/c55xx_csl/inc/csl_usbAux.h"
     757              
     758                      .dwfde $C$DW$CIE, _USB_dmaTxStart
     759              $C$DW$109       .dwtag  DW_TAG_formal_parameter, DW_AT_name("dwEndpoint")
     760                      .dwattr $C$DW$109, DW_AT_TI_symbol_name("_dwEndpoint")
     761                      .dwattr $C$DW$109, DW_AT_type(*$C$DW$T$88)
     762                      .dwattr $C$DW$109, DW_AT_location[DW_OP_reg0]
     763              ;*******************************************************************************
     764              ;* FUNCTION NAME: USB_dmaTxStart                                               *
     765              ;*                                                                             *
     766              ;*   Function Uses Regs : AC0,AC0,T0,AR1,AR3,SP,M40,SATA,SATD,RDM,FRCT,SMUL    *
     767              ;*   Stack Frame        : Compact (No Frame Pointer, w/ debug)                 *
     768              ;*   Total Frame Size   : 4 words                                              *
     769              ;*                        (1 return address/alignment)                         *
     770              ;*                        (3 local values)                                     *
     771              ;*   Min System Stack   : 1 word                                               *
     772              ;*******************************************************************************
     773 000054       _USB_dmaTxStart:
     774                      .dwcfi  cfa_offset, 1
     775                      .dwcfi  save_reg_to_mem, 91, -1
     776 000054 4EFD          AADD #-3, SP
     777                      .dwcfi  cfa_offset, 4
     778              $C$DW$110       .dwtag  DW_TAG_variable, DW_AT_name("dwEndpoint")
     779                      .dwattr $C$DW$110, DW_AT_TI_symbol_name("_dwEndpoint")
     780                      .dwattr $C$DW$110, DW_AT_type(*$C$DW$T$88)
     781                      .dwattr $C$DW$110, DW_AT_location[DW_OP_bregx 0x24 0]
     782              $C$DW$111       .dwtag  DW_TAG_variable, DW_AT_name("saveIndex")
     783                      .dwattr $C$DW$111, DW_AT_TI_symbol_name("_saveIndex")
     784                      .dwattr $C$DW$111, DW_AT_type(*$C$DW$T$19)
     785                      .dwattr $C$DW$111, DW_AT_location[DW_OP_bregx 0x24 2]
     786 000056 EB00          MOV AC0, dbl(*SP(#0)) ; |731| 
         000058 08   
     787                      .dwpsn  file "F:/eZDSP_5535_Files/ccsws2/test/c5535_bsl_revc/ezdsp5535_v1/c55xx_csl/inc/csl_usbAux.h"
TMS320C55x Assembler PC v4.4.1 Mon Aug 15 03:55:17 2016

Tools Copyright (c) 1996-2012 Texas Instruments Incorporated
usb.asm                                                              PAGE   16

     788 000059 7604          MOV #1038, T0 ; |735| 
         00005b 0E48 
     789 00005d AB31          MOV *(#_usbRegisters), AR3 ; |735| 
         00005f 0000 
         000061 00!  
     790 000062 A96B          MOV port(*AR3(T0)), AR1 ; |735| 
         000064 99   
     791 000065 C904          MOV AR1, *SP(#2) ; |735| 
     792                      .dwpsn  file "F:/eZDSP_5535_Files/ccsws2/test/c5535_bsl_revc/ezdsp5535_v1/c55xx_csl/inc/csl_usbAux.h"
     793 000067 F46B          AND #0xfff0, port(*AR3(T0)) ; |738| 
         000069 FFF0 
         00006b 9A   
     794                      .dwpsn  file "F:/eZDSP_5535_Files/ccsws2/test/c5535_bsl_revc/ezdsp5535_v1/c55xx_csl/inc/csl_usbAux.h"
     795 00006c AB31          MOV *(#_usbRegisters), AR3 ; |739| 
         00006e 0000 
         000070 00!  
     796 000071 ED00          MOV dbl(*SP(#0)), AC0 ; |739| 
         000073 08   
     797 000074 DA6B          OR port(*AR3(T0)), AC0, AC0 ; |739| 
         000076 00   
         000077 99   
     798 000078 C06B          MOV AC0, port(*AR3(T0)) ; |739| 
         00007a 9A   
     799                      .dwpsn  file "F:/eZDSP_5535_Files/ccsws2/test/c5535_bsl_revc/ezdsp5535_v1/c55xx_csl/inc/csl_usbAux.h"
     800 00007b 7604          MOV #1042, T0 ; |742| 
         00007d 1248 
     801 00007f AB31          MOV *(#_usbRegisters), AR3 ; |742| 
         000081 0000 
         000083 00!  
     802 000084 A96B          MOV port(*AR3(T0)), AR1 ; |742| 
         000086 99   
     803 000087 EC06          BCLR @#3, AR1 ; |742| 
         000089 92   
     804 00008a EC06          BSET @#3, AR1 ; |742| 
         00008c 90   
     805 00008d C96B          MOV AR1, port(*AR3(T0)) ; |742| 
         00008f 9A   
     806                      .dwpsn  file "F:/eZDSP_5535_Files/ccsws2/test/c5535_bsl_revc/ezdsp5535_v1/c55xx_csl/inc/csl_usbAux.h"
     807 000090 AB31          MOV *(#_usbRegisters), AR3 ; |745| 
         000092 0000 
         000094 00!  
     808 000095 F46B          AND #0x7fff, port(*AR3(T0)) ; |745| 
         000097 7FFF 
         000099 9A   
     809                      .dwpsn  file "F:/eZDSP_5535_Files/ccsws2/test/c5535_bsl_revc/ezdsp5535_v1/c55xx_csl/inc/csl_usbAux.h"
     810 00009a AB31          MOV *(#_usbRegisters), AR3 ; |746| 
         00009c 0000 
         00009e 00!  
     811 00009f F56B          OR #0x1000, port(*AR3(T0)) ; |746| 
         0000a1 1000 
         0000a3 9A   
     812                      .dwpsn  file "F:/eZDSP_5535_Files/ccsws2/test/c5535_bsl_revc/ezdsp5535_v1/c55xx_csl/inc/csl_usbAux.h"
     813 0000a4 AB31          MOV *(#_usbRegisters), AR3 ; |749| 
         0000a6 0000 
         0000a8 00!  
TMS320C55x Assembler PC v4.4.1 Mon Aug 15 03:55:17 2016

Tools Copyright (c) 1996-2012 Texas Instruments Incorporated
usb.asm                                                              PAGE   17

     814 0000a9 F56B          OR #0x1000, port(*AR3(T0)) ; |749| 
         0000ab 1000 
         0000ad 9A   
     815                      .dwpsn  file "F:/eZDSP_5535_Files/ccsws2/test/c5535_bsl_revc/ezdsp5535_v1/c55xx_csl/inc/csl_usbAux.h"
     816 0000ae 7604          MOV #1038, T0 ; |752| 
         0000b0 0E48 
     817 0000b2 AB31          MOV *(#_usbRegisters), AR3 ; |752| 
         0000b4 0000 
         0000b6 00!  
     818 0000b7 A904          MOV *SP(#2), AR1 ; |752| 
     819 0000b9 C96B          MOV AR1, port(*AR3(T0)) ; |752| 
         0000bb 9A   
     820                      .dwpsn  file "F:/eZDSP_5535_Files/ccsws2/test/c5535_bsl_revc/ezdsp5535_v1/c55xx_csl/inc/csl_usbAux.h"
     821 0000bc 4E03          AADD #3, SP
     822                      .dwcfi  cfa_offset, 1
     823              $C$DW$112       .dwtag  DW_TAG_TI_branch
     824                      .dwattr $C$DW$112, DW_AT_low_pc(0x00)
     825                      .dwattr $C$DW$112, DW_AT_TI_return
     826 0000be 4804          RET
     827                                                      ; return occurs
     828                      .dwattr $C$DW$108, DW_AT_TI_end_file("F:/eZDSP_5535_Files/ccsws2/test/c5535_bsl_revc/ezdsp5535_v1/c55
     829                      .dwattr $C$DW$108, DW_AT_TI_end_line(0x2f1)
     830                      .dwattr $C$DW$108, DW_AT_TI_end_column(0x01)
     831                      .dwendentry
     832                      .dwendtag $C$DW$108
     833              
     834 0000c0               .sect   ".text"
     835                      .align 4
     836              
     837              $C$DW$113       .dwtag  DW_TAG_subprogram, DW_AT_name("USB_processEP0Out")
     838                      .dwattr $C$DW$113, DW_AT_low_pc(_USB_processEP0Out)
     839                      .dwattr $C$DW$113, DW_AT_high_pc(0x00)
     840                      .dwattr $C$DW$113, DW_AT_TI_symbol_name("_USB_processEP0Out")
     841                      .dwattr $C$DW$113, DW_AT_type(*$C$DW$T$80)
     842                      .dwattr $C$DW$113, DW_AT_TI_begin_file("F:/eZDSP_5535_Files/ccsws2/test/c5535_bsl_revc/ezdsp5535_v1/c
     843                      .dwattr $C$DW$113, DW_AT_TI_begin_line(0x511)
     844                      .dwattr $C$DW$113, DW_AT_TI_begin_column(0x0c)
     845                      .dwattr $C$DW$113, DW_AT_TI_max_frame_size(0x0a)
     846                      .dwpsn  file "F:/eZDSP_5535_Files/ccsws2/test/c5535_bsl_revc/ezdsp5535_v1/c55xx_csl/inc/csl_usbAux.h"
     847              
     848                      .dwfde $C$DW$CIE, _USB_processEP0Out
     849              $C$DW$114       .dwtag  DW_TAG_formal_parameter, DW_AT_name("pContext")
     850                      .dwattr $C$DW$114, DW_AT_TI_symbol_name("_pContext")
     851                      .dwattr $C$DW$114, DW_AT_type(*$C$DW$T$146)
     852                      .dwattr $C$DW$114, DW_AT_location[DW_OP_reg17]
     853              ;*******************************************************************************
     854              ;* FUNCTION NAME: USB_processEP0Out                                            *
     855              ;*                                                                             *
     856              ;*   Function Uses Regs : AC0,AC0,AC1,AC1,T0,AR0,XAR0,AR1,XAR1,AR2,XAR2,AR3,   *
     857              ;*                        XAR3,SP,CARRY,TC1,M40,SATA,SATD,RDM,FRCT,SMUL        *
     858              ;*   Stack Frame        : Compact (No Frame Pointer, w/ debug)                 *
     859              ;*   Total Frame Size   : 10 words                                             *
     860              ;*                        (1 return address/alignment)                         *
     861              ;*                        (9 local values)                                     *
     862              ;*   Min System Stack   : 1 word                                               *
TMS320C55x Assembler PC v4.4.1 Mon Aug 15 03:55:17 2016

Tools Copyright (c) 1996-2012 Texas Instruments Incorporated
usb.asm                                                              PAGE   18

     863              ;*******************************************************************************
     864 0000c0       _USB_processEP0Out:
     865                      .dwcfi  cfa_offset, 1
     866                      .dwcfi  save_reg_to_mem, 91, -1
     867 0000c0 4EF7          AADD #-9, SP
     868                      .dwcfi  cfa_offset, 10
     869              $C$DW$115       .dwtag  DW_TAG_variable, DW_AT_name("pContext")
     870                      .dwattr $C$DW$115, DW_AT_TI_symbol_name("_pContext")
     871                      .dwattr $C$DW$115, DW_AT_type(*$C$DW$T$146)
     872                      .dwattr $C$DW$115, DW_AT_location[DW_OP_bregx 0x24 0]
     873              $C$DW$116       .dwtag  DW_TAG_variable, DW_AT_name("peps")
     874                      .dwattr $C$DW$116, DW_AT_TI_symbol_name("_peps")
     875                      .dwattr $C$DW$116, DW_AT_type(*$C$DW$T$150)
     876                      .dwattr $C$DW$116, DW_AT_location[DW_OP_bregx 0x24 2]
     877              $C$DW$117       .dwtag  DW_TAG_variable, DW_AT_name("pTransfer")
     878                      .dwattr $C$DW$117, DW_AT_TI_symbol_name("_pTransfer")
     879                      .dwattr $C$DW$117, DW_AT_type(*$C$DW$T$152)
     880                      .dwattr $C$DW$117, DW_AT_location[DW_OP_bregx 0x24 4]
     881              $C$DW$118       .dwtag  DW_TAG_variable, DW_AT_name("pwBuffer")
     882                      .dwattr $C$DW$118, DW_AT_TI_symbol_name("_pwBuffer")
     883                      .dwattr $C$DW$118, DW_AT_type(*$C$DW$T$87)
     884                      .dwattr $C$DW$118, DW_AT_location[DW_OP_bregx 0x24 6]
     885              $C$DW$119       .dwtag  DW_TAG_variable, DW_AT_name("status")
     886                      .dwattr $C$DW$119, DW_AT_TI_symbol_name("_status")
     887                      .dwattr $C$DW$119, DW_AT_type(*$C$DW$T$80)
     888                      .dwattr $C$DW$119, DW_AT_location[DW_OP_bregx 0x24 8]
     889 0000c2 EB00          MOV XAR0, dbl(*SP(#0))
         0000c4 85   
     890                      .dwpsn  file "F:/eZDSP_5535_Files/ccsws2/test/c5535_bsl_revc/ezdsp5535_v1/c55xx_csl/inc/csl_usbAux.h"
     891 0000c5 E610          MOV #0, *SP(#8) ; |1304| 
         0000c7 00   
     892                      .dwpsn  file "F:/eZDSP_5535_Files/ccsws2/test/c5535_bsl_revc/ezdsp5535_v1/c55xx_csl/inc/csl_usbAux.h"
     893 0000c8 ED00          MOV dbl(*SP(#0)), XAR3
         0000ca BF   
     894 0000cb 90B0          MOV XAR3, AC0
     895 0000cd 6D00          BCC $C$L4,AC0 == #0 ; |1306| 
         0000cf 00A9 
     896                                                      ; branchcc occurs ; |1306| 
     897                      .dwpsn  file "F:/eZDSP_5535_Files/ccsws2/test/c5535_bsl_revc/ezdsp5535_v1/c55xx_csl/inc/csl_usbAux.h"
     898 0000d1 ED6D          MOV dbl(*AR3(#98)), XAR3
         0000d3 BF00 
         0000d5 62   
     899 0000d6 EB04          MOV XAR3, dbl(*SP(#2))
         0000d8 B5   
     900                      .dwpsn  file "F:/eZDSP_5535_Files/ccsws2/test/c5535_bsl_revc/ezdsp5535_v1/c55xx_csl/inc/csl_usbAux.h"
     901 0000d9 ED6D          MOV dbl(*AR3(#10)), XAR3
         0000db BF00 
         0000dd 0A   
     902 0000de EB08          MOV XAR3, dbl(*SP(#4))
         0000e0 B5   
     903                      .dwpsn  file "F:/eZDSP_5535_Files/ccsws2/test/c5535_bsl_revc/ezdsp5535_v1/c55xx_csl/inc/csl_usbAux.h"
     904 0000e1 90B0          MOV XAR3, AC0
     905 0000e3 6D00          BCC $C$L3,AC0 == #0 ; |1311| 
         0000e5 008E 
     906                                                      ; branchcc occurs ; |1311| 
TMS320C55x Assembler PC v4.4.1 Mon Aug 15 03:55:17 2016

Tools Copyright (c) 1996-2012 Texas Instruments Incorporated
usb.asm                                                              PAGE   19

     907 0000e7 A96D          MOV *AR3(#12), AR1 ; |1311| 
         0000e9 000C 
     908 0000eb 6D19          BCC $C$L3,AR1 != #0 ; |1311| 
         0000ed 0086 
     909                                                      ; branchcc occurs ; |1311| 
     910                      .dwpsn  file "F:/eZDSP_5535_Files/ccsws2/test/c5535_bsl_revc/ezdsp5535_v1/c55xx_csl/inc/csl_usbAux.h"
     911 0000ef ED6D          MOV dbl(*AR3(#8)), AC0 ; |1314| 
         0000f1 0800 
         0000f3 08   
     912 0000f4 ED79          MOV dbl(*AR3(short(#4))), XAR3
         0000f6 BF   
     913 0000f7 5001          SFTL AC0, #-1 ; |1314| 
     914 0000f9 2209          MOV AC0, AR1 ; |1314| 
     915              
     916 0000fb 8E0C          MOV XAR3, dbl(*SP(#6))
         0000fd BB10 
         0000ff B590 
     917              ||      AADD AR1, AR3 ; |1314| 
     918              
     919                      .dwpsn  file "F:/eZDSP_5535_Files/ccsws2/test/c5535_bsl_revc/ezdsp5535_v1/c55xx_csl/inc/csl_usbAux.h"
     920 000101 ED08          MOV dbl(*SP(#4)), XAR3
         000103 BF   
     921 000104 ED7D          MOV dbl(*AR3(short(#6))), AC0 ; |1323| 
         000106 08   
     922 000107 ED00          MOV dbl(*SP(#0)), XAR3
         000109 BF   
     923 00010a DF6D          MOV uns(*AR3(#24)), AC1 ; |1323| 
         00010c 1500 
         00010e 18   
     924 00010f 1218          CMPU AC1 >= AC0, TC1 ; |1323| 
         000111 04   
     925 000112 63E4          BCC $C$L1,TC1 ; |1323| 
     926                                                      ; branchcc occurs ; |1323| 
     927 000114 DF6D          MOV uns(*AR3(#24)), AC0 ; |1323| 
         000116 0500 
         000118 18   
     928 000119 4A06          B $C$L2   ; |1323| 
     929                                                      ; branch occurs ; |1323| 
     930 00011b       $C$L1:    
     931 00011b ED08          MOV dbl(*SP(#4)), XAR3
         00011d BF   
     932 00011e ED7D          MOV dbl(*AR3(short(#6))), AC0 ; |1323| 
         000120 08   
     933 000121       $C$L2:    
     934 000121 ED08          MOV dbl(*SP(#4)), XAR3
         000123 BF   
     935 000124 EB6D          MOV AC0, dbl(*AR3(#8)) ; |1323| 
         000126 0800 
         000128 08   
     936                      .dwpsn  file "F:/eZDSP_5535_Files/ccsws2/test/c5535_bsl_revc/ezdsp5535_v1/c55xx_csl/inc/csl_usbAux.h"
     937 000129 ED08          MOV dbl(*SP(#4)), XAR3
         00012b BF   
     938 00012c ED00          MOV dbl(*SP(#0)), XAR1
         00012e 9F   
     939 00012f ED0C          MOV dbl(*SP(#6)), XAR0
TMS320C55x Assembler PC v4.4.1 Mon Aug 15 03:55:17 2016

Tools Copyright (c) 1996-2012 Texas Instruments Incorporated
usb.asm                                                              PAGE   20

         000131 8F   
     940 000132 ED6D          MOV dbl(*AR3(#8)), AC0 ; |1326| 
         000134 0800 
         000136 08   
     941 000137 4010          ADD #1, AC0 ; |1326| 
     942              
     943 00013c 5101          SFTL AC0, #-1 ; |1326| 
     944 000139 141A  ||      AADD #26, AR1 ; |1326| 
         00013b 94   
     945              
     946              $C$DW$120       .dwtag  DW_TAG_TI_branch
     947                      .dwattr $C$DW$120, DW_AT_low_pc(0x00)
     948                      .dwattr $C$DW$120, DW_AT_name("_memcpy")
     949                      .dwattr $C$DW$120, DW_AT_TI_call
     950              
     951 00013e 6C00          CALL #_memcpy ; |1326| 
         000140 0000!
     952 000142 2304  ||      MOV AC0, T0 ; |1326| 
     953              
     954                                                      ; call occurs [#_memcpy] ; |1326| 
     955                      .dwpsn  file "F:/eZDSP_5535_Files/ccsws2/test/c5535_bsl_revc/ezdsp5535_v1/c55xx_csl/inc/csl_usbAux.h"
     956 000144 ED00          MOV dbl(*SP(#0)), XAR3
         000146 BF   
     957 000147 E679          MOV #0, *AR3(short(#4)) ; |1329| 
         000149 00   
     958                      .dwpsn  file "F:/eZDSP_5535_Files/ccsws2/test/c5535_bsl_revc/ezdsp5535_v1/c55xx_csl/inc/csl_usbAux.h"
     959 00014a ED08          MOV dbl(*SP(#4)), XAR3
         00014c BF   
     960 00014d E66D          MOV #1, *AR3(#12) ; |1330| 
         00014f 0100 
         000151 0C   
     961                      .dwpsn  file "F:/eZDSP_5535_Files/ccsws2/test/c5535_bsl_revc/ezdsp5535_v1/c55xx_csl/inc/csl_usbAux.h"
     962 000152 ED08          MOV dbl(*SP(#4)), XAR2
         000154 AF   
     963 000155 ED08          MOV dbl(*SP(#4)), XAR3
         000157 BF   
     964              
     965 000158 1408          AADD #8, AR3 ; |1331| 
         00015a B4   
     966 00015b 150A  ||      AADD #10, AR2 ; |1331| 
         00015d AC   
     967              
     968 00015e 8061          MOV dbl(*AR3), dbl(*AR2) ; |1331| 
         000160 00   
     969                      .dwpsn  file "F:/eZDSP_5535_Files/ccsws2/test/c5535_bsl_revc/ezdsp5535_v1/c55xx_csl/inc/csl_usbAux.h"
     970 000161 ED00          MOV dbl(*SP(#0)), XAR3
         000163 BF   
     971 000164 ED00          MOV dbl(*SP(#0)), XAR0
         000166 8F   
     972 000167 ED04          MOV dbl(*SP(#2)), XAR1
         000169 9F   
     973 00016a ED6D          MOV dbl(*AR3(#116)), AC0 ; |1337| 
         00016c 0800 
         00016e 74   
     974              $C$DW$121       .dwtag  DW_TAG_TI_branch
TMS320C55x Assembler PC v4.4.1 Mon Aug 15 03:55:17 2016

Tools Copyright (c) 1996-2012 Texas Instruments Incorporated
usb.asm                                                              PAGE   21

     975                      .dwattr $C$DW$121, DW_AT_low_pc(0x00)
     976                      .dwattr $C$DW$121, DW_AT_TI_call
     977                      .dwattr $C$DW$121, DW_AT_TI_indirect
     978 00016f 9200          CALL AC0  ; |1337| 
     979                                                      ; call occurs [AC0] ; |1337| 
     980 000171 C410          MOV T0, *SP(#8) ; |1337| 
     981                      .dwpsn  file "F:/eZDSP_5535_Files/ccsws2/test/c5535_bsl_revc/ezdsp5535_v1/c55xx_csl/inc/csl_usbAux.h"
     982 000173 4A08          B $C$L5   ; |1338| 
     983                                                      ; branch occurs ; |1338| 
     984 000175       $C$L3:    
     985                      .dwpsn  file "F:/eZDSP_5535_Files/ccsws2/test/c5535_bsl_revc/ezdsp5535_v1/c55xx_csl/inc/csl_usbAux.h"
     986 000175 E610          MOV #-6, *SP(#8) ; |1341| 
         000177 FA   
     987                      .dwpsn  file "F:/eZDSP_5535_Files/ccsws2/test/c5535_bsl_revc/ezdsp5535_v1/c55xx_csl/inc/csl_usbAux.h"
     988 000178 4A03          B $C$L5   ; |1343| 
     989                                                      ; branch occurs ; |1343| 
     990 00017a       $C$L4:    
     991                      .dwpsn  file "F:/eZDSP_5535_Files/ccsws2/test/c5535_bsl_revc/ezdsp5535_v1/c55xx_csl/inc/csl_usbAux.h"
     992 00017a E610          MOV #-6, *SP(#8) ; |1346| 
         00017c FA   
     993 00017d       $C$L5:    
     994                      .dwpsn  file "F:/eZDSP_5535_Files/ccsws2/test/c5535_bsl_revc/ezdsp5535_v1/c55xx_csl/inc/csl_usbAux.h"
     995 00017d A410          MOV *SP(#8), T0 ; |1348| 
     996                      .dwpsn  file "F:/eZDSP_5535_Files/ccsws2/test/c5535_bsl_revc/ezdsp5535_v1/c55xx_csl/inc/csl_usbAux.h"
     997 00017f 4E09          AADD #9, SP
     998                      .dwcfi  cfa_offset, 1
     999              $C$DW$122       .dwtag  DW_TAG_TI_branch
    1000                      .dwattr $C$DW$122, DW_AT_low_pc(0x00)
    1001                      .dwattr $C$DW$122, DW_AT_TI_return
    1002 000181 4804          RET
    1003                                                      ; return occurs
    1004                      .dwattr $C$DW$113, DW_AT_TI_end_file("F:/eZDSP_5535_Files/ccsws2/test/c5535_bsl_revc/ezdsp5535_v1/c55
    1005                      .dwattr $C$DW$113, DW_AT_TI_end_line(0x545)
    1006                      .dwattr $C$DW$113, DW_AT_TI_end_column(0x01)
    1007                      .dwendentry
    1008                      .dwendtag $C$DW$113
    1009              
    1010 000183               .sect   ".text"
    1011                      .align 4
    1012              
    1013              $C$DW$123       .dwtag  DW_TAG_subprogram, DW_AT_name("USB_processEP0In")
    1014                      .dwattr $C$DW$123, DW_AT_low_pc(_USB_processEP0In)
    1015                      .dwattr $C$DW$123, DW_AT_high_pc(0x00)
    1016                      .dwattr $C$DW$123, DW_AT_TI_symbol_name("_USB_processEP0In")
    1017                      .dwattr $C$DW$123, DW_AT_type(*$C$DW$T$80)
    1018                      .dwattr $C$DW$123, DW_AT_TI_begin_file("F:/eZDSP_5535_Files/ccsws2/test/c5535_bsl_revc/ezdsp5535_v1/c
    1019                      .dwattr $C$DW$123, DW_AT_TI_begin_line(0x576)
    1020                      .dwattr $C$DW$123, DW_AT_TI_begin_column(0x0c)
    1021                      .dwattr $C$DW$123, DW_AT_TI_max_frame_size(0x12)
    1022                      .dwpsn  file "F:/eZDSP_5535_Files/ccsws2/test/c5535_bsl_revc/ezdsp5535_v1/c55xx_csl/inc/csl_usbAux.h"
    1023              
    1024                      .dwfde $C$DW$CIE, _USB_processEP0In
    1025              $C$DW$124       .dwtag  DW_TAG_formal_parameter, DW_AT_name("pContext")
    1026                      .dwattr $C$DW$124, DW_AT_TI_symbol_name("_pContext")
    1027                      .dwattr $C$DW$124, DW_AT_type(*$C$DW$T$146)
TMS320C55x Assembler PC v4.4.1 Mon Aug 15 03:55:17 2016

Tools Copyright (c) 1996-2012 Texas Instruments Incorporated
usb.asm                                                              PAGE   22

    1028                      .dwattr $C$DW$124, DW_AT_location[DW_OP_reg17]
    1029              ;*******************************************************************************
    1030              ;* FUNCTION NAME: USB_processEP0In                                             *
    1031              ;*                                                                             *
    1032              ;*   Function Uses Regs : AC0,AC0,AC1,AC1,T0,AR0,XAR0,AR1,XAR1,AR2,AR3,XAR3,   *
    1033              ;*                        AR4,SP,CARRY,TC1,M40,SATA,SATD,RDM,FRCT,SMUL         *
    1034              ;*   Stack Frame        : Compact (No Frame Pointer, w/ debug)                 *
    1035              ;*   Total Frame Size   : 18 words                                             *
    1036              ;*                        (2 return address/alignment)                         *
    1037              ;*                        (16 local values)                                    *
    1038              ;*   Min System Stack   : 1 word                                               *
    1039              ;*******************************************************************************
    1040 000184       _USB_processEP0In:
    1041                      .dwcfi  cfa_offset, 1
    1042                      .dwcfi  save_reg_to_mem, 91, -1
    1043 000184 4EEF          AADD #-17, SP
    1044                      .dwcfi  cfa_offset, 18
    1045              $C$DW$125       .dwtag  DW_TAG_variable, DW_AT_name("pContext")
    1046                      .dwattr $C$DW$125, DW_AT_TI_symbol_name("_pContext")
    1047                      .dwattr $C$DW$125, DW_AT_type(*$C$DW$T$146)
    1048                      .dwattr $C$DW$125, DW_AT_location[DW_OP_bregx 0x24 0]
    1049              $C$DW$126       .dwtag  DW_TAG_variable, DW_AT_name("peps")
    1050                      .dwattr $C$DW$126, DW_AT_TI_symbol_name("_peps")
    1051                      .dwattr $C$DW$126, DW_AT_type(*$C$DW$T$150)
    1052                      .dwattr $C$DW$126, DW_AT_location[DW_OP_bregx 0x24 2]
    1053              $C$DW$127       .dwtag  DW_TAG_variable, DW_AT_name("pTransfer")
    1054                      .dwattr $C$DW$127, DW_AT_TI_symbol_name("_pTransfer")
    1055                      .dwattr $C$DW$127, DW_AT_type(*$C$DW$T$152)
    1056                      .dwattr $C$DW$127, DW_AT_location[DW_OP_bregx 0x24 4]
    1057              $C$DW$128       .dwtag  DW_TAG_variable, DW_AT_name("status")
    1058                      .dwattr $C$DW$128, DW_AT_TI_symbol_name("_status")
    1059                      .dwattr $C$DW$128, DW_AT_type(*$C$DW$T$80)
    1060                      .dwattr $C$DW$128, DW_AT_location[DW_OP_bregx 0x24 6]
    1061              $C$DW$129       .dwtag  DW_TAG_variable, DW_AT_name("pwBuffer")
    1062                      .dwattr $C$DW$129, DW_AT_TI_symbol_name("_pwBuffer")
    1063                      .dwattr $C$DW$129, DW_AT_type(*$C$DW$T$195)
    1064                      .dwattr $C$DW$129, DW_AT_location[DW_OP_bregx 0x24 8]
    1065              $C$DW$130       .dwtag  DW_TAG_variable, DW_AT_name("cbBuffer")
    1066                      .dwattr $C$DW$130, DW_AT_TI_symbol_name("_cbBuffer")
    1067                      .dwattr $C$DW$130, DW_AT_type(*$C$DW$T$88)
    1068                      .dwattr $C$DW$130, DW_AT_location[DW_OP_bregx 0x24 10]
    1069              $C$DW$131       .dwtag  DW_TAG_variable, DW_AT_name("cbToWrite")
    1070                      .dwattr $C$DW$131, DW_AT_TI_symbol_name("_cbToWrite")
    1071                      .dwattr $C$DW$131, DW_AT_type(*$C$DW$T$85)
    1072                      .dwattr $C$DW$131, DW_AT_location[DW_OP_bregx 0x24 12]
    1073              $C$DW$132       .dwtag  DW_TAG_variable, DW_AT_name("count")
    1074                      .dwattr $C$DW$132, DW_AT_TI_symbol_name("_count")
    1075                      .dwattr $C$DW$132, DW_AT_type(*$C$DW$T$19)
    1076                      .dwattr $C$DW$132, DW_AT_location[DW_OP_bregx 0x24 13]
    1077              $C$DW$133       .dwtag  DW_TAG_variable, DW_AT_name("flag")
    1078                      .dwattr $C$DW$133, DW_AT_TI_symbol_name("_flag")
    1079                      .dwattr $C$DW$133, DW_AT_type(*$C$DW$T$19)
    1080                      .dwattr $C$DW$133, DW_AT_location[DW_OP_bregx 0x24 14]
    1081              $C$DW$134       .dwtag  DW_TAG_variable, DW_AT_name("saveIndex")
    1082                      .dwattr $C$DW$134, DW_AT_TI_symbol_name("_saveIndex")
TMS320C55x Assembler PC v4.4.1 Mon Aug 15 03:55:17 2016

Tools Copyright (c) 1996-2012 Texas Instruments Incorporated
usb.asm                                                              PAGE   23

    1083                      .dwattr $C$DW$134, DW_AT_type(*$C$DW$T$19)
    1084                      .dwattr $C$DW$134, DW_AT_location[DW_OP_bregx 0x24 15]
    1085 000186 EB00          MOV XAR0, dbl(*SP(#0))
         000188 85   
    1086                      .dwpsn  file "F:/eZDSP_5535_Files/ccsws2/test/c5535_bsl_revc/ezdsp5535_v1/c55xx_csl/inc/csl_usbAux.h"
    1087 000189 E61C          MOV #0, *SP(#14) ; |1410| 
         00018b 00   
    1088                      .dwpsn  file "F:/eZDSP_5535_Files/ccsws2/test/c5535_bsl_revc/ezdsp5535_v1/c55xx_csl/inc/csl_usbAux.h"
    1089 00018c E60C          MOV #0, *SP(#6) ; |1411| 
         00018e 00   
    1090                      .dwpsn  file "F:/eZDSP_5535_Files/ccsws2/test/c5535_bsl_revc/ezdsp5535_v1/c55xx_csl/inc/csl_usbAux.h"
    1091 00018f ED00          MOV dbl(*SP(#0)), XAR3
         000191 BF   
    1092 000192 90B0          MOV XAR3, AC0
    1093 000194 6D00          BCC $C$L18,AC0 == #0 ; |1413| 
         000196 01BF 
    1094                                                      ; branchcc occurs ; |1413| 
    1095                      .dwpsn  file "F:/eZDSP_5535_Files/ccsws2/test/c5535_bsl_revc/ezdsp5535_v1/c55xx_csl/inc/csl_usbAux.h"
    1096 000198 ED6D          MOV dbl(*AR3(#98)), XAR3
         00019a BF00 
         00019c 62   
    1097 00019d EB04          MOV XAR3, dbl(*SP(#2))
         00019f B5   
    1098                      .dwpsn  file "F:/eZDSP_5535_Files/ccsws2/test/c5535_bsl_revc/ezdsp5535_v1/c55xx_csl/inc/csl_usbAux.h"
    1099 0001a0 ED6D          MOV dbl(*AR3(#10)), XAR3
         0001a2 BF00 
         0001a4 0A   
    1100 0001a5 EB08          MOV XAR3, dbl(*SP(#4))
         0001a7 B5   
    1101                      .dwpsn  file "F:/eZDSP_5535_Files/ccsws2/test/c5535_bsl_revc/ezdsp5535_v1/c55xx_csl/inc/csl_usbAux.h"
    1102 0001a8 90B0          MOV XAR3, AC0
    1103 0001aa 6D00          BCC $C$L17,AC0 == #0 ; |1418| 
         0001ac 01A4 
    1104                                                      ; branchcc occurs ; |1418| 
    1105 0001ae A96D          MOV *AR3(#12), AR1 ; |1418| 
         0001b0 000C 
    1106 0001b2 6D19          BCC $C$L17,AR1 != #0 ; |1418| 
         0001b4 019C 
    1107                                                      ; branchcc occurs ; |1418| 
    1108                      .dwpsn  file "F:/eZDSP_5535_Files/ccsws2/test/c5535_bsl_revc/ezdsp5535_v1/c55xx_csl/inc/csl_usbAux.h"
    1109 0001b6 ED6D          MOV dbl(*AR3(#8)), AC0 ; |1421| 
         0001b8 0800 
         0001ba 08   
    1110 0001bb ED79          MOV dbl(*AR3(short(#4))), XAR3
         0001bd BF   
    1111 0001be 5001          SFTL AC0, #-1 ; |1421| 
    1112 0001c0 2209          MOV AC0, AR1 ; |1421| 
    1113              
    1114 0001c2 8E10          MOV XAR3, dbl(*SP(#8))
         0001c4 BB10 
         0001c6 B590 
    1115              ||      AADD AR1, AR3 ; |1421| 
    1116              
    1117                      .dwpsn  file "F:/eZDSP_5535_Files/ccsws2/test/c5535_bsl_revc/ezdsp5535_v1/c55xx_csl/inc/csl_usbAux.h"
    1118 0001c8 ED08          MOV dbl(*SP(#4)), XAR3
TMS320C55x Assembler PC v4.4.1 Mon Aug 15 03:55:17 2016

Tools Copyright (c) 1996-2012 Texas Instruments Incorporated
usb.asm                                                              PAGE   24

         0001ca BF   
    1119 0001cb ED6D          MOV dbl(*AR3(#8)), AC0 ; |1422| 
         0001cd 0800 
         0001cf 08   
    1120 0001d0 ED7D          SUB AC0, dbl(*AR3(short(#6))), AC0 ; |1422| 
         0001d2 04   
    1121 0001d3 EB14          MOV AC0, dbl(*SP(#10)) ; |1422| 
         0001d5 08   
    1122                      .dwpsn  file "F:/eZDSP_5535_Files/ccsws2/test/c5535_bsl_revc/ezdsp5535_v1/c55xx_csl/inc/csl_usbAux.h"
    1123 0001d6 ED04          MOV dbl(*SP(#2)), XAR3
         0001d8 BF   
    1124 0001d9 ED14          MOV dbl(*SP(#10)), AC1 ; |1430| 
         0001db 18   
    1125 0001dc ED79          MOV dbl(*AR3(short(#4))), AC0 ; |1430| 
         0001de 08   
    1126 0001df 1218          CMPU AC1 >= AC0, TC1 ; |1430| 
         0001e1 04   
    1127 0001e2 62E4          BCC $C$L6,TC1 ; |1430| 
    1128                                                      ; branchcc occurs ; |1430| 
    1129 0001e4 ED14          MOV dbl(*SP(#10)), AC0 ; |1430| 
         0001e6 08   
    1130 0001e7 4A03          B $C$L7   ; |1430| 
    1131                                                      ; branch occurs ; |1430| 
    1132 0001e9       $C$L6:    
    1133 0001e9 ED79          MOV dbl(*AR3(short(#4))), AC0 ; |1430| 
         0001eb 08   
    1134 0001ec       $C$L7:    
    1135 0001ec 7600          MOV #64, AR1 ; |1451| 
         0001ee 4098 
    1136              
    1137 0001f0 C018          MOV AC0, *SP(#12) ; |1430| 
    1138 0001f2 3D1A  ||      MOV #1, AR2
    1139              
    1140                      .dwpsn  file "F:/eZDSP_5535_Files/ccsws2/test/c5535_bsl_revc/ezdsp5535_v1/c55xx_csl/inc/csl_usbAux.h"
    1141 0001f4       $C$L8:    
    1142 0001f4       $C$DW$L$_USB_processEP0In$8$B:
    1143                      .dwpsn  file "F:/eZDSP_5535_Files/ccsws2/test/c5535_bsl_revc/ezdsp5535_v1/c55xx_csl/inc/csl_usbAux.h"
    1144 0001f4 E61A          MOV #0, *SP(#13) ; |1435| 
         0001f6 00   
    1145                      .dwpsn  file "F:/eZDSP_5535_Files/ccsws2/test/c5535_bsl_revc/ezdsp5535_v1/c55xx_csl/inc/csl_usbAux.h"
    1146 0001f7 AB18          MOV *SP(#12), AR3 ; |1435| 
    1147              
    1148 0001fb 51B1          SFTL AR3, #-1 ; |1435| 
    1149 0001f9 AC1A  ||      MOV *SP(#13), AR4 ; |1435| 
    1150              
    1151 0001fd 12C8          CMPU AR4 >= AR3, TC1 ; |1435| 
         0001ff B4   
    1152 000200 0464          BCC $C$L10,TC1 ; |1435| 
         000202 29   
    1153                                                      ; branchcc occurs ; |1435| 
    1154 000203       $C$DW$L$_USB_processEP0In$8$E:
    1155 000203       $C$L9:    
    1156 000203       $C$DW$L$_USB_processEP0In$9$B:
    1157                      .dwpsn  file "F:/eZDSP_5535_Files/ccsws2/test/c5535_bsl_revc/ezdsp5535_v1/c55xx_csl/inc/csl_usbAux.h"
    1158 000203 ED10          MOV dbl(*SP(#8)), XAR3
TMS320C55x Assembler PC v4.4.1 Mon Aug 15 03:55:17 2016

Tools Copyright (c) 1996-2012 Texas Instruments Incorporated
usb.asm                                                              PAGE   25

         000205 BF   
    1159 000206 7604          MOV #1057, T0 ; |1437| 
         000208 2148 
    1160 00020a AC61          MOV *AR3, AR4 ; |1437| 
    1161 00020c AB31          MOV *(#_usbRegisters), AR3 ; |1437| 
         00020e 0000 
         000210 00!  
    1162 000211 CC6B          MOV AR4, port(*AR3(T0)) ; |1437| 
         000213 9A   
    1163                      .dwpsn  file "F:/eZDSP_5535_Files/ccsws2/test/c5535_bsl_revc/ezdsp5535_v1/c55xx_csl/inc/csl_usbAux.h"
    1164 000214 ED10          MOV dbl(*SP(#8)), XAR3
         000216 BF   
    1165 000217 B463          AMAR *AR3+
    1166 000219 EB10          MOV XAR3, dbl(*SP(#8))
         00021b B5   
    1167                      .dwpsn  file "F:/eZDSP_5535_Files/ccsws2/test/c5535_bsl_revc/ezdsp5535_v1/c55xx_csl/inc/csl_usbAux.h"
    1168 00021c F71A          ADD #1, *SP(#13) ; |1435| 
         00021e 0001 
    1169                      .dwpsn  file "F:/eZDSP_5535_Files/ccsws2/test/c5535_bsl_revc/ezdsp5535_v1/c55xx_csl/inc/csl_usbAux.h"
    1170 000220 AB18          MOV *SP(#12), AR3 ; |1435| 
    1171              
    1172 000224 51B1          SFTL AR3, #-1 ; |1435| 
    1173 000222 AC1A  ||      MOV *SP(#13), AR4 ; |1435| 
    1174              
    1175 000226 12C4          CMPU AR4 < AR3, TC1 ; |1435| 
         000228 B4   
    1176 000229 0464          BCC $C$L9,TC1 ; |1435| 
         00022b D7   
    1177                                                      ; branchcc occurs ; |1435| 
    1178 00022c       $C$DW$L$_USB_processEP0In$9$E:
    1179 00022c       $C$L10:    
    1180 00022c       $C$DW$L$_USB_processEP0In$10$B:
    1181                      .dwpsn  file "F:/eZDSP_5535_Files/ccsws2/test/c5535_bsl_revc/ezdsp5535_v1/c55xx_csl/inc/csl_usbAux.h"
    1182 00022c AB18          MOV *SP(#12), AR3 ; |1441| 
    1183 00022e 1801          AND #0x0001, AR3, AR3 ; |1441| 
         000230 BB   
    1184 000231 12BC          CMPU AR3 != AR2, TC1 ; |1441| 
         000233 A4   
    1185 000234 0464          BCC $C$L11,TC1 ; |1441| 
         000236 44   
    1186                                                      ; branchcc occurs ; |1441| 
    1187 000237       $C$DW$L$_USB_processEP0In$10$E:
    1188 000237       $C$DW$L$_USB_processEP0In$11$B:
    1189                      .dwpsn  file "F:/eZDSP_5535_Files/ccsws2/test/c5535_bsl_revc/ezdsp5535_v1/c55xx_csl/inc/csl_usbAux.h"
    1190 000237 7600          MOV #50, T0 ; |1444| 
         000239 3248 
    1191 00023b AB31          MOV *(#_sysCtrlRegs), AR3 ; |1444| 
         00023d 0000 
         00023f 00!  
    1192 000240 AB6B          MOV port(*AR3(T0)), AR3 ; |1444| 
         000242 99   
    1193 000243 7DFF          AND #0xfffc, AR3, AC0 ; |1444| 
         000245 FC0B 
    1194 000247 AB31          MOV *(#_sysCtrlRegs), AR3 ; |1444| 
         000249 0000 
TMS320C55x Assembler PC v4.4.1 Mon Aug 15 03:55:17 2016

Tools Copyright (c) 1996-2012 Texas Instruments Incorporated
usb.asm                                                              PAGE   26

         00024b 00!  
    1195 00024c EC02          BSET @#1, AC0 ; |1444| 
         00024e 00   
    1196 00024f C06B          MOV AC0, port(*AR3(T0)) ; |1444| 
         000251 9A   
    1197                      .dwpsn  file "F:/eZDSP_5535_Files/ccsws2/test/c5535_bsl_revc/ezdsp5535_v1/c55xx_csl/inc/csl_usbAux.h"
    1198 000252 ED10          MOV dbl(*SP(#8)), XAR3
         000254 BF   
    1199 000255 7604          MOV #1057, T0 ; |1445| 
         000257 2148 
    1200 000259 AC61          MOV *AR3, AR4 ; |1445| 
    1201 00025b AB31          MOV *(#_usbRegisters), AR3 ; |1445| 
         00025d 0000 
         00025f 00!  
    1202 000260 CC6B          MOV AR4, port(*AR3(T0)) ; |1445| 
         000262 9A   
    1203                      .dwpsn  file "F:/eZDSP_5535_Files/ccsws2/test/c5535_bsl_revc/ezdsp5535_v1/c55xx_csl/inc/csl_usbAux.h"
    1204 000263 7600          MOV #50, T0 ; |1447| 
         000265 3248 
    1205 000267 AB31          MOV *(#_sysCtrlRegs), AR3 ; |1447| 
         000269 0000 
         00026b 00!  
    1206 00026c AB6B          MOV port(*AR3(T0)), AR3 ; |1447| 
         00026e 99   
    1207 00026f 7DFF          AND #0xfffc, AR3, AC0 ; |1447| 
         000271 FC0B 
    1208 000273 AB31          MOV *(#_sysCtrlRegs), AR3 ; |1447| 
         000275 0000 
         000277 00!  
    1209 000278 C06B          MOV AC0, port(*AR3(T0)) ; |1447| 
         00027a 9A   
    1210 00027b       $C$DW$L$_USB_processEP0In$11$E:
    1211 00027b       $C$L11:    
    1212 00027b       $C$DW$L$_USB_processEP0In$12$B:
    1213                      .dwpsn  file "F:/eZDSP_5535_Files/ccsws2/test/c5535_bsl_revc/ezdsp5535_v1/c55xx_csl/inc/csl_usbAux.h"
    1214 00027b AB18          MOV *SP(#12), AR3 ; |1451| 
    1215 00027d 1294          CMPU AR3 > AR1, TC1 ; |1451| 
         00027f B4   
    1216 000280 6164          BCC $C$L12,TC1 ; |1451| 
    1217                                                      ; branchcc occurs ; |1451| 
    1218 000282       $C$DW$L$_USB_processEP0In$12$E:
    1219                      .dwpsn  file "F:/eZDSP_5535_Files/ccsws2/test/c5535_bsl_revc/ezdsp5535_v1/c55xx_csl/inc/csl_usbAux.h"
    1220 000282 4A07          B $C$L13  ; |1453| 
    1221                                                      ; branch occurs ; |1453| 
    1222 000284       $C$L12:    
    1223 000284       $C$DW$L$_USB_processEP0In$15$B:
    1224                      .dwpsn  file "F:/eZDSP_5535_Files/ccsws2/test/c5535_bsl_revc/ezdsp5535_v1/c55xx_csl/inc/csl_usbAux.h"
    1225 000284 F718          SUB #64, *SP(#12) ; |1457| 
         000286 FFC0 
    1226                      .dwpsn  file "F:/eZDSP_5535_Files/ccsws2/test/c5535_bsl_revc/ezdsp5535_v1/c55xx_csl/inc/csl_usbAux.h"
    1227 000288 06FF          B $C$L8   ; |1432| 
         00028a 69   
    1228                                                      ; branch occurs ; |1432| 
    1229 00028b       $C$DW$L$_USB_processEP0In$15$E:
    1230 00028b       $C$L13:    
TMS320C55x Assembler PC v4.4.1 Mon Aug 15 03:55:17 2016

Tools Copyright (c) 1996-2012 Texas Instruments Incorporated
usb.asm                                                              PAGE   27

    1231                      .dwpsn  file "F:/eZDSP_5535_Files/ccsws2/test/c5535_bsl_revc/ezdsp5535_v1/c55xx_csl/inc/csl_usbAux.h"
    1232 00028b ED00          MOV dbl(*SP(#0)), XAR3
         00028d BF   
    1233 00028e E66D          MOV #0, *AR3(#90) ; |1461| 
         000290 0000 
         000292 5A   
    1234                      .dwpsn  file "F:/eZDSP_5535_Files/ccsws2/test/c5535_bsl_revc/ezdsp5535_v1/c55xx_csl/inc/csl_usbAux.h"
    1235 000293 ED08          MOV dbl(*SP(#4)), XAR3
         000295 BF   
    1236 000296 DF18          MOV uns(*SP(#12)), AC0 ; |1463| 
         000298 05   
    1237 000299 ED6D          ADD dbl(*AR3(#8)), AC0, AC0 ; |1463| 
         00029b 0000 
         00029d 08   
    1238 00029e EB6D          MOV AC0, dbl(*AR3(#8)) ; |1463| 
         0002a0 0800 
         0002a2 08   
    1239                      .dwpsn  file "F:/eZDSP_5535_Files/ccsws2/test/c5535_bsl_revc/ezdsp5535_v1/c55xx_csl/inc/csl_usbAux.h"
    1240 0002a3 ED08          MOV dbl(*SP(#4)), XAR3
         0002a5 BF   
    1241 0002a6 DF18          MOV uns(*SP(#12)), AC0 ; |1464| 
         0002a8 05   
    1242 0002a9 EB6D          MOV AC0, dbl(*AR3(#10)) ; |1464| 
         0002ab 0800 
         0002ad 0A   
    1243                      .dwpsn  file "F:/eZDSP_5535_Files/ccsws2/test/c5535_bsl_revc/ezdsp5535_v1/c55xx_csl/inc/csl_usbAux.h"
    1244 0002ae ED08          MOV dbl(*SP(#4)), XAR3
         0002b0 BF   
    1245 0002b1 ED6D          MOV dbl(*AR3(#8)), AC1 ; |1465| 
         0002b3 1800 
         0002b5 08   
    1246 0002b6 ED7D          MOV dbl(*AR3(short(#6))), AC0 ; |1465| 
         0002b8 08   
    1247 0002b9 121C          CMPU AC1 != AC0, TC1 ; |1465| 
         0002bb 04   
    1248 0002bc 62E4          BCC $C$L14,TC1 ; |1465| 
    1249                                                      ; branchcc occurs ; |1465| 
    1250                      .dwpsn  file "F:/eZDSP_5535_Files/ccsws2/test/c5535_bsl_revc/ezdsp5535_v1/c55xx_csl/inc/csl_usbAux.h"
    1251 0002be E66D          MOV #1, *AR3(#12) ; |1467| 
         0002c0 0100 
         0002c2 0C   
    1252 0002c3       $C$L14:    
    1253                      .dwpsn  file "F:/eZDSP_5535_Files/ccsws2/test/c5535_bsl_revc/ezdsp5535_v1/c55xx_csl/inc/csl_usbAux.h"
    1254 0002c3 7604          MOV #1038, T0 ; |1471| 
         0002c5 0E48 
    1255 0002c7 AB31          MOV *(#_usbRegisters), AR3 ; |1471| 
         0002c9 0000 
         0002cb 00!  
    1256 0002cc A96B          MOV port(*AR3(T0)), AR1 ; |1471| 
         0002ce 99   
    1257 0002cf C91E          MOV AR1, *SP(#15) ; |1471| 
    1258                      .dwpsn  file "F:/eZDSP_5535_Files/ccsws2/test/c5535_bsl_revc/ezdsp5535_v1/c55xx_csl/inc/csl_usbAux.h"
    1259 0002d1 A96B          MOV port(*AR3(T0)), AR1 ; |1474| 
         0002d3 99   
    1260 0002d4 7DFF          AND #0xfff0, AR1, AC0 ; |1474| 
TMS320C55x Assembler PC v4.4.1 Mon Aug 15 03:55:17 2016

Tools Copyright (c) 1996-2012 Texas Instruments Incorporated
usb.asm                                                              PAGE   28

         0002d6 F009 
    1261 0002d8 C06B          MOV AC0, port(*AR3(T0)) ; |1474| 
         0002da 9A   
    1262                      .dwpsn  file "F:/eZDSP_5535_Files/ccsws2/test/c5535_bsl_revc/ezdsp5535_v1/c55xx_csl/inc/csl_usbAux.h"
    1263 0002db AB31          MOV *(#_usbRegisters), AR3 ; |1479| 
         0002dd 0000 
         0002df 00!  
    1264 0002e0 A96B          MOV port(*AR3(T0)), AR1 ; |1479| 
         0002e2 99   
    1265 0002e3 7DFF          AND #0xfff0, AR1, AC0 ; |1479| 
         0002e5 F009 
    1266 0002e7 C06B          MOV AC0, port(*AR3(T0)) ; |1479| 
         0002e9 9A   
    1267                      .dwpsn  file "F:/eZDSP_5535_Files/ccsws2/test/c5535_bsl_revc/ezdsp5535_v1/c55xx_csl/inc/csl_usbAux.h"
    1268 0002ea ED08          MOV dbl(*SP(#4)), XAR3
         0002ec BF   
    1269 0002ed F06D          CMP *AR3(#12) == #1, TC1 ; |1483| 
         0002ef 0001 
         0002f1 000C 
    1270 0002f3 0474          BCC $C$L15,!TC1 ; |1483| 
         0002f5 37   
    1271                                                      ; branchcc occurs ; |1483| 
    1272                      .dwpsn  file "F:/eZDSP_5535_Files/ccsws2/test/c5535_bsl_revc/ezdsp5535_v1/c55xx_csl/inc/csl_usbAux.h"
    1273 0002f6 ED00          MOV dbl(*SP(#0)), XAR3
         0002f8 BF   
    1274 0002f9 E67F          MOV #0, *AR3(short(#7)) ; |1485| 
         0002fb 00   
    1275                      .dwpsn  file "F:/eZDSP_5535_Files/ccsws2/test/c5535_bsl_revc/ezdsp5535_v1/c55xx_csl/inc/csl_usbAux.h"
    1276 0002fc E61C          MOV #10, *SP(#14) ; |1488| 
         0002fe 0A   
    1277                      .dwpsn  file "F:/eZDSP_5535_Files/ccsws2/test/c5535_bsl_revc/ezdsp5535_v1/c55xx_csl/inc/csl_usbAux.h"
    1278 0002ff ED00          MOV dbl(*SP(#0)), XAR3
         000301 BF   
    1279 000302 E66D          MOV #0, *AR3(#101) ; |1491| 
         000304 0000 
         000306 65   
    1280                      .dwpsn  file "F:/eZDSP_5535_Files/ccsws2/test/c5535_bsl_revc/ezdsp5535_v1/c55xx_csl/inc/csl_usbAux.h"
    1281 000307 7604          MOV #1042, T0 ; |1493| 
         000309 1248 
    1282 00030b AB31          MOV *(#_usbRegisters), AR3 ; |1493| 
         00030d 0000 
         00030f 00!  
    1283 000310 A91C          MOV *SP(#14), AR1 ; |1493| 
    1284 000312 DA6B          OR port(*AR3(T0)), AR1, AR1 ; |1493| 
         000314 99   
         000315 99   
    1285 000316 C96B          MOV AR1, port(*AR3(T0)) ; |1493| 
         000318 9A   
    1286                      .dwpsn  file "F:/eZDSP_5535_Files/ccsws2/test/c5535_bsl_revc/ezdsp5535_v1/c55xx_csl/inc/csl_usbAux.h"
    1287 000319 ED00          MOV dbl(*SP(#0)), XAR3
         00031b BF   
    1288 00031c ED00          MOV dbl(*SP(#0)), XAR0
         00031e 8F   
    1289 00031f ED04          MOV dbl(*SP(#2)), XAR1
         000321 9F   
TMS320C55x Assembler PC v4.4.1 Mon Aug 15 03:55:17 2016

Tools Copyright (c) 1996-2012 Texas Instruments Incorporated
usb.asm                                                              PAGE   29

    1290 000322 ED6D          MOV dbl(*AR3(#116)), AC0 ; |1495| 
         000324 0800 
         000326 74   
    1291              $C$DW$135       .dwtag  DW_TAG_TI_branch
    1292                      .dwattr $C$DW$135, DW_AT_low_pc(0x00)
    1293                      .dwattr $C$DW$135, DW_AT_TI_call
    1294                      .dwattr $C$DW$135, DW_AT_TI_indirect
    1295 000327 9200          CALL AC0  ; |1495| 
    1296                                                      ; call occurs [AC0] ; |1495| 
    1297 000329 C40C          MOV T0, *SP(#6) ; |1495| 
    1298                      .dwpsn  file "F:/eZDSP_5535_Files/ccsws2/test/c5535_bsl_revc/ezdsp5535_v1/c55xx_csl/inc/csl_usbAux.h"
    1299 00032b 4A15          B $C$L16  ; |1496| 
    1300                                                      ; branch occurs ; |1496| 
    1301 00032d       $C$L15:    
    1302                      .dwpsn  file "F:/eZDSP_5535_Files/ccsws2/test/c5535_bsl_revc/ezdsp5535_v1/c55xx_csl/inc/csl_usbAux.h"
    1303 00032d E61C          MOV #2, *SP(#14) ; |1500| 
         00032f 02   
    1304                      .dwpsn  file "F:/eZDSP_5535_Files/ccsws2/test/c5535_bsl_revc/ezdsp5535_v1/c55xx_csl/inc/csl_usbAux.h"
    1305 000330 7604          MOV #1042, T0 ; |1503| 
         000332 1248 
    1306 000334 AB31          MOV *(#_usbRegisters), AR3 ; |1503| 
         000336 0000 
         000338 00!  
    1307 000339 A91C          MOV *SP(#14), AR1 ; |1503| 
    1308 00033b DA6B          OR port(*AR3(T0)), AR1, AR1 ; |1503| 
         00033d 99   
         00033e 99   
    1309 00033f C96B          MOV AR1, port(*AR3(T0)) ; |1503| 
         000341 9A   
    1310 000342       $C$L16:    
    1311                      .dwpsn  file "F:/eZDSP_5535_Files/ccsws2/test/c5535_bsl_revc/ezdsp5535_v1/c55xx_csl/inc/csl_usbAux.h"
    1312 000342 AB31          MOV *(#_usbRegisters), AR3 ; |1507| 
         000344 0000 
         000346 00!  
    1313 000347 7604          MOV #1038, T0 ; |1507| 
         000349 0E48 
    1314 00034b A91E          MOV *SP(#15), AR1 ; |1507| 
    1315 00034d C96B          MOV AR1, port(*AR3(T0)) ; |1507| 
         00034f 9A   
    1316                      .dwpsn  file "F:/eZDSP_5535_Files/ccsws2/test/c5535_bsl_revc/ezdsp5535_v1/c55xx_csl/inc/csl_usbAux.h"
    1317 000350 4A08          B $C$L19  ; |1508| 
    1318                                                      ; branch occurs ; |1508| 
    1319 000352       $C$L17:    
    1320                      .dwpsn  file "F:/eZDSP_5535_Files/ccsws2/test/c5535_bsl_revc/ezdsp5535_v1/c55xx_csl/inc/csl_usbAux.h"
    1321 000352 E60C          MOV #-6, *SP(#6) ; |1511| 
         000354 FA   
    1322                      .dwpsn  file "F:/eZDSP_5535_Files/ccsws2/test/c5535_bsl_revc/ezdsp5535_v1/c55xx_csl/inc/csl_usbAux.h"
    1323 000355 4A03          B $C$L19  ; |1513| 
    1324                                                      ; branch occurs ; |1513| 
    1325 000357       $C$L18:    
    1326                      .dwpsn  file "F:/eZDSP_5535_Files/ccsws2/test/c5535_bsl_revc/ezdsp5535_v1/c55xx_csl/inc/csl_usbAux.h"
    1327 000357 E60C          MOV #-6, *SP(#6) ; |1516| 
         000359 FA   
    1328 00035a       $C$L19:    
    1329                      .dwpsn  file "F:/eZDSP_5535_Files/ccsws2/test/c5535_bsl_revc/ezdsp5535_v1/c55xx_csl/inc/csl_usbAux.h"
TMS320C55x Assembler PC v4.4.1 Mon Aug 15 03:55:17 2016

Tools Copyright (c) 1996-2012 Texas Instruments Incorporated
usb.asm                                                              PAGE   30

    1330 00035a A40C          MOV *SP(#6), T0 ; |1519| 
    1331                      .dwpsn  file "F:/eZDSP_5535_Files/ccsws2/test/c5535_bsl_revc/ezdsp5535_v1/c55xx_csl/inc/csl_usbAux.h"
    1332 00035c 4E11          AADD #17, SP
    1333                      .dwcfi  cfa_offset, 1
    1334              $C$DW$136       .dwtag  DW_TAG_TI_branch
    1335                      .dwattr $C$DW$136, DW_AT_low_pc(0x00)
    1336                      .dwattr $C$DW$136, DW_AT_TI_return
    1337 00035e 4804          RET
    1338                                                      ; return occurs
    1339              
    1340              $C$DW$137       .dwtag  DW_TAG_TI_loop
    1341                      .dwattr $C$DW$137, DW_AT_name("F:\eZDSP_5535_Files\ccsws2\test\Debug\usb.asm:$C$L8:1:1471258514")
    1342                      .dwattr $C$DW$137, DW_AT_TI_begin_file("F:/eZDSP_5535_Files/ccsws2/test/c5535_bsl_revc/ezdsp5535_v1/c
    1343                      .dwattr $C$DW$137, DW_AT_TI_begin_line(0x598)
    1344                      .dwattr $C$DW$137, DW_AT_TI_end_line(0x5b3)
    1345              $C$DW$138       .dwtag  DW_TAG_TI_loop_range
    1346                      .dwattr $C$DW$138, DW_AT_low_pc($C$DW$L$_USB_processEP0In$8$B)
    1347                      .dwattr $C$DW$138, DW_AT_high_pc($C$DW$L$_USB_processEP0In$8$E)
    1348              $C$DW$139       .dwtag  DW_TAG_TI_loop_range
    1349                      .dwattr $C$DW$139, DW_AT_low_pc($C$DW$L$_USB_processEP0In$10$B)
    1350                      .dwattr $C$DW$139, DW_AT_high_pc($C$DW$L$_USB_processEP0In$10$E)
    1351              $C$DW$140       .dwtag  DW_TAG_TI_loop_range
    1352                      .dwattr $C$DW$140, DW_AT_low_pc($C$DW$L$_USB_processEP0In$11$B)
    1353                      .dwattr $C$DW$140, DW_AT_high_pc($C$DW$L$_USB_processEP0In$11$E)
    1354              $C$DW$141       .dwtag  DW_TAG_TI_loop_range
    1355                      .dwattr $C$DW$141, DW_AT_low_pc($C$DW$L$_USB_processEP0In$12$B)
    1356                      .dwattr $C$DW$141, DW_AT_high_pc($C$DW$L$_USB_processEP0In$12$E)
    1357              $C$DW$142       .dwtag  DW_TAG_TI_loop_range
    1358                      .dwattr $C$DW$142, DW_AT_low_pc($C$DW$L$_USB_processEP0In$15$B)
    1359                      .dwattr $C$DW$142, DW_AT_high_pc($C$DW$L$_USB_processEP0In$15$E)
    1360              
    1361              $C$DW$143       .dwtag  DW_TAG_TI_loop
    1362                      .dwattr $C$DW$143, DW_AT_name("F:\eZDSP_5535_Files\ccsws2\test\Debug\usb.asm:$C$L9:2:1471258514")
    1363                      .dwattr $C$DW$143, DW_AT_TI_begin_file("F:/eZDSP_5535_Files/ccsws2/test/c5535_bsl_revc/ezdsp5535_v1/c
    1364                      .dwattr $C$DW$143, DW_AT_TI_begin_line(0x59b)
    1365                      .dwattr $C$DW$143, DW_AT_TI_end_line(0x59f)
    1366              $C$DW$144       .dwtag  DW_TAG_TI_loop_range
    1367                      .dwattr $C$DW$144, DW_AT_low_pc($C$DW$L$_USB_processEP0In$9$B)
    1368                      .dwattr $C$DW$144, DW_AT_high_pc($C$DW$L$_USB_processEP0In$9$E)
    1369                      .dwendtag $C$DW$143
    1370              
    1371                      .dwendtag $C$DW$137
    1372              
    1373                      .dwattr $C$DW$123, DW_AT_TI_end_file("F:/eZDSP_5535_Files/ccsws2/test/c5535_bsl_revc/ezdsp5535_v1/c55
    1374                      .dwattr $C$DW$123, DW_AT_TI_end_line(0x5f0)
    1375                      .dwattr $C$DW$123, DW_AT_TI_end_column(0x01)
    1376                      .dwendentry
    1377                      .dwendtag $C$DW$123
    1378              
    1379 000360               .sect   ".text"
    1380                      .align 4
    1381              
    1382              $C$DW$145       .dwtag  DW_TAG_subprogram, DW_AT_name("USB_handleTx")
    1383                      .dwattr $C$DW$145, DW_AT_low_pc(_USB_handleTx)
    1384                      .dwattr $C$DW$145, DW_AT_high_pc(0x00)
TMS320C55x Assembler PC v4.4.1 Mon Aug 15 03:55:17 2016

Tools Copyright (c) 1996-2012 Texas Instruments Incorporated
usb.asm                                                              PAGE   31

    1385                      .dwattr $C$DW$145, DW_AT_TI_symbol_name("_USB_handleTx")
    1386                      .dwattr $C$DW$145, DW_AT_type(*$C$DW$T$80)
    1387                      .dwattr $C$DW$145, DW_AT_TI_begin_file("F:/eZDSP_5535_Files/ccsws2/test/c5535_bsl_revc/ezdsp5535_v1/c
    1388                      .dwattr $C$DW$145, DW_AT_TI_begin_line(0x371)
    1389                      .dwattr $C$DW$145, DW_AT_TI_begin_column(0x0c)
    1390                      .dwattr $C$DW$145, DW_AT_TI_max_frame_size(0x16)
    1391                      .dwpsn  file "F:/eZDSP_5535_Files/ccsws2/test/c5535_bsl_revc/ezdsp5535_v1/c55xx_csl/inc/csl_usbAux.h"
    1392              
    1393                      .dwfde $C$DW$CIE, _USB_handleTx
    1394              $C$DW$146       .dwtag  DW_TAG_formal_parameter, DW_AT_name("pContext")
    1395                      .dwattr $C$DW$146, DW_AT_TI_symbol_name("_pContext")
    1396                      .dwattr $C$DW$146, DW_AT_type(*$C$DW$T$146)
    1397                      .dwattr $C$DW$146, DW_AT_location[DW_OP_reg17]
    1398              $C$DW$147       .dwtag  DW_TAG_formal_parameter, DW_AT_name("dwEndpoint")
    1399                      .dwattr $C$DW$147, DW_AT_TI_symbol_name("_dwEndpoint")
    1400                      .dwattr $C$DW$147, DW_AT_type(*$C$DW$T$88)
    1401                      .dwattr $C$DW$147, DW_AT_location[DW_OP_reg0]
    1402              ;*******************************************************************************
    1403              ;* FUNCTION NAME: USB_handleTx                                                 *
    1404              ;*                                                                             *
    1405              ;*   Function Uses Regs : AC0,AC0,AC1,AC1,T0,AR0,XAR0,AR1,XAR1,AR3,XAR3,SP,    *
    1406              ;*                        CARRY,TC1,M40,SATA,SATD,RDM,FRCT,SMUL                *
    1407              ;*   Stack Frame        : Compact (No Frame Pointer, w/ debug)                 *
    1408              ;*   Total Frame Size   : 22 words                                             *
    1409              ;*                        (1 return address/alignment)                         *
    1410              ;*                        (21 local values)                                    *
    1411              ;*   Min System Stack   : 1 word                                               *
    1412              ;*******************************************************************************
    1413 000360       _USB_handleTx:
    1414                      .dwcfi  cfa_offset, 1
    1415                      .dwcfi  save_reg_to_mem, 91, -1
    1416 000360 4EEB          AADD #-21, SP
    1417                      .dwcfi  cfa_offset, 22
    1418              $C$DW$148       .dwtag  DW_TAG_variable, DW_AT_name("pContext")
    1419                      .dwattr $C$DW$148, DW_AT_TI_symbol_name("_pContext")
    1420                      .dwattr $C$DW$148, DW_AT_type(*$C$DW$T$146)
    1421                      .dwattr $C$DW$148, DW_AT_location[DW_OP_bregx 0x24 0]
    1422              $C$DW$149       .dwtag  DW_TAG_variable, DW_AT_name("dwEndpoint")
    1423                      .dwattr $C$DW$149, DW_AT_TI_symbol_name("_dwEndpoint")
    1424                      .dwattr $C$DW$149, DW_AT_type(*$C$DW$T$88)
    1425                      .dwattr $C$DW$149, DW_AT_location[DW_OP_bregx 0x24 2]
    1426              $C$DW$150       .dwtag  DW_TAG_variable, DW_AT_name("cbToWrite")
    1427                      .dwattr $C$DW$150, DW_AT_TI_symbol_name("_cbToWrite")
    1428                      .dwattr $C$DW$150, DW_AT_type(*$C$DW$T$88)
    1429                      .dwattr $C$DW$150, DW_AT_location[DW_OP_bregx 0x24 4]
    1430              $C$DW$151       .dwtag  DW_TAG_variable, DW_AT_name("pwBuffer")
    1431                      .dwattr $C$DW$151, DW_AT_TI_symbol_name("_pwBuffer")
    1432                      .dwattr $C$DW$151, DW_AT_type(*$C$DW$T$87)
    1433                      .dwattr $C$DW$151, DW_AT_location[DW_OP_bregx 0x24 6]
    1434              $C$DW$152       .dwtag  DW_TAG_variable, DW_AT_name("cbBuffer")
    1435                      .dwattr $C$DW$152, DW_AT_TI_symbol_name("_cbBuffer")
    1436                      .dwattr $C$DW$152, DW_AT_type(*$C$DW$T$88)
    1437                      .dwattr $C$DW$152, DW_AT_location[DW_OP_bregx 0x24 8]
    1438              $C$DW$153       .dwtag  DW_TAG_variable, DW_AT_name("cbWritten")
    1439                      .dwattr $C$DW$153, DW_AT_TI_symbol_name("_cbWritten")
TMS320C55x Assembler PC v4.4.1 Mon Aug 15 03:55:17 2016

Tools Copyright (c) 1996-2012 Texas Instruments Incorporated
usb.asm                                                              PAGE   32

    1440                      .dwattr $C$DW$153, DW_AT_type(*$C$DW$T$88)
    1441                      .dwattr $C$DW$153, DW_AT_location[DW_OP_bregx 0x24 10]
    1442              $C$DW$154       .dwtag  DW_TAG_variable, DW_AT_name("count")
    1443                      .dwattr $C$DW$154, DW_AT_TI_symbol_name("_count")
    1444                      .dwattr $C$DW$154, DW_AT_type(*$C$DW$T$19)
    1445                      .dwattr $C$DW$154, DW_AT_location[DW_OP_bregx 0x24 12]
    1446              $C$DW$155       .dwtag  DW_TAG_variable, DW_AT_name("saveIndex")
    1447                      .dwattr $C$DW$155, DW_AT_TI_symbol_name("_saveIndex")
    1448                      .dwattr $C$DW$155, DW_AT_type(*$C$DW$T$19)
    1449                      .dwattr $C$DW$155, DW_AT_location[DW_OP_bregx 0x24 13]
    1450              $C$DW$156       .dwtag  DW_TAG_variable, DW_AT_name("status")
    1451                      .dwattr $C$DW$156, DW_AT_TI_symbol_name("_status")
    1452                      .dwattr $C$DW$156, DW_AT_type(*$C$DW$T$80)
    1453                      .dwattr $C$DW$156, DW_AT_location[DW_OP_bregx 0x24 14]
    1454              $C$DW$157       .dwtag  DW_TAG_variable, DW_AT_name("peps")
    1455                      .dwattr $C$DW$157, DW_AT_TI_symbol_name("_peps")
    1456                      .dwattr $C$DW$157, DW_AT_type(*$C$DW$T$150)
    1457                      .dwattr $C$DW$157, DW_AT_location[DW_OP_bregx 0x24 16]
    1458              $C$DW$158       .dwtag  DW_TAG_variable, DW_AT_name("pTransfer")
    1459                      .dwattr $C$DW$158, DW_AT_TI_symbol_name("_pTransfer")
    1460                      .dwattr $C$DW$158, DW_AT_type(*$C$DW$T$152)
    1461                      .dwattr $C$DW$158, DW_AT_location[DW_OP_bregx 0x24 18]
    1462              $C$DW$159       .dwtag  DW_TAG_variable, DW_AT_name("pFifoAddr")
    1463                      .dwattr $C$DW$159, DW_AT_TI_symbol_name("_pFifoAddr")
    1464                      .dwattr $C$DW$159, DW_AT_type(*$C$DW$T$194)
    1465                      .dwattr $C$DW$159, DW_AT_location[DW_OP_bregx 0x24 20]
    1466 000362 EB04          MOV AC0, dbl(*SP(#2)) ; |883| 
         000364 08   
    1467 000365 EB00          MOV XAR0, dbl(*SP(#0))
         000367 85   
    1468                      .dwpsn  file "F:/eZDSP_5535_Files/ccsws2/test/c5535_bsl_revc/ezdsp5535_v1/c55xx_csl/inc/csl_usbAux.h"
    1469 000368 E61C          MOV #0, *SP(#14) ; |896| 
         00036a 00   
    1470                      .dwpsn  file "F:/eZDSP_5535_Files/ccsws2/test/c5535_bsl_revc/ezdsp5535_v1/c55xx_csl/inc/csl_usbAux.h"
    1471 00036b E618          MOV #0, *SP(#12) ; |897| 
         00036d 00   
    1472                      .dwpsn  file "F:/eZDSP_5535_Files/ccsws2/test/c5535_bsl_revc/ezdsp5535_v1/c55xx_csl/inc/csl_usbAux.h"
    1473 00036e E61A          MOV #0, *SP(#13) ; |898| 
         000370 00   
    1474                      .dwpsn  file "F:/eZDSP_5535_Files/ccsws2/test/c5535_bsl_revc/ezdsp5535_v1/c55xx_csl/inc/csl_usbAux.h"
    1475 000371 3C00          MOV #0, AC0 ; |899| 
    1476 000373 EB14          MOV AC0, dbl(*SP(#10)) ; |899| 
         000375 08   
    1477                      .dwpsn  file "F:/eZDSP_5535_Files/ccsws2/test/c5535_bsl_revc/ezdsp5535_v1/c55xx_csl/inc/csl_usbAux.h"
    1478 000376 ED00          MOV dbl(*SP(#0)), XAR3
         000378 BF   
    1479 000379 90B0          MOV XAR3, AC0
    1480 00037b 6D00          BCC $C$L34,AC0 == #0 ; |901| 
         00037d 0258 
    1481                                                      ; branchcc occurs ; |901| 
    1482                      .dwpsn  file "F:/eZDSP_5535_Files/ccsws2/test/c5535_bsl_revc/ezdsp5535_v1/c55xx_csl/inc/csl_usbAux.h"
    1483 00037f ED6D          MOV dbl(*AR3(#98)), XAR3
         000381 BF00 
         000383 62   
    1484 000384 F806          MPYMK *SP(#3), #18, AC0 ; |903| 
TMS320C55x Assembler PC v4.4.1 Mon Aug 15 03:55:17 2016

Tools Copyright (c) 1996-2012 Texas Instruments Incorporated
usb.asm                                                              PAGE   33

         000386 1200 
    1485 000388 2209          MOV AC0, AR1 ; |903| 
    1486              
    1487 00038a 8E20          MOV XAR3, dbl(*SP(#16))
         00038c BB10 
         00038e B590 
    1488              ||      AADD AR1, AR3 ; |903| 
    1489              
    1490                      .dwpsn  file "F:/eZDSP_5535_Files/ccsws2/test/c5535_bsl_revc/ezdsp5535_v1/c55xx_csl/inc/csl_usbAux.h"
    1491 000390 ED6D          MOV dbl(*AR3(#10)), XAR3
         000392 BF00 
         000394 0A   
    1492 000395 EB24          MOV XAR3, dbl(*SP(#18))
         000397 B5   
    1493                      .dwpsn  file "F:/eZDSP_5535_Files/ccsws2/test/c5535_bsl_revc/ezdsp5535_v1/c55xx_csl/inc/csl_usbAux.h"
    1494 000398 90B0          MOV XAR3, AC0
    1495 00039a 6D00          BCC $C$L33,AC0 == #0 ; |906| 
         00039c 0234 
    1496                                                      ; branchcc occurs ; |906| 
    1497 00039e A96D          MOV *AR3(#12), AR1 ; |906| 
         0003a0 000C 
    1498 0003a2 6D19          BCC $C$L33,AR1 != #0 ; |906| 
         0003a4 022C 
    1499                                                      ; branchcc occurs ; |906| 
    1500                      .dwpsn  file "F:/eZDSP_5535_Files/ccsws2/test/c5535_bsl_revc/ezdsp5535_v1/c55xx_csl/inc/csl_usbAux.h"
    1501 0003a6 ED6D          MOV dbl(*AR3(#8)), AC0 ; |908| 
         0003a8 0800 
         0003aa 08   
    1502 0003ab ED79          MOV dbl(*AR3(short(#4))), XAR3
         0003ad BF   
    1503 0003ae 5001          SFTL AC0, #-1 ; |908| 
    1504 0003b0 2209          MOV AC0, AR1 ; |908| 
    1505              
    1506 0003b2 8E0C          MOV XAR3, dbl(*SP(#6))
         0003b4 BB10 
         0003b6 B590 
    1507              ||      AADD AR1, AR3 ; |908| 
    1508              
    1509                      .dwpsn  file "F:/eZDSP_5535_Files/ccsws2/test/c5535_bsl_revc/ezdsp5535_v1/c55xx_csl/inc/csl_usbAux.h"
    1510 0003b8 ED24          MOV dbl(*SP(#18)), XAR3
         0003ba BF   
    1511 0003bb ED6D          MOV dbl(*AR3(#8)), AC0 ; |909| 
         0003bd 0800 
         0003bf 08   
    1512 0003c0 ED7D          SUB AC0, dbl(*AR3(short(#6))), AC0 ; |909| 
         0003c2 04   
    1513 0003c3 EB10          MOV AC0, dbl(*SP(#8)) ; |909| 
         0003c5 08   
    1514                      .dwpsn  file "F:/eZDSP_5535_Files/ccsws2/test/c5535_bsl_revc/ezdsp5535_v1/c55xx_csl/inc/csl_usbAux.h"
    1515 0003c6 ED20          MOV dbl(*SP(#16)), XAR3
         0003c8 BF   
    1516 0003c9 A96D          MOV *AR3(#9), AR1 ; |910| 
         0003cb 0009 
    1517 0003cd C928          MOV AR1, *SP(#20) ; |910| 
    1518                      .dwpsn  file "F:/eZDSP_5535_Files/ccsws2/test/c5535_bsl_revc/ezdsp5535_v1/c55xx_csl/inc/csl_usbAux.h"
TMS320C55x Assembler PC v4.4.1 Mon Aug 15 03:55:17 2016

Tools Copyright (c) 1996-2012 Texas Instruments Incorporated
usb.asm                                                              PAGE   34

    1519 0003cf ED20          MOV dbl(*SP(#16)), XAR3
         0003d1 BF   
    1520 0003d2 ED10          MOV dbl(*SP(#8)), AC1 ; |913| 
         0003d4 18   
    1521 0003d5 ED79          MOV dbl(*AR3(short(#4))), AC0 ; |913| 
         0003d7 08   
    1522 0003d8 1218          CMPU AC1 >= AC0, TC1 ; |913| 
         0003da 04   
    1523 0003db 62E4          BCC $C$L20,TC1 ; |913| 
    1524                                                      ; branchcc occurs ; |913| 
    1525 0003dd ED10          MOV dbl(*SP(#8)), AC0 ; |913| 
         0003df 08   
    1526 0003e0 4A03          B $C$L21  ; |913| 
    1527                                                      ; branch occurs ; |913| 
    1528 0003e2       $C$L20:    
    1529 0003e2 ED79          MOV dbl(*AR3(short(#4))), AC0 ; |913| 
         0003e4 08   
    1530 0003e5       $C$L21:    
    1531 0003e5 EB08          MOV AC0, dbl(*SP(#4)) ; |913| 
         0003e7 08   
    1532                      .dwpsn  file "F:/eZDSP_5535_Files/ccsws2/test/c5535_bsl_revc/ezdsp5535_v1/c55xx_csl/inc/csl_usbAux.h"
    1533 0003e8 ED24          MOV dbl(*SP(#18)), XAR3
         0003ea BF   
    1534 0003eb F06D          CMP *AR3(#13) == #32, TC1 ; |916| 
         0003ed 0020 
         0003ef 000D 
    1535 0003f1 6474          BCC $C$L22,!TC1 ; |916| 
    1536                                                      ; branchcc occurs ; |916| 
    1537                      .dwpsn  file "F:/eZDSP_5535_Files/ccsws2/test/c5535_bsl_revc/ezdsp5535_v1/c55xx_csl/inc/csl_usbAux.h"
    1538 0003f3 E66D          MOV #1, *AR3(#12) ; |918| 
         0003f5 0100 
         0003f7 0C   
    1539                      .dwpsn  file "F:/eZDSP_5535_Files/ccsws2/test/c5535_bsl_revc/ezdsp5535_v1/c55xx_csl/inc/csl_usbAux.h"
    1540 0003f8 0601          B $C$L32  ; |919| 
         0003fa B3   
    1541                                                      ; branch occurs ; |919| 
    1542 0003fb       $C$L22:    
    1543                      .dwpsn  file "F:/eZDSP_5535_Files/ccsws2/test/c5535_bsl_revc/ezdsp5535_v1/c55xx_csl/inc/csl_usbAux.h"
    1544 0003fb ED20          MOV dbl(*SP(#16)), XAR3
         0003fd BF   
    1545 0003fe F06D          CMP *AR3(#16) == #1, TC1 ; |922| 
         000400 0001 
         000402 0010 
    1546 000404 6D64          BCC $C$L32,TC1 ; |922| 
         000406 01A6 
    1547                                                      ; branchcc occurs ; |922| 
    1548                      .dwpsn  file "F:/eZDSP_5535_Files/ccsws2/test/c5535_bsl_revc/ezdsp5535_v1/c55xx_csl/inc/csl_usbAux.h"
    1549 000408 7602          MOV #512, AC0 ; |925| 
         00040a 0008 
    1550 00040c ED08          MOV dbl(*SP(#4)), AC1 ; |925| 
         00040e 18   
    1551 00040f 1210          CMPU AC1 == AC0, TC1 ; |925| 
         000411 04   
    1552 000412 66E4          BCC $C$L23,TC1 ; |925| 
    1553                                                      ; branchcc occurs ; |925| 
TMS320C55x Assembler PC v4.4.1 Mon Aug 15 03:55:17 2016

Tools Copyright (c) 1996-2012 Texas Instruments Incorporated
usb.asm                                                              PAGE   35

    1554 000414 7600          MOV #64, AC0 ; |925| 
         000416 4008 
    1555 000418 ED08          MOV dbl(*SP(#4)), AC1 ; |925| 
         00041a 18   
    1556 00041b 121C          CMPU AC1 != AC0, TC1 ; |925| 
         00041d 04   
    1557 00041e 0464          BCC $C$L26,TC1 ; |925| 
         000420 5E   
    1558                                                      ; branchcc occurs ; |925| 
    1559 000421       $C$L23:    
    1560 000421 ED00          MOV dbl(*SP(#0)), XAR3
         000423 BF   
    1561 000424 F061          CMP *AR3 == #1, TC1 ; |925| 
         000426 0001 
    1562 000428 63E4          BCC $C$L24,TC1 ; |925| 
    1563                                                      ; branchcc occurs ; |925| 
    1564 00042a F061          CMP *AR3 == #2, TC1 ; |925| 
         00042c 0002 
    1565 00042e 0474          BCC $C$L26,!TC1 ; |925| 
         000430 4E   
    1566                                                      ; branchcc occurs ; |925| 
    1567 000431       $C$L24:    
    1568                      .dwpsn  file "F:/eZDSP_5535_Files/ccsws2/test/c5535_bsl_revc/ezdsp5535_v1/c55xx_csl/inc/csl_usbAux.h"
    1569 000431 ED24          MOV dbl(*SP(#18)), XAR3
         000433 BF   
    1570 000434 ED08          MOV dbl(*SP(#4)), AC0 ; |929| 
         000436 08   
    1571 000437 ED6D          ADD dbl(*AR3(#8)), AC0, AC0 ; |929| 
         000439 0000 
         00043b 08   
    1572 00043c EB6D          MOV AC0, dbl(*AR3(#8)) ; |929| 
         00043e 0800 
         000440 08   
    1573                      .dwpsn  file "F:/eZDSP_5535_Files/ccsws2/test/c5535_bsl_revc/ezdsp5535_v1/c55xx_csl/inc/csl_usbAux.h"
    1574 000441 ED24          MOV dbl(*SP(#18)), XAR3
         000443 BF   
    1575 000444 ED08          MOV dbl(*SP(#4)), AC0 ; |930| 
         000446 08   
    1576 000447 EB6D          MOV AC0, dbl(*AR3(#10)) ; |930| 
         000449 0800 
         00044b 0A   
    1577                      .dwpsn  file "F:/eZDSP_5535_Files/ccsws2/test/c5535_bsl_revc/ezdsp5535_v1/c55xx_csl/inc/csl_usbAux.h"
    1578 00044c ED04          MOV dbl(*SP(#2)), AC0 ; |932| 
         00044e 08   
    1579              $C$DW$160       .dwtag  DW_TAG_TI_branch
    1580                      .dwattr $C$DW$160, DW_AT_low_pc(0x00)
    1581                      .dwattr $C$DW$160, DW_AT_name("_USB_dmaTxStart")
    1582                      .dwattr $C$DW$160, DW_AT_TI_call
    1583 00044f 08FC          CALL #_USB_dmaTxStart ; |932| 
         000451 02   
    1584                                                      ; call occurs [#_USB_dmaTxStart] ; |932| 
    1585                      .dwpsn  file "F:/eZDSP_5535_Files/ccsws2/test/c5535_bsl_revc/ezdsp5535_v1/c55xx_csl/inc/csl_usbAux.h"
    1586 000452 ED24          MOV dbl(*SP(#18)), XAR3
         000454 BF   
    1587 000455 ED6D          MOV dbl(*AR3(#8)), AC1 ; |934| 
TMS320C55x Assembler PC v4.4.1 Mon Aug 15 03:55:17 2016

Tools Copyright (c) 1996-2012 Texas Instruments Incorporated
usb.asm                                                              PAGE   36

         000457 1800 
         000459 08   
    1588 00045a ED7D          MOV dbl(*AR3(short(#6))), AC0 ; |934| 
         00045c 08   
    1589 00045d 121C          CMPU AC1 != AC0, TC1 ; |934| 
         00045f 04   
    1590 000460 6464          BCC $C$L25,TC1 ; |934| 
    1591                                                      ; branchcc occurs ; |934| 
    1592                      .dwpsn  file "F:/eZDSP_5535_Files/ccsws2/test/c5535_bsl_revc/ezdsp5535_v1/c55xx_csl/inc/csl_usbAux.h"
    1593 000462 E66D          MOV #1, *AR3(#12) ; |936| 
         000464 0100 
         000466 0C   
    1594                      .dwpsn  file "F:/eZDSP_5535_Files/ccsws2/test/c5535_bsl_revc/ezdsp5535_v1/c55xx_csl/inc/csl_usbAux.h"
    1595 000467 0601          B $C$L32  ; |937| 
         000469 44   
    1596                                                      ; branch occurs ; |937| 
    1597 00046a       $C$L25:    
    1598                      .dwpsn  file "F:/eZDSP_5535_Files/ccsws2/test/c5535_bsl_revc/ezdsp5535_v1/c55xx_csl/inc/csl_usbAux.h"
    1599 00046a ED00          MOV dbl(*SP(#0)), XAR3
         00046c BF   
    1600 00046d ED00          MOV dbl(*SP(#0)), XAR0
         00046f 8F   
    1601 000470 ED20          MOV dbl(*SP(#16)), XAR1
         000472 9F   
    1602 000473 ED6D          MOV dbl(*AR3(#116)), AC0 ; |940| 
         000475 0800 
         000477 74   
    1603              $C$DW$161       .dwtag  DW_TAG_TI_branch
    1604                      .dwattr $C$DW$161, DW_AT_low_pc(0x00)
    1605                      .dwattr $C$DW$161, DW_AT_TI_call
    1606                      .dwattr $C$DW$161, DW_AT_TI_indirect
    1607 000478 9200          CALL AC0  ; |940| 
    1608                                                      ; call occurs [AC0] ; |940| 
    1609 00047a C41C          MOV T0, *SP(#14) ; |940| 
    1610                      .dwpsn  file "F:/eZDSP_5535_Files/ccsws2/test/c5535_bsl_revc/ezdsp5535_v1/c55xx_csl/inc/csl_usbAux.h"
    1611 00047c 0601          B $C$L32  ; |942| 
         00047e 2F   
    1612                                                      ; branch occurs ; |942| 
    1613 00047f       $C$L26:    
    1614                      .dwpsn  file "F:/eZDSP_5535_Files/ccsws2/test/c5535_bsl_revc/ezdsp5535_v1/c55xx_csl/inc/csl_usbAux.h"
    1615 00047f 7604          MOV #1038, T0 ; |957| 
         000481 0E48 
    1616 000483 AB31          MOV *(#_usbRegisters), AR3 ; |957| 
         000485 0000 
         000487 00!  
    1617 000488 A96B          MOV port(*AR3(T0)), AR1 ; |957| 
         00048a 99   
    1618 00048b C91A          MOV AR1, *SP(#13) ; |957| 
    1619                      .dwpsn  file "F:/eZDSP_5535_Files/ccsws2/test/c5535_bsl_revc/ezdsp5535_v1/c55xx_csl/inc/csl_usbAux.h"
    1620 00048d A96B          MOV port(*AR3(T0)), AR1 ; |960| 
         00048f 99   
    1621 000490 7DFF          AND #0xfff0, AR1, AC0 ; |960| 
         000492 F009 
    1622 000494 C06B          MOV AC0, port(*AR3(T0)) ; |960| 
         000496 9A   
TMS320C55x Assembler PC v4.4.1 Mon Aug 15 03:55:17 2016

Tools Copyright (c) 1996-2012 Texas Instruments Incorporated
usb.asm                                                              PAGE   37

    1623                      .dwpsn  file "F:/eZDSP_5535_Files/ccsws2/test/c5535_bsl_revc/ezdsp5535_v1/c55xx_csl/inc/csl_usbAux.h"
    1624 000497 AB31          MOV *(#_usbRegisters), AR3 ; |964| 
         000499 0000 
         00049b 00!  
    1625 00049c ED04          MOV dbl(*SP(#2)), AC0 ; |964| 
         00049e 08   
    1626 00049f 180F          AND #0x000f, AC0, AC0 ; |964| 
         0004a1 00   
    1627 0004a2 A96B          MOV port(*AR3(T0)), AR1 ; |964| 
         0004a4 99   
    1628 0004a5 7DFF          AND #0xfff0, AR1, AC1 ; |964| 
         0004a7 F019 
    1629 0004a9 2A10          OR AC1, AC0 ; |964| 
    1630 0004ab C06B          MOV AC0, port(*AR3(T0)) ; |964| 
         0004ad 9A   
    1631                      .dwpsn  file "F:/eZDSP_5535_Files/ccsws2/test/c5535_bsl_revc/ezdsp5535_v1/c55xx_csl/inc/csl_usbAux.h"
    1632 0004ae 7604          MOV #1042, T0 ; |969| 
         0004b0 1248 
    1633 0004b2 AB31          MOV *(#_usbRegisters), AR3 ; |969| 
         0004b4 0000 
         0004b6 00!  
    1634 0004b7 A96B          MOV port(*AR3(T0)), AR1 ; |969| 
         0004b9 99   
    1635 0004ba EC06          BCLR @#3, AR1 ; |969| 
         0004bc 92   
    1636 0004bd EC06          BSET @#3, AR1 ; |969| 
         0004bf 90   
    1637 0004c0 C96B          MOV AR1, port(*AR3(T0)) ; |969| 
         0004c2 9A   
    1638                      .dwpsn  file "F:/eZDSP_5535_Files/ccsws2/test/c5535_bsl_revc/ezdsp5535_v1/c55xx_csl/inc/csl_usbAux.h"
    1639 0004c3 ED08          MOV dbl(*SP(#4)), AC0 ; |972| 
         0004c5 08   
    1640 0004c6 0400          BCC $C$L29,AC0 == #0 ; |972| 
         0004c8 76   
    1641                                                      ; branchcc occurs ; |972| 
    1642                      .dwpsn  file "F:/eZDSP_5535_Files/ccsws2/test/c5535_bsl_revc/ezdsp5535_v1/c55xx_csl/inc/csl_usbAux.h"
    1643 0004c9 ED08          MOV dbl(*SP(#4)), AC0 ; |975| 
         0004cb 08   
    1644 0004cc EB14          MOV AC0, dbl(*SP(#10)) ; |975| 
         0004ce 08   
    1645                      .dwpsn  file "F:/eZDSP_5535_Files/ccsws2/test/c5535_bsl_revc/ezdsp5535_v1/c55xx_csl/inc/csl_usbAux.h"
    1646 0004cf E618          MOV #0, *SP(#12) ; |977| 
         0004d1 00   
    1647                      .dwpsn  file "F:/eZDSP_5535_Files/ccsws2/test/c5535_bsl_revc/ezdsp5535_v1/c55xx_csl/inc/csl_usbAux.h"
    1648 0004d2 ED08          MOV dbl(*SP(#4)), AC0 ; |977| 
         0004d4 08   
    1649              
    1650 0004d8 5101          SFTL AC0, #-1 ; |977| 
    1651 0004d5 DF18  ||      MOV uns(*SP(#12)), AC1 ; |977| 
         0004d7 15   
    1652              
    1653 0004da 1218          CMPU AC1 >= AC0, TC1 ; |977| 
         0004dc 04   
    1654 0004dd 0464          BCC $C$L28,TC1 ; |977| 
         0004df 1F   
TMS320C55x Assembler PC v4.4.1 Mon Aug 15 03:55:17 2016

Tools Copyright (c) 1996-2012 Texas Instruments Incorporated
usb.asm                                                              PAGE   38

    1655                                                      ; branchcc occurs ; |977| 
    1656 0004e0       $C$L27:    
    1657 0004e0       $C$DW$L$_USB_handleTx$19$B:
    1658                      .dwpsn  file "F:/eZDSP_5535_Files/ccsws2/test/c5535_bsl_revc/ezdsp5535_v1/c55xx_csl/inc/csl_usbAux.h"
    1659 0004e0 ED0C          MOV dbl(*SP(#6)), XAR3
         0004e2 BF   
    1660 0004e3 A963          MOV *AR3+, AR1 ; |979| 
    1661 0004e5 EB0C          MOV XAR3, dbl(*SP(#6))
         0004e7 B5   
    1662 0004e8 AB28          MOV *SP(#20), AR3 ; |979| 
    1663 0004ea C961          MOV AR1, port(*AR3) ; |979| 
         0004ec 9A   
    1664                      .dwpsn  file "F:/eZDSP_5535_Files/ccsws2/test/c5535_bsl_revc/ezdsp5535_v1/c55xx_csl/inc/csl_usbAux.h"
    1665 0004ed F718          ADD #1, *SP(#12) ; |977| 
         0004ef 0001 
    1666                      .dwpsn  file "F:/eZDSP_5535_Files/ccsws2/test/c5535_bsl_revc/ezdsp5535_v1/c55xx_csl/inc/csl_usbAux.h"
    1667 0004f1 ED08          MOV dbl(*SP(#4)), AC0 ; |977| 
         0004f3 08   
    1668              
    1669 0004f7 5101          SFTL AC0, #-1 ; |977| 
    1670 0004f4 DF18  ||      MOV uns(*SP(#12)), AC1 ; |977| 
         0004f6 15   
    1671              
    1672 0004f9 1214          CMPU AC1 < AC0, TC1 ; |977| 
         0004fb 04   
    1673 0004fc 0464          BCC $C$L27,TC1 ; |977| 
         0004fe E1   
    1674                                                      ; branchcc occurs ; |977| 
    1675 0004ff       $C$DW$L$_USB_handleTx$19$E:
    1676 0004ff       $C$L28:    
    1677                      .dwpsn  file "F:/eZDSP_5535_Files/ccsws2/test/c5535_bsl_revc/ezdsp5535_v1/c55xx_csl/inc/csl_usbAux.h"
    1678 0004ff ED08          MOV dbl(*SP(#4)), AC0 ; |982| 
         000501 08   
    1679 000502 1801          AND #0x0001, AC0, AC0 ; |982| 
         000504 00   
    1680 000505 0400          BCC $C$L29,AC0 == #0 ; |982| 
         000507 37   
    1681                                                      ; branchcc occurs ; |982| 
    1682                      .dwpsn  file "F:/eZDSP_5535_Files/ccsws2/test/c5535_bsl_revc/ezdsp5535_v1/c55xx_csl/inc/csl_usbAux.h"
    1683 000508 7600          MOV #50, T0 ; |985| 
         00050a 3248 
    1684 00050c AB31          MOV *(#_sysCtrlRegs), AR3 ; |985| 
         00050e 0000 
         000510 00!  
    1685 000511 A96B          MOV port(*AR3(T0)), AR1 ; |985| 
         000513 99   
    1686 000514 7DFF          AND #0xfffc, AR1, AC0 ; |985| 
         000516 FC09 
    1687 000518 EC02          BSET @#1, AC0 ; |985| 
         00051a 00   
    1688 00051b C06B          MOV AC0, port(*AR3(T0)) ; |985| 
         00051d 9A   
    1689                      .dwpsn  file "F:/eZDSP_5535_Files/ccsws2/test/c5535_bsl_revc/ezdsp5535_v1/c55xx_csl/inc/csl_usbAux.h"
    1690 00051e AB28          MOV *SP(#20), AR3 ; |987| 
    1691 000520 A961          MOV port(*AR3), AR1 ; |987| 
TMS320C55x Assembler PC v4.4.1 Mon Aug 15 03:55:17 2016

Tools Copyright (c) 1996-2012 Texas Instruments Incorporated
usb.asm                                                              PAGE   39

         000522 99   
    1692 000523 ED0C          MOV dbl(*SP(#6)), XAR3
         000525 BF   
    1693 000526 A961          MOV *AR3, AR1 ; |987| 
    1694 000528 AB28          MOV *SP(#20), AR3 ; |987| 
    1695 00052a 1A00          OR #0x0000, AR1, AR1 ; |987| 
         00052c 99   
    1696 00052d C961          MOV AR1, port(*AR3) ; |987| 
         00052f 9A   
    1697                      .dwpsn  file "F:/eZDSP_5535_Files/ccsws2/test/c5535_bsl_revc/ezdsp5535_v1/c55xx_csl/inc/csl_usbAux.h"
    1698 000530 AB31          MOV *(#_sysCtrlRegs), AR3 ; |990| 
         000532 0000 
         000534 00!  
    1699 000535 A96B          MOV port(*AR3(T0)), AR1 ; |990| 
         000537 99   
    1700 000538 7DFF          AND #0xfffc, AR1, AC0 ; |990| 
         00053a FC09 
    1701 00053c C06B          MOV AC0, port(*AR3(T0)) ; |990| 
         00053e 9A   
    1702 00053f       $C$L29:    
    1703                      .dwpsn  file "F:/eZDSP_5535_Files/ccsws2/test/c5535_bsl_revc/ezdsp5535_v1/c55xx_csl/inc/csl_usbAux.h"
    1704 00053f ED20          MOV dbl(*SP(#16)), XAR3
         000541 BF   
    1705 000542 F075          CMP *AR3(short(#2)) == #3, TC1 ; |995| 
         000544 0003 
    1706 000546 6774          BCC $C$L30,!TC1 ; |995| 
    1707                                                      ; branchcc occurs ; |995| 
    1708                      .dwpsn  file "F:/eZDSP_5535_Files/ccsws2/test/c5535_bsl_revc/ezdsp5535_v1/c55xx_csl/inc/csl_usbAux.h"
    1709 000548 7604          MOV #1042, T0 ; |997| 
         00054a 1248 
    1710 00054c AB31          MOV *(#_usbRegisters), AR3 ; |997| 
         00054e 0000 
         000550 00!  
    1711 000551 F56B          OR #0x0040, port(*AR3(T0)) ; |997| 
         000553 0040 
         000555 9A   
    1712 000556       $C$L30:    
    1713                      .dwpsn  file "F:/eZDSP_5535_Files/ccsws2/test/c5535_bsl_revc/ezdsp5535_v1/c55xx_csl/inc/csl_usbAux.h"
    1714 000556 7604          MOV #1042, T0 ; |1002| 
         000558 1248 
    1715 00055a AB31          MOV *(#_usbRegisters), AR3 ; |1002| 
         00055c 0000 
         00055e 00!  
    1716 00055f A96B          MOV port(*AR3(T0)), AR1 ; |1002| 
         000561 99   
    1717 000562 EC00          BCLR @#0, AR1 ; |1002| 
         000564 92   
    1718 000565 EC00          BSET @#0, AR1 ; |1002| 
         000567 90   
    1719 000568 C96B          MOV AR1, port(*AR3(T0)) ; |1002| 
         00056a 9A   
    1720                      .dwpsn  file "F:/eZDSP_5535_Files/ccsws2/test/c5535_bsl_revc/ezdsp5535_v1/c55xx_csl/inc/csl_usbAux.h"
    1721 00056b 7604          MOV #1038, T0 ; |1006| 
         00056d 0E48 
    1722 00056f AB31          MOV *(#_usbRegisters), AR3 ; |1006| 
TMS320C55x Assembler PC v4.4.1 Mon Aug 15 03:55:17 2016

Tools Copyright (c) 1996-2012 Texas Instruments Incorporated
usb.asm                                                              PAGE   40

         000571 0000 
         000573 00!  
    1723 000574 A91A          MOV *SP(#13), AR1 ; |1006| 
    1724 000576 C96B          MOV AR1, port(*AR3(T0)) ; |1006| 
         000578 9A   
    1725                      .dwpsn  file "F:/eZDSP_5535_Files/ccsws2/test/c5535_bsl_revc/ezdsp5535_v1/c55xx_csl/inc/csl_usbAux.h"
    1726 000579 ED24          MOV dbl(*SP(#18)), XAR3
         00057b BF   
    1727 00057c ED14          MOV dbl(*SP(#10)), AC0 ; |1009| 
         00057e 08   
    1728 00057f ED6D          ADD dbl(*AR3(#8)), AC0, AC0 ; |1009| 
         000581 0000 
         000583 08   
    1729 000584 EB6D          MOV AC0, dbl(*AR3(#8)) ; |1009| 
         000586 0800 
         000588 08   
    1730                      .dwpsn  file "F:/eZDSP_5535_Files/ccsws2/test/c5535_bsl_revc/ezdsp5535_v1/c55xx_csl/inc/csl_usbAux.h"
    1731 000589 ED24          MOV dbl(*SP(#18)), XAR3
         00058b BF   
    1732 00058c ED14          MOV dbl(*SP(#10)), AC0 ; |1010| 
         00058e 08   
    1733 00058f EB6D          MOV AC0, dbl(*AR3(#10)) ; |1010| 
         000591 0800 
         000593 0A   
    1734                      .dwpsn  file "F:/eZDSP_5535_Files/ccsws2/test/c5535_bsl_revc/ezdsp5535_v1/c55xx_csl/inc/csl_usbAux.h"
    1735 000594 ED24          MOV dbl(*SP(#18)), XAR3
         000596 BF   
    1736 000597 ED6D          MOV dbl(*AR3(#8)), AC1 ; |1012| 
         000599 1800 
         00059b 08   
    1737 00059c ED7D          MOV dbl(*AR3(short(#6))), AC0 ; |1012| 
         00059e 08   
    1738 00059f 1210          CMPU AC1 == AC0, TC1 ; |1012| 
         0005a1 04   
    1739 0005a2 62E4          BCC $C$L31,TC1 ; |1012| 
    1740                                                      ; branchcc occurs ; |1012| 
    1741 0005a4 ED14          MOV dbl(*SP(#10)), AC0 ; |1012| 
         0005a6 08   
    1742 0005a7 6290          BCC $C$L32,AC0 != #0 ; |1012| 
    1743                                                      ; branchcc occurs ; |1012| 
    1744 0005a9       $C$L31:    
    1745                      .dwpsn  file "F:/eZDSP_5535_Files/ccsws2/test/c5535_bsl_revc/ezdsp5535_v1/c55xx_csl/inc/csl_usbAux.h"
    1746 0005a9 E66D          MOV #1, *AR3(#12) ; |1015| 
         0005ab 0100 
         0005ad 0C   
    1747 0005ae       $C$L32:    
    1748                      .dwpsn  file "F:/eZDSP_5535_Files/ccsws2/test/c5535_bsl_revc/ezdsp5535_v1/c55xx_csl/inc/csl_usbAux.h"
    1749 0005ae ED24          MOV dbl(*SP(#18)), XAR3
         0005b0 BF   
    1750 0005b1 A96D          MOV *AR3(#12), AR1 ; |1021| 
         0005b3 000C 
    1751 0005b5 0409          BCC $C$L35,AR1 == #0 ; |1021| 
         0005b7 22   
    1752                                                      ; branchcc occurs ; |1021| 
    1753                      .dwpsn  file "F:/eZDSP_5535_Files/ccsws2/test/c5535_bsl_revc/ezdsp5535_v1/c55xx_csl/inc/csl_usbAux.h"
TMS320C55x Assembler PC v4.4.1 Mon Aug 15 03:55:17 2016

Tools Copyright (c) 1996-2012 Texas Instruments Incorporated
usb.asm                                                              PAGE   41

    1754 0005b8 ED00          MOV dbl(*SP(#0)), XAR3
         0005ba BF   
    1755 0005bb E67B          MOV #0, *AR3(short(#5)) ; |1023| 
         0005bd 00   
    1756                      .dwpsn  file "F:/eZDSP_5535_Files/ccsws2/test/c5535_bsl_revc/ezdsp5535_v1/c55xx_csl/inc/csl_usbAux.h"
    1757 0005be ED00          MOV dbl(*SP(#0)), XAR3
         0005c0 BF   
    1758 0005c1 ED00          MOV dbl(*SP(#0)), XAR0
         0005c3 8F   
    1759 0005c4 ED20          MOV dbl(*SP(#16)), XAR1
         0005c6 9F   
    1760 0005c7 ED6D          MOV dbl(*AR3(#116)), AC0 ; |1024| 
         0005c9 0800 
         0005cb 74   
    1761              $C$DW$162       .dwtag  DW_TAG_TI_branch
    1762                      .dwattr $C$DW$162, DW_AT_low_pc(0x00)
    1763                      .dwattr $C$DW$162, DW_AT_TI_call
    1764                      .dwattr $C$DW$162, DW_AT_TI_indirect
    1765 0005cc 9200          CALL AC0  ; |1024| 
    1766                                                      ; call occurs [AC0] ; |1024| 
    1767 0005ce C41C          MOV T0, *SP(#14) ; |1024| 
    1768                      .dwpsn  file "F:/eZDSP_5535_Files/ccsws2/test/c5535_bsl_revc/ezdsp5535_v1/c55xx_csl/inc/csl_usbAux.h"
    1769 0005d0 4A08          B $C$L35  ; |1026| 
    1770                                                      ; branch occurs ; |1026| 
    1771 0005d2       $C$L33:    
    1772                      .dwpsn  file "F:/eZDSP_5535_Files/ccsws2/test/c5535_bsl_revc/ezdsp5535_v1/c55xx_csl/inc/csl_usbAux.h"
    1773 0005d2 E61C          MOV #-6, *SP(#14) ; |1029| 
         0005d4 FA   
    1774                      .dwpsn  file "F:/eZDSP_5535_Files/ccsws2/test/c5535_bsl_revc/ezdsp5535_v1/c55xx_csl/inc/csl_usbAux.h"
    1775 0005d5 4A03          B $C$L35  ; |1031| 
    1776                                                      ; branch occurs ; |1031| 
    1777 0005d7       $C$L34:    
    1778                      .dwpsn  file "F:/eZDSP_5535_Files/ccsws2/test/c5535_bsl_revc/ezdsp5535_v1/c55xx_csl/inc/csl_usbAux.h"
    1779 0005d7 E61C          MOV #-6, *SP(#14) ; |1034| 
         0005d9 FA   
    1780 0005da       $C$L35:    
    1781                      .dwpsn  file "F:/eZDSP_5535_Files/ccsws2/test/c5535_bsl_revc/ezdsp5535_v1/c55xx_csl/inc/csl_usbAux.h"
    1782 0005da A41C          MOV *SP(#14), T0 ; |1037| 
    1783                      .dwpsn  file "F:/eZDSP_5535_Files/ccsws2/test/c5535_bsl_revc/ezdsp5535_v1/c55xx_csl/inc/csl_usbAux.h"
    1784 0005dc 4E15          AADD #21, SP
    1785                      .dwcfi  cfa_offset, 1
    1786              $C$DW$163       .dwtag  DW_TAG_TI_branch
    1787                      .dwattr $C$DW$163, DW_AT_low_pc(0x00)
    1788                      .dwattr $C$DW$163, DW_AT_TI_return
    1789 0005de 4804          RET
    1790                                                      ; return occurs
    1791              
    1792              $C$DW$164       .dwtag  DW_TAG_TI_loop
    1793                      .dwattr $C$DW$164, DW_AT_name("F:\eZDSP_5535_Files\ccsws2\test\Debug\usb.asm:$C$L27:1:1471258514")
    1794                      .dwattr $C$DW$164, DW_AT_TI_begin_file("F:/eZDSP_5535_Files/ccsws2/test/c5535_bsl_revc/ezdsp5535_v1/c
    1795                      .dwattr $C$DW$164, DW_AT_TI_begin_line(0x3d1)
    1796                      .dwattr $C$DW$164, DW_AT_TI_end_line(0x3d4)
    1797              $C$DW$165       .dwtag  DW_TAG_TI_loop_range
    1798                      .dwattr $C$DW$165, DW_AT_low_pc($C$DW$L$_USB_handleTx$19$B)
    1799                      .dwattr $C$DW$165, DW_AT_high_pc($C$DW$L$_USB_handleTx$19$E)
TMS320C55x Assembler PC v4.4.1 Mon Aug 15 03:55:17 2016

Tools Copyright (c) 1996-2012 Texas Instruments Incorporated
usb.asm                                                              PAGE   42

    1800                      .dwendtag $C$DW$164
    1801              
    1802                      .dwattr $C$DW$145, DW_AT_TI_end_file("F:/eZDSP_5535_Files/ccsws2/test/c5535_bsl_revc/ezdsp5535_v1/c55
    1803                      .dwattr $C$DW$145, DW_AT_TI_end_line(0x40e)
    1804                      .dwattr $C$DW$145, DW_AT_TI_end_column(0x01)
    1805                      .dwendentry
    1806                      .dwendtag $C$DW$145
    1807              
    1808 0005e0               .sect   ".text"
    1809                      .align 4
    1810              
    1811              $C$DW$166       .dwtag  DW_TAG_subprogram, DW_AT_name("USB_handleRx")
    1812                      .dwattr $C$DW$166, DW_AT_low_pc(_USB_handleRx)
    1813                      .dwattr $C$DW$166, DW_AT_high_pc(0x00)
    1814                      .dwattr $C$DW$166, DW_AT_TI_symbol_name("_USB_handleRx")
    1815                      .dwattr $C$DW$166, DW_AT_type(*$C$DW$T$80)
    1816                      .dwattr $C$DW$166, DW_AT_TI_begin_file("F:/eZDSP_5535_Files/ccsws2/test/c5535_bsl_revc/ezdsp5535_v1/c
    1817                      .dwattr $C$DW$166, DW_AT_TI_begin_line(0x453)
    1818                      .dwattr $C$DW$166, DW_AT_TI_begin_column(0x0c)
    1819                      .dwattr $C$DW$166, DW_AT_TI_max_frame_size(0x16)
    1820                      .dwpsn  file "F:/eZDSP_5535_Files/ccsws2/test/c5535_bsl_revc/ezdsp5535_v1/c55xx_csl/inc/csl_usbAux.h"
    1821              
    1822                      .dwfde $C$DW$CIE, _USB_handleRx
    1823              $C$DW$167       .dwtag  DW_TAG_formal_parameter, DW_AT_name("pContext")
    1824                      .dwattr $C$DW$167, DW_AT_TI_symbol_name("_pContext")
    1825                      .dwattr $C$DW$167, DW_AT_type(*$C$DW$T$146)
    1826                      .dwattr $C$DW$167, DW_AT_location[DW_OP_reg17]
    1827              $C$DW$168       .dwtag  DW_TAG_formal_parameter, DW_AT_name("dwEndpoint")
    1828                      .dwattr $C$DW$168, DW_AT_TI_symbol_name("_dwEndpoint")
    1829                      .dwattr $C$DW$168, DW_AT_type(*$C$DW$T$88)
    1830                      .dwattr $C$DW$168, DW_AT_location[DW_OP_reg0]
    1831              ;*******************************************************************************
    1832              ;* FUNCTION NAME: USB_handleRx                                                 *
    1833              ;*                                                                             *
    1834              ;*   Function Uses Regs : AC0,AC0,AC1,AC1,T0,AR0,XAR0,AR1,XAR1,AR2,XAR2,AR3,   *
    1835              ;*                        XAR3,SP,CARRY,TC1,M40,SATA,SATD,RDM,FRCT,SMUL        *
    1836              ;*   Stack Frame        : Compact (No Frame Pointer, w/ debug)                 *
    1837              ;*   Total Frame Size   : 22 words                                             *
    1838              ;*                        (2 return address/alignment)                         *
    1839              ;*                        (20 local values)                                    *
    1840              ;*   Min System Stack   : 1 word                                               *
    1841              ;*******************************************************************************
    1842 0005e0       _USB_handleRx:
    1843                      .dwcfi  cfa_offset, 1
    1844                      .dwcfi  save_reg_to_mem, 91, -1
    1845 0005e0 4EEB          AADD #-21, SP
    1846                      .dwcfi  cfa_offset, 22
    1847              $C$DW$169       .dwtag  DW_TAG_variable, DW_AT_name("pContext")
    1848                      .dwattr $C$DW$169, DW_AT_TI_symbol_name("_pContext")
    1849                      .dwattr $C$DW$169, DW_AT_type(*$C$DW$T$146)
    1850                      .dwattr $C$DW$169, DW_AT_location[DW_OP_bregx 0x24 0]
    1851              $C$DW$170       .dwtag  DW_TAG_variable, DW_AT_name("dwEndpoint")
    1852                      .dwattr $C$DW$170, DW_AT_TI_symbol_name("_dwEndpoint")
    1853                      .dwattr $C$DW$170, DW_AT_type(*$C$DW$T$88)
    1854                      .dwattr $C$DW$170, DW_AT_location[DW_OP_bregx 0x24 2]
TMS320C55x Assembler PC v4.4.1 Mon Aug 15 03:55:17 2016

Tools Copyright (c) 1996-2012 Texas Instruments Incorporated
usb.asm                                                              PAGE   43

    1855              $C$DW$171       .dwtag  DW_TAG_variable, DW_AT_name("cbToRead")
    1856                      .dwattr $C$DW$171, DW_AT_TI_symbol_name("_cbToRead")
    1857                      .dwattr $C$DW$171, DW_AT_type(*$C$DW$T$88)
    1858                      .dwattr $C$DW$171, DW_AT_location[DW_OP_bregx 0x24 4]
    1859              $C$DW$172       .dwtag  DW_TAG_variable, DW_AT_name("cbBuffer")
    1860                      .dwattr $C$DW$172, DW_AT_TI_symbol_name("_cbBuffer")
    1861                      .dwattr $C$DW$172, DW_AT_type(*$C$DW$T$88)
    1862                      .dwattr $C$DW$172, DW_AT_location[DW_OP_bregx 0x24 6]
    1863              $C$DW$173       .dwtag  DW_TAG_variable, DW_AT_name("dwBytesRead")
    1864                      .dwattr $C$DW$173, DW_AT_TI_symbol_name("_dwBytesRead")
    1865                      .dwattr $C$DW$173, DW_AT_type(*$C$DW$T$88)
    1866                      .dwattr $C$DW$173, DW_AT_location[DW_OP_bregx 0x24 8]
    1867              $C$DW$174       .dwtag  DW_TAG_variable, DW_AT_name("pwBuffer")
    1868                      .dwattr $C$DW$174, DW_AT_TI_symbol_name("_pwBuffer")
    1869                      .dwattr $C$DW$174, DW_AT_type(*$C$DW$T$87)
    1870                      .dwattr $C$DW$174, DW_AT_location[DW_OP_bregx 0x24 10]
    1871              $C$DW$175       .dwtag  DW_TAG_variable, DW_AT_name("pTransfer")
    1872                      .dwattr $C$DW$175, DW_AT_TI_symbol_name("_pTransfer")
    1873                      .dwattr $C$DW$175, DW_AT_type(*$C$DW$T$152)
    1874                      .dwattr $C$DW$175, DW_AT_location[DW_OP_bregx 0x24 12]
    1875              $C$DW$176       .dwtag  DW_TAG_variable, DW_AT_name("status")
    1876                      .dwattr $C$DW$176, DW_AT_TI_symbol_name("_status")
    1877                      .dwattr $C$DW$176, DW_AT_type(*$C$DW$T$80)
    1878                      .dwattr $C$DW$176, DW_AT_location[DW_OP_bregx 0x24 14]
    1879              $C$DW$177       .dwtag  DW_TAG_variable, DW_AT_name("saveIndex")
    1880                      .dwattr $C$DW$177, DW_AT_TI_symbol_name("_saveIndex")
    1881                      .dwattr $C$DW$177, DW_AT_type(*$C$DW$T$19)
    1882                      .dwattr $C$DW$177, DW_AT_location[DW_OP_bregx 0x24 15]
    1883              $C$DW$178       .dwtag  DW_TAG_variable, DW_AT_name("peps")
    1884                      .dwattr $C$DW$178, DW_AT_TI_symbol_name("_peps")
    1885                      .dwattr $C$DW$178, DW_AT_type(*$C$DW$T$150)
    1886                      .dwattr $C$DW$178, DW_AT_location[DW_OP_bregx 0x24 16]
    1887              $C$DW$179       .dwtag  DW_TAG_variable, DW_AT_name("count")
    1888                      .dwattr $C$DW$179, DW_AT_TI_symbol_name("_count")
    1889                      .dwattr $C$DW$179, DW_AT_type(*$C$DW$T$20)
    1890                      .dwattr $C$DW$179, DW_AT_location[DW_OP_bregx 0x24 18]
    1891              $C$DW$180       .dwtag  DW_TAG_variable, DW_AT_name("pFifoAddr")
    1892                      .dwattr $C$DW$180, DW_AT_TI_symbol_name("_pFifoAddr")
    1893                      .dwattr $C$DW$180, DW_AT_type(*$C$DW$T$194)
    1894                      .dwattr $C$DW$180, DW_AT_location[DW_OP_bregx 0x24 19]
    1895 0005e2 EB04          MOV AC0, dbl(*SP(#2)) ; |1109| 
         0005e4 08   
    1896 0005e5 EB00          MOV XAR0, dbl(*SP(#0))
         0005e7 85   
    1897                      .dwpsn  file "F:/eZDSP_5535_Files/ccsws2/test/c5535_bsl_revc/ezdsp5535_v1/c55xx_csl/inc/csl_usbAux.h"
    1898 0005e8 E61C          MOV #0, *SP(#14) ; |1121| 
         0005ea 00   
    1899                      .dwpsn  file "F:/eZDSP_5535_Files/ccsws2/test/c5535_bsl_revc/ezdsp5535_v1/c55xx_csl/inc/csl_usbAux.h"
    1900 0005eb 3C00          MOV #0, AC0 ; |1122| 
    1901 0005ed EB10          MOV AC0, dbl(*SP(#8)) ; |1122| 
         0005ef 08   
    1902                      .dwpsn  file "F:/eZDSP_5535_Files/ccsws2/test/c5535_bsl_revc/ezdsp5535_v1/c55xx_csl/inc/csl_usbAux.h"
    1903 0005f0 ED00          MOV dbl(*SP(#0)), XAR3
         0005f2 BF   
    1904 0005f3 90B0          MOV XAR3, AC0
TMS320C55x Assembler PC v4.4.1 Mon Aug 15 03:55:17 2016

Tools Copyright (c) 1996-2012 Texas Instruments Incorporated
usb.asm                                                              PAGE   44

    1905 0005f5 6D00          BCC $C$L48,AC0 == #0 ; |1124| 
         0005f7 0221 
    1906                                                      ; branchcc occurs ; |1124| 
    1907                      .dwpsn  file "F:/eZDSP_5535_Files/ccsws2/test/c5535_bsl_revc/ezdsp5535_v1/c55xx_csl/inc/csl_usbAux.h"
    1908 0005f9 ED6D          MOV dbl(*AR3(#98)), XAR3
         0005fb BF00 
         0005fd 62   
    1909 0005fe F806          MPYMK *SP(#3), #18, AC0 ; |1126| 
         000600 1200 
    1910 000602 2209          MOV AC0, AR1 ; |1126| 
    1911              
    1912 000604 8E20          MOV XAR3, dbl(*SP(#16))
         000606 BB10 
         000608 B590 
    1913              ||      AADD AR1, AR3 ; |1126| 
    1914              
    1915                      .dwpsn  file "F:/eZDSP_5535_Files/ccsws2/test/c5535_bsl_revc/ezdsp5535_v1/c55xx_csl/inc/csl_usbAux.h"
    1916 00060a ED6D          MOV dbl(*AR3(#10)), XAR3
         00060c BF00 
         00060e 0A   
    1917 00060f EB18          MOV XAR3, dbl(*SP(#12))
         000611 B5   
    1918                      .dwpsn  file "F:/eZDSP_5535_Files/ccsws2/test/c5535_bsl_revc/ezdsp5535_v1/c55xx_csl/inc/csl_usbAux.h"
    1919 000612 90B0          MOV XAR3, AC0
    1920 000614 6D00          BCC $C$L47,AC0 == #0 ; |1129| 
         000616 01FD 
    1921                                                      ; branchcc occurs ; |1129| 
    1922 000618 A96D          MOV *AR3(#12), AR1 ; |1129| 
         00061a 000C 
    1923 00061c 6D19          BCC $C$L47,AR1 != #0 ; |1129| 
         00061e 01F5 
    1924                                                      ; branchcc occurs ; |1129| 
    1925                      .dwpsn  file "F:/eZDSP_5535_Files/ccsws2/test/c5535_bsl_revc/ezdsp5535_v1/c55xx_csl/inc/csl_usbAux.h"
    1926 000620 ED6D          MOV dbl(*AR3(#8)), AC0 ; |1131| 
         000622 0800 
         000624 08   
    1927 000625 ED7D          SUB AC0, dbl(*AR3(short(#6))), AC0 ; |1131| 
         000627 04   
    1928 000628 EB0C          MOV AC0, dbl(*SP(#6)) ; |1131| 
         00062a 08   
    1929                      .dwpsn  file "F:/eZDSP_5535_Files/ccsws2/test/c5535_bsl_revc/ezdsp5535_v1/c55xx_csl/inc/csl_usbAux.h"
    1930 00062b ED18          MOV dbl(*SP(#12)), XAR3
         00062d BF   
    1931 00062e ED6D          MOV dbl(*AR3(#8)), AC0 ; |1132| 
         000630 0800 
         000632 08   
    1932 000633 5001          SFTL AC0, #-1 ; |1132| 
    1933 000635 2209          MOV AC0, AR1 ; |1132| 
    1934 000637 ED79          MOV dbl(*AR3(short(#4))), XAR3
         000639 BF   
    1935              
    1936 00063a 8E14          MOV XAR3, dbl(*SP(#10))
         00063c BB10 
         00063e B590 
    1937              ||      AADD AR1, AR3 ; |1132| 
TMS320C55x Assembler PC v4.4.1 Mon Aug 15 03:55:17 2016

Tools Copyright (c) 1996-2012 Texas Instruments Incorporated
usb.asm                                                              PAGE   45

    1938              
    1939                      .dwpsn  file "F:/eZDSP_5535_Files/ccsws2/test/c5535_bsl_revc/ezdsp5535_v1/c55xx_csl/inc/csl_usbAux.h"
    1940 000640 ED20          MOV dbl(*SP(#16)), XAR3
         000642 BF   
    1941 000643 A96D          MOV *AR3(#9), AR1 ; |1133| 
         000645 0009 
    1942 000647 C926          MOV AR1, *SP(#19) ; |1133| 
    1943                      .dwpsn  file "F:/eZDSP_5535_Files/ccsws2/test/c5535_bsl_revc/ezdsp5535_v1/c55xx_csl/inc/csl_usbAux.h"
    1944 000649 ED20          MOV dbl(*SP(#16)), XAR3
         00064b BF   
    1945 00064c ED0C          MOV dbl(*SP(#6)), AC1 ; |1136| 
         00064e 18   
    1946 00064f ED79          MOV dbl(*AR3(short(#4))), AC0 ; |1136| 
         000651 08   
    1947 000652 1218          CMPU AC1 >= AC0, TC1 ; |1136| 
         000654 04   
    1948 000655 62E4          BCC $C$L36,TC1 ; |1136| 
    1949                                                      ; branchcc occurs ; |1136| 
    1950 000657 ED0C          MOV dbl(*SP(#6)), AC0 ; |1136| 
         000659 08   
    1951 00065a 4A03          B $C$L37  ; |1136| 
    1952                                                      ; branch occurs ; |1136| 
    1953 00065c       $C$L36:    
    1954 00065c ED79          MOV dbl(*AR3(short(#4))), AC0 ; |1136| 
         00065e 08   
    1955 00065f       $C$L37:    
    1956 00065f EB08          MOV AC0, dbl(*SP(#4)) ; |1136| 
         000661 08   
    1957                      .dwpsn  file "F:/eZDSP_5535_Files/ccsws2/test/c5535_bsl_revc/ezdsp5535_v1/c55xx_csl/inc/csl_usbAux.h"
    1958 000662 7602          MOV #512, AC0 ; |1138| 
         000664 0008 
    1959 000666 ED08          MOV dbl(*SP(#4)), AC1 ; |1138| 
         000668 18   
    1960 000669 1210          CMPU AC1 == AC0, TC1 ; |1138| 
         00066b 04   
    1961 00066c 66E4          BCC $C$L38,TC1 ; |1138| 
    1962                                                      ; branchcc occurs ; |1138| 
    1963 00066e 7600          MOV #64, AC0 ; |1138| 
         000670 4008 
    1964 000672 ED08          MOV dbl(*SP(#4)), AC1 ; |1138| 
         000674 18   
    1965 000675 121C          CMPU AC1 != AC0, TC1 ; |1138| 
         000677 04   
    1966 000678 0464          BCC $C$L40,TC1 ; |1138| 
         00067a 5B   
    1967                                                      ; branchcc occurs ; |1138| 
    1968 00067b       $C$L38:    
    1969 00067b ED00          MOV dbl(*SP(#0)), XAR3
         00067d BF   
    1970 00067e F061          CMP *AR3 == #1, TC1 ; |1138| 
         000680 0001 
    1971 000682 0474          BCC $C$L40,!TC1 ; |1138| 
         000684 51   
    1972                                                      ; branchcc occurs ; |1138| 
    1973                      .dwpsn  file "F:/eZDSP_5535_Files/ccsws2/test/c5535_bsl_revc/ezdsp5535_v1/c55xx_csl/inc/csl_usbAux.h"
TMS320C55x Assembler PC v4.4.1 Mon Aug 15 03:55:17 2016

Tools Copyright (c) 1996-2012 Texas Instruments Incorporated
usb.asm                                                              PAGE   46

    1974 000685 ED18          MOV dbl(*SP(#12)), XAR3
         000687 BF   
    1975 000688 ED08          MOV dbl(*SP(#4)), AC0 ; |1141| 
         00068a 08   
    1976 00068b ED6D          ADD dbl(*AR3(#8)), AC0, AC0 ; |1141| 
         00068d 0000 
         00068f 08   
    1977 000690 EB6D          MOV AC0, dbl(*AR3(#8)) ; |1141| 
         000692 0800 
         000694 08   
    1978                      .dwpsn  file "F:/eZDSP_5535_Files/ccsws2/test/c5535_bsl_revc/ezdsp5535_v1/c55xx_csl/inc/csl_usbAux.h"
    1979 000695 ED18          MOV dbl(*SP(#12)), XAR3
         000697 BF   
    1980 000698 ED08          MOV dbl(*SP(#4)), AC0 ; |1142| 
         00069a 08   
    1981 00069b EB6D          MOV AC0, dbl(*AR3(#10)) ; |1142| 
         00069d 0800 
         00069f 0A   
    1982                      .dwpsn  file "F:/eZDSP_5535_Files/ccsws2/test/c5535_bsl_revc/ezdsp5535_v1/c55xx_csl/inc/csl_usbAux.h"
    1983 0006a0 ED04          MOV dbl(*SP(#2)), AC0 ; |1144| 
         0006a2 08   
    1984              $C$DW$181       .dwtag  DW_TAG_TI_branch
    1985                      .dwattr $C$DW$181, DW_AT_low_pc(0x00)
    1986                      .dwattr $C$DW$181, DW_AT_name("_USB_dmaRxStart")
    1987                      .dwattr $C$DW$181, DW_AT_TI_call
    1988 0006a3 08F9          CALL #_USB_dmaRxStart ; |1144| 
         0006a5 5A   
    1989                                                      ; call occurs [#_USB_dmaRxStart] ; |1144| 
    1990                      .dwpsn  file "F:/eZDSP_5535_Files/ccsws2/test/c5535_bsl_revc/ezdsp5535_v1/c55xx_csl/inc/csl_usbAux.h"
    1991 0006a6 ED18          MOV dbl(*SP(#12)), XAR3
         0006a8 BF   
    1992 0006a9 ED6D          MOV dbl(*AR3(#8)), AC1 ; |1146| 
         0006ab 1800 
         0006ad 08   
    1993 0006ae ED7D          MOV dbl(*AR3(short(#6))), AC0 ; |1146| 
         0006b0 08   
    1994 0006b1 121C          CMPU AC1 != AC0, TC1 ; |1146| 
         0006b3 04   
    1995 0006b4 65E4          BCC $C$L39,TC1 ; |1146| 
    1996                                                      ; branchcc occurs ; |1146| 
    1997                      .dwpsn  file "F:/eZDSP_5535_Files/ccsws2/test/c5535_bsl_revc/ezdsp5535_v1/c55xx_csl/inc/csl_usbAux.h"
    1998 0006b6 E66D          MOV #1, *AR3(#12) ; |1148| 
         0006b8 0100 
         0006ba 0C   
    1999                      .dwpsn  file "F:/eZDSP_5535_Files/ccsws2/test/c5535_bsl_revc/ezdsp5535_v1/c55xx_csl/inc/csl_usbAux.h"
    2000 0006bb ED00          MOV dbl(*SP(#0)), XAR3
         0006bd BF   
    2001 0006be E67D          MOV #0, *AR3(short(#6)) ; |1149| 
         0006c0 00   
    2002 0006c1       $C$L39:    
    2003                      .dwpsn  file "F:/eZDSP_5535_Files/ccsws2/test/c5535_bsl_revc/ezdsp5535_v1/c55xx_csl/inc/csl_usbAux.h"
    2004 0006c1 ED00          MOV dbl(*SP(#0)), XAR3
         0006c3 BF   
    2005 0006c4 ED00          MOV dbl(*SP(#0)), XAR0
         0006c6 8F   
TMS320C55x Assembler PC v4.4.1 Mon Aug 15 03:55:17 2016

Tools Copyright (c) 1996-2012 Texas Instruments Incorporated
usb.asm                                                              PAGE   47

    2006 0006c7 ED20          MOV dbl(*SP(#16)), XAR1
         0006c9 9F   
    2007 0006ca ED6D          MOV dbl(*AR3(#116)), AC0 ; |1152| 
         0006cc 0800 
         0006ce 74   
    2008              $C$DW$182       .dwtag  DW_TAG_TI_branch
    2009                      .dwattr $C$DW$182, DW_AT_low_pc(0x00)
    2010                      .dwattr $C$DW$182, DW_AT_TI_call
    2011                      .dwattr $C$DW$182, DW_AT_TI_indirect
    2012 0006cf 9200          CALL AC0  ; |1152| 
    2013                                                      ; call occurs [AC0] ; |1152| 
    2014 0006d1 C41C          MOV T0, *SP(#14) ; |1152| 
    2015                      .dwpsn  file "F:/eZDSP_5535_Files/ccsws2/test/c5535_bsl_revc/ezdsp5535_v1/c55xx_csl/inc/csl_usbAux.h"
    2016 0006d3 0601          B $C$L49  ; |1153| 
         0006d5 47   
    2017                                                      ; branch occurs ; |1153| 
    2018 0006d6       $C$L40:    
    2019                      .dwpsn  file "F:/eZDSP_5535_Files/ccsws2/test/c5535_bsl_revc/ezdsp5535_v1/c55xx_csl/inc/csl_usbAux.h"
    2020 0006d6 ED08          MOV dbl(*SP(#4)), AC0 ; |1166| 
         0006d8 08   
    2021 0006d9 0400          BCC $C$L43,AC0 == #0 ; |1166| 
         0006db 78   
    2022                                                      ; branchcc occurs ; |1166| 
    2023                      .dwpsn  file "F:/eZDSP_5535_Files/ccsws2/test/c5535_bsl_revc/ezdsp5535_v1/c55xx_csl/inc/csl_usbAux.h"
    2024 0006dc ED08          MOV dbl(*SP(#4)), AC0 ; |1169| 
         0006de 08   
    2025 0006df EB10          MOV AC0, dbl(*SP(#8)) ; |1169| 
         0006e1 08   
    2026                      .dwpsn  file "F:/eZDSP_5535_Files/ccsws2/test/c5535_bsl_revc/ezdsp5535_v1/c55xx_csl/inc/csl_usbAux.h"
    2027 0006e2 E624          MOV #0, *SP(#18) ; |1171| 
         0006e4 00   
    2028 0006e5 20            NOP
    2029 0006e6 20            NOP
    2030                      .dwpsn  file "F:/eZDSP_5535_Files/ccsws2/test/c5535_bsl_revc/ezdsp5535_v1/c55xx_csl/inc/csl_usbAux.h"
    2031 0006e7 ED08          MOV dbl(*SP(#4)), AC0 ; |1171| 
         0006e9 08   
    2032              
    2033 0006ed 5101          SFTL AC0, #-1 ; |1171| 
    2034 0006ea DF24  ||      MOV uns(*SP(#18)), AC1 ; |1171| 
         0006ec 15   
    2035              
    2036 0006ef 1218          CMPU AC1 >= AC0, TC1 ; |1171| 
         0006f1 04   
    2037 0006f2 0464          BCC $C$L42,TC1 ; |1171| 
         0006f4 26   
    2038                                                      ; branchcc occurs ; |1171| 
    2039 0006f5       $C$L41:    
    2040 0006f5       $C$DW$L$_USB_handleRx$15$B:
    2041                      .dwpsn  file "F:/eZDSP_5535_Files/ccsws2/test/c5535_bsl_revc/ezdsp5535_v1/c55xx_csl/inc/csl_usbAux.h"
    2042 0006f5 ED14          MOV dbl(*SP(#10)), XAR2
         0006f7 AF   
    2043 0006f8 EC41          AMAR *AR2, XAR3
         0006fa BE   
    2044 0006fb B463          AMAR *AR3+
    2045 0006fd EB14          MOV XAR3, dbl(*SP(#10))
TMS320C55x Assembler PC v4.4.1 Mon Aug 15 03:55:17 2016

Tools Copyright (c) 1996-2012 Texas Instruments Incorporated
usb.asm                                                              PAGE   48

         0006ff B5   
    2046 000700 AB26          MOV *SP(#19), AR3 ; |1173| 
    2047 000702 A961          MOV port(*AR3), AR1 ; |1173| 
         000704 99   
    2048 000705 C941          MOV AR1, *AR2 ; |1173| 
    2049                      .dwpsn  file "F:/eZDSP_5535_Files/ccsws2/test/c5535_bsl_revc/ezdsp5535_v1/c55xx_csl/inc/csl_usbAux.h"
    2050 000707 F724          ADD #1, *SP(#18) ; |1171| 
         000709 0001 
    2051 00070b 20            NOP
    2052 00070c 20            NOP
    2053                      .dwpsn  file "F:/eZDSP_5535_Files/ccsws2/test/c5535_bsl_revc/ezdsp5535_v1/c55xx_csl/inc/csl_usbAux.h"
    2054 00070d ED08          MOV dbl(*SP(#4)), AC0 ; |1171| 
         00070f 08   
    2055              
    2056 000713 5101          SFTL AC0, #-1 ; |1171| 
    2057 000710 DF24  ||      MOV uns(*SP(#18)), AC1 ; |1171| 
         000712 15   
    2058              
    2059 000715 1214          CMPU AC1 < AC0, TC1 ; |1171| 
         000717 04   
    2060 000718 0464          BCC $C$L41,TC1 ; |1171| 
         00071a DA   
    2061                                                      ; branchcc occurs ; |1171| 
    2062 00071b       $C$DW$L$_USB_handleRx$15$E:
    2063 00071b       $C$L42:    
    2064                      .dwpsn  file "F:/eZDSP_5535_Files/ccsws2/test/c5535_bsl_revc/ezdsp5535_v1/c55xx_csl/inc/csl_usbAux.h"
    2065 00071b ED08          MOV dbl(*SP(#4)), AC0 ; |1176| 
         00071d 08   
    2066 00071e 1801          AND #0x0001, AC0, AC0 ; |1176| 
         000720 00   
    2067 000721 0400          BCC $C$L43,AC0 == #0 ; |1176| 
         000723 30   
    2068                                                      ; branchcc occurs ; |1176| 
    2069                      .dwpsn  file "F:/eZDSP_5535_Files/ccsws2/test/c5535_bsl_revc/ezdsp5535_v1/c55xx_csl/inc/csl_usbAux.h"
    2070 000724 7600          MOV #50, T0 ; |1179| 
         000726 3248 
    2071 000728 AB31          MOV *(#_sysCtrlRegs), AR3 ; |1179| 
         00072a 0000 
         00072c 00!  
    2072 00072d A96B          MOV port(*AR3(T0)), AR1 ; |1179| 
         00072f 99   
    2073 000730 7DFF          AND #0xfffc, AR1, AC0 ; |1179| 
         000732 FC09 
    2074 000734 EC02          BSET @#1, AC0 ; |1179| 
         000736 00   
    2075 000737 C06B          MOV AC0, port(*AR3(T0)) ; |1179| 
         000739 9A   
    2076                      .dwpsn  file "F:/eZDSP_5535_Files/ccsws2/test/c5535_bsl_revc/ezdsp5535_v1/c55xx_csl/inc/csl_usbAux.h"
    2077 00073a AB26          MOV *SP(#19), AR3 ; |1181| 
    2078 00073c ED14          MOV dbl(*SP(#10)), XAR2
         00073e AF   
    2079 00073f DF61          MOV uns(low_byte(port(*AR3))), AR1 ; |1181| 
         000741 93   
         000742 99   
    2080 000743 C941          MOV AR1, *AR2 ; |1181| 
TMS320C55x Assembler PC v4.4.1 Mon Aug 15 03:55:17 2016

Tools Copyright (c) 1996-2012 Texas Instruments Incorporated
usb.asm                                                              PAGE   49

    2081                      .dwpsn  file "F:/eZDSP_5535_Files/ccsws2/test/c5535_bsl_revc/ezdsp5535_v1/c55xx_csl/inc/csl_usbAux.h"
    2082 000745 AB31          MOV *(#_sysCtrlRegs), AR3 ; |1184| 
         000747 0000 
         000749 00!  
    2083 00074a A96B          MOV port(*AR3(T0)), AR1 ; |1184| 
         00074c 99   
    2084 00074d 7DFF          AND #0xfffc, AR1, AC0 ; |1184| 
         00074f FC09 
    2085 000751 C06B          MOV AC0, port(*AR3(T0)) ; |1184| 
         000753 9A   
    2086 000754       $C$L43:    
    2087                      .dwpsn  file "F:/eZDSP_5535_Files/ccsws2/test/c5535_bsl_revc/ezdsp5535_v1/c55xx_csl/inc/csl_usbAux.h"
    2088 000754 ED18          MOV dbl(*SP(#12)), XAR3
         000756 BF   
    2089 000757 ED10          MOV dbl(*SP(#8)), AC0 ; |1189| 
         000759 08   
    2090 00075a ED6D          ADD dbl(*AR3(#8)), AC0, AC0 ; |1189| 
         00075c 0000 
         00075e 08   
    2091 00075f EB6D          MOV AC0, dbl(*AR3(#8)) ; |1189| 
         000761 0800 
         000763 08   
    2092                      .dwpsn  file "F:/eZDSP_5535_Files/ccsws2/test/c5535_bsl_revc/ezdsp5535_v1/c55xx_csl/inc/csl_usbAux.h"
    2093 000764 ED18          MOV dbl(*SP(#12)), XAR3
         000766 BF   
    2094 000767 ED10          MOV dbl(*SP(#8)), AC0 ; |1190| 
         000769 08   
    2095 00076a EB6D          MOV AC0, dbl(*AR3(#10)) ; |1190| 
         00076c 0800 
         00076e 0A   
    2096                      .dwpsn  file "F:/eZDSP_5535_Files/ccsws2/test/c5535_bsl_revc/ezdsp5535_v1/c55xx_csl/inc/csl_usbAux.h"
    2097 00076f ED18          MOV dbl(*SP(#12)), XAR3
         000771 BF   
    2098 000772 ED6D          MOV dbl(*AR3(#8)), AC1 ; |1192| 
         000774 1800 
         000776 08   
    2099 000777 ED7D          MOV dbl(*AR3(short(#6))), AC0 ; |1192| 
         000779 08   
    2100 00077a 1210          CMPU AC1 == AC0, TC1 ; |1192| 
         00077c 04   
    2101 00077d 62E4          BCC $C$L44,TC1 ; |1192| 
    2102                                                      ; branchcc occurs ; |1192| 
    2103 00077f ED10          MOV dbl(*SP(#8)), AC0 ; |1192| 
         000781 08   
    2104 000782 6290          BCC $C$L45,AC0 != #0 ; |1192| 
    2105                                                      ; branchcc occurs ; |1192| 
    2106 000784       $C$L44:    
    2107                      .dwpsn  file "F:/eZDSP_5535_Files/ccsws2/test/c5535_bsl_revc/ezdsp5535_v1/c55xx_csl/inc/csl_usbAux.h"
    2108 000784 E66D          MOV #1, *AR3(#12) ; |1195| 
         000786 0100 
         000788 0C   
    2109 000789       $C$L45:    
    2110                      .dwpsn  file "F:/eZDSP_5535_Files/ccsws2/test/c5535_bsl_revc/ezdsp5535_v1/c55xx_csl/inc/csl_usbAux.h"
    2111 000789 7604          MOV #1038, T0 ; |1199| 
         00078b 0E48 
TMS320C55x Assembler PC v4.4.1 Mon Aug 15 03:55:17 2016

Tools Copyright (c) 1996-2012 Texas Instruments Incorporated
usb.asm                                                              PAGE   50

    2112 00078d AB31          MOV *(#_usbRegisters), AR3 ; |1199| 
         00078f 0000 
         000791 00!  
    2113 000792 A96B          MOV port(*AR3(T0)), AR1 ; |1199| 
         000794 99   
    2114 000795 C91E          MOV AR1, *SP(#15) ; |1199| 
    2115                      .dwpsn  file "F:/eZDSP_5535_Files/ccsws2/test/c5535_bsl_revc/ezdsp5535_v1/c55xx_csl/inc/csl_usbAux.h"
    2116 000797 A96B          MOV port(*AR3(T0)), AR1 ; |1201| 
         000799 99   
    2117 00079a 7DFF          AND #0xfff0, AR1, AC0 ; |1201| 
         00079c F009 
    2118 00079e C06B          MOV AC0, port(*AR3(T0)) ; |1201| 
         0007a0 9A   
    2119                      .dwpsn  file "F:/eZDSP_5535_Files/ccsws2/test/c5535_bsl_revc/ezdsp5535_v1/c55xx_csl/inc/csl_usbAux.h"
    2120 0007a1 AB31          MOV *(#_usbRegisters), AR3 ; |1205| 
         0007a3 0000 
         0007a5 00!  
    2121 0007a6 ED04          MOV dbl(*SP(#2)), AC0 ; |1205| 
         0007a8 08   
    2122 0007a9 180F          AND #0x000f, AC0, AC0 ; |1205| 
         0007ab 00   
    2123 0007ac A96B          MOV port(*AR3(T0)), AR1 ; |1205| 
         0007ae 99   
    2124 0007af 7DFF          AND #0xfff0, AR1, AC1 ; |1205| 
         0007b1 F019 
    2125 0007b3 2A10          OR AC1, AC0 ; |1205| 
    2126 0007b5 C06B          MOV AC0, port(*AR3(T0)) ; |1205| 
         0007b7 9A   
    2127                      .dwpsn  file "F:/eZDSP_5535_Files/ccsws2/test/c5535_bsl_revc/ezdsp5535_v1/c55xx_csl/inc/csl_usbAux.h"
    2128 0007b8 ED20          MOV dbl(*SP(#16)), XAR3
         0007ba BF   
    2129 0007bb F075          CMP *AR3(short(#2)) == #3, TC1 ; |1208| 
         0007bd 0003 
    2130 0007bf 6774          BCC $C$L46,!TC1 ; |1208| 
    2131                                                      ; branchcc occurs ; |1208| 
    2132                      .dwpsn  file "F:/eZDSP_5535_Files/ccsws2/test/c5535_bsl_revc/ezdsp5535_v1/c55xx_csl/inc/csl_usbAux.h"
    2133 0007c1 7604          MOV #1046, T0 ; |1211| 
         0007c3 1648 
    2134 0007c5 AB31          MOV *(#_usbRegisters), AR3 ; |1211| 
         0007c7 0000 
         0007c9 00!  
    2135 0007ca F56B          OR #0x0080, port(*AR3(T0)) ; |1211| 
         0007cc 0080 
         0007ce 9A   
    2136 0007cf       $C$L46:    
    2137                      .dwpsn  file "F:/eZDSP_5535_Files/ccsws2/test/c5535_bsl_revc/ezdsp5535_v1/c55xx_csl/inc/csl_usbAux.h"
    2138 0007cf 7604          MOV #1046, T0 ; |1215| 
         0007d1 1648 
    2139 0007d3 AB31          MOV *(#_usbRegisters), AR3 ; |1215| 
         0007d5 0000 
         0007d7 00!  
    2140 0007d8 A96B          MOV port(*AR3(T0)), AR1 ; |1215| 
         0007da 99   
    2141 0007db EC00          BCLR @#0, AR1 ; |1215| 
         0007dd 92   
TMS320C55x Assembler PC v4.4.1 Mon Aug 15 03:55:17 2016

Tools Copyright (c) 1996-2012 Texas Instruments Incorporated
usb.asm                                                              PAGE   51

    2142 0007de C96B          MOV AR1, port(*AR3(T0)) ; |1215| 
         0007e0 9A   
    2143                      .dwpsn  file "F:/eZDSP_5535_Files/ccsws2/test/c5535_bsl_revc/ezdsp5535_v1/c55xx_csl/inc/csl_usbAux.h"
    2144 0007e1 7604          MOV #1038, T0 ; |1219| 
         0007e3 0E48 
    2145 0007e5 AB31          MOV *(#_usbRegisters), AR3 ; |1219| 
         0007e7 0000 
         0007e9 00!  
    2146 0007ea A91E          MOV *SP(#15), AR1 ; |1219| 
    2147 0007ec C96B          MOV AR1, port(*AR3(T0)) ; |1219| 
         0007ee 9A   
    2148                      .dwpsn  file "F:/eZDSP_5535_Files/ccsws2/test/c5535_bsl_revc/ezdsp5535_v1/c55xx_csl/inc/csl_usbAux.h"
    2149 0007ef ED18          MOV dbl(*SP(#12)), XAR3
         0007f1 BF   
    2150 0007f2 F06D          CMP *AR3(#12) == #1, TC1 ; |1221| 
         0007f4 0001 
         0007f6 000C 
    2151 0007f8 0474          BCC $C$L49,!TC1 ; |1221| 
         0007fa 22   
    2152                                                      ; branchcc occurs ; |1221| 
    2153                      .dwpsn  file "F:/eZDSP_5535_Files/ccsws2/test/c5535_bsl_revc/ezdsp5535_v1/c55xx_csl/inc/csl_usbAux.h"
    2154 0007fb ED00          MOV dbl(*SP(#0)), XAR3
         0007fd BF   
    2155 0007fe E67D          MOV #0, *AR3(short(#6)) ; |1223| 
         000800 00   
    2156                      .dwpsn  file "F:/eZDSP_5535_Files/ccsws2/test/c5535_bsl_revc/ezdsp5535_v1/c55xx_csl/inc/csl_usbAux.h"
    2157 000801 ED00          MOV dbl(*SP(#0)), XAR3
         000803 BF   
    2158 000804 ED00          MOV dbl(*SP(#0)), XAR0
         000806 8F   
    2159 000807 ED20          MOV dbl(*SP(#16)), XAR1
         000809 9F   
    2160 00080a ED6D          MOV dbl(*AR3(#116)), AC0 ; |1234| 
         00080c 0800 
         00080e 74   
    2161              $C$DW$183       .dwtag  DW_TAG_TI_branch
    2162                      .dwattr $C$DW$183, DW_AT_low_pc(0x00)
    2163                      .dwattr $C$DW$183, DW_AT_TI_call
    2164                      .dwattr $C$DW$183, DW_AT_TI_indirect
    2165 00080f 9200          CALL AC0  ; |1234| 
    2166                                                      ; call occurs [AC0] ; |1234| 
    2167 000811 C41C          MOV T0, *SP(#14) ; |1234| 
    2168                      .dwpsn  file "F:/eZDSP_5535_Files/ccsws2/test/c5535_bsl_revc/ezdsp5535_v1/c55xx_csl/inc/csl_usbAux.h"
    2169 000813 4A08          B $C$L49  ; |1237| 
    2170                                                      ; branch occurs ; |1237| 
    2171 000815       $C$L47:    
    2172                      .dwpsn  file "F:/eZDSP_5535_Files/ccsws2/test/c5535_bsl_revc/ezdsp5535_v1/c55xx_csl/inc/csl_usbAux.h"
    2173 000815 E61C          MOV #-6, *SP(#14) ; |1240| 
         000817 FA   
    2174                      .dwpsn  file "F:/eZDSP_5535_Files/ccsws2/test/c5535_bsl_revc/ezdsp5535_v1/c55xx_csl/inc/csl_usbAux.h"
    2175 000818 4A03          B $C$L49  ; |1242| 
    2176                                                      ; branch occurs ; |1242| 
    2177 00081a       $C$L48:    
    2178                      .dwpsn  file "F:/eZDSP_5535_Files/ccsws2/test/c5535_bsl_revc/ezdsp5535_v1/c55xx_csl/inc/csl_usbAux.h"
    2179 00081a E61C          MOV #-6, *SP(#14) ; |1245| 
TMS320C55x Assembler PC v4.4.1 Mon Aug 15 03:55:17 2016

Tools Copyright (c) 1996-2012 Texas Instruments Incorporated
usb.asm                                                              PAGE   52

         00081c FA   
    2180 00081d       $C$L49:    
    2181                      .dwpsn  file "F:/eZDSP_5535_Files/ccsws2/test/c5535_bsl_revc/ezdsp5535_v1/c55xx_csl/inc/csl_usbAux.h"
    2182 00081d A41C          MOV *SP(#14), T0 ; |1248| 
    2183                      .dwpsn  file "F:/eZDSP_5535_Files/ccsws2/test/c5535_bsl_revc/ezdsp5535_v1/c55xx_csl/inc/csl_usbAux.h"
    2184 00081f 4E15          AADD #21, SP
    2185                      .dwcfi  cfa_offset, 1
    2186              $C$DW$184       .dwtag  DW_TAG_TI_branch
    2187                      .dwattr $C$DW$184, DW_AT_low_pc(0x00)
    2188                      .dwattr $C$DW$184, DW_AT_TI_return
    2189 000821 4804          RET
    2190                                                      ; return occurs
    2191              
    2192              $C$DW$185       .dwtag  DW_TAG_TI_loop
    2193                      .dwattr $C$DW$185, DW_AT_name("F:\eZDSP_5535_Files\ccsws2\test\Debug\usb.asm:$C$L41:1:1471258514")
    2194                      .dwattr $C$DW$185, DW_AT_TI_begin_file("F:/eZDSP_5535_Files/ccsws2/test/c5535_bsl_revc/ezdsp5535_v1/c
    2195                      .dwattr $C$DW$185, DW_AT_TI_begin_line(0x493)
    2196                      .dwattr $C$DW$185, DW_AT_TI_end_line(0x496)
    2197              $C$DW$186       .dwtag  DW_TAG_TI_loop_range
    2198                      .dwattr $C$DW$186, DW_AT_low_pc($C$DW$L$_USB_handleRx$15$B)
    2199                      .dwattr $C$DW$186, DW_AT_high_pc($C$DW$L$_USB_handleRx$15$E)
    2200                      .dwendtag $C$DW$185
    2201              
    2202                      .dwattr $C$DW$166, DW_AT_TI_end_file("F:/eZDSP_5535_Files/ccsws2/test/c5535_bsl_revc/ezdsp5535_v1/c55
    2203                      .dwattr $C$DW$166, DW_AT_TI_end_line(0x4e1)
    2204                      .dwattr $C$DW$166, DW_AT_TI_end_column(0x01)
    2205                      .dwendentry
    2206                      .dwendtag $C$DW$166
    2207              
    2208 000823               .sect   ".text"
    2209                      .align 4
    2210                      .global _usb_test
    2211              
    2212              $C$DW$187       .dwtag  DW_TAG_subprogram, DW_AT_name("usb_test")
    2213                      .dwattr $C$DW$187, DW_AT_low_pc(_usb_test)
    2214                      .dwattr $C$DW$187, DW_AT_high_pc(0x00)
    2215                      .dwattr $C$DW$187, DW_AT_TI_symbol_name("_usb_test")
    2216                      .dwattr $C$DW$187, DW_AT_external
    2217                      .dwattr $C$DW$187, DW_AT_type(*$C$DW$T$80)
    2218                      .dwattr $C$DW$187, DW_AT_TI_begin_file("../c5535_bsl_revc/ezdsp5535_v1/boot_post_SDcard/boot_post/usb
    2219                      .dwattr $C$DW$187, DW_AT_TI_begin_line(0x9e)
    2220                      .dwattr $C$DW$187, DW_AT_TI_begin_column(0x0c)
    2221                      .dwattr $C$DW$187, DW_AT_TI_max_frame_size(0x0e)
    2222                      .dwpsn  file "../c5535_bsl_revc/ezdsp5535_v1/boot_post_SDcard/boot_post/usb.c",line 159,column 1,is_s
    2223              
    2224                      .dwfde $C$DW$CIE, _usb_test
    2225              ;*******************************************************************************
    2226              ;* FUNCTION NAME: usb_test                                                     *
    2227              ;*                                                                             *
    2228              ;*   Function Uses Regs : AC0,AC0,T0,T1,AR0,XAR0,AR1,AR2,AR3,XAR3,SP,TC1,M40,  *
    2229              ;*                        SATA,SATD,RDM,FRCT,SMUL                              *
    2230              ;*   Stack Frame        : Compact (No Frame Pointer, w/ debug)                 *
    2231              ;*   Total Frame Size   : 14 words                                             *
    2232              ;*                        (2 return address/alignment)                         *
    2233              ;*                        (2 function parameters)                              *
TMS320C55x Assembler PC v4.4.1 Mon Aug 15 03:55:17 2016

Tools Copyright (c) 1996-2012 Texas Instruments Incorporated
usb.asm                                                              PAGE   53

    2234              ;*                        (10 local values)                                    *
    2235              ;*   Min System Stack   : 1 word                                               *
    2236              ;*******************************************************************************
    2237 000824       _usb_test:
    2238                      .dwcfi  cfa_offset, 1
    2239                      .dwcfi  save_reg_to_mem, 91, -1
    2240 000824 4EF3          AADD #-13, SP
    2241                      .dwcfi  cfa_offset, 14
    2242              $C$DW$188       .dwtag  DW_TAG_variable, DW_AT_name("config")
    2243                      .dwattr $C$DW$188, DW_AT_TI_symbol_name("_config")
    2244                      .dwattr $C$DW$188, DW_AT_type(*$C$DW$T$141)
    2245                      .dwattr $C$DW$188, DW_AT_location[DW_OP_bregx 0x24 2]
    2246              $C$DW$189       .dwtag  DW_TAG_variable, DW_AT_name("result")
    2247                      .dwattr $C$DW$189, DW_AT_TI_symbol_name("_result")
    2248                      .dwattr $C$DW$189, DW_AT_type(*$C$DW$T$80)
    2249                      .dwattr $C$DW$189, DW_AT_location[DW_OP_bregx 0x24 10]
    2250              $C$DW$190       .dwtag  DW_TAG_variable, DW_AT_name("eventMask")
    2251                      .dwattr $C$DW$190, DW_AT_TI_symbol_name("_eventMask")
    2252                      .dwattr $C$DW$190, DW_AT_type(*$C$DW$T$19)
    2253                      .dwattr $C$DW$190, DW_AT_location[DW_OP_bregx 0x24 11]
    2254                      .dwpsn  file "../c5535_bsl_revc/ezdsp5535_v1/boot_post_SDcard/boot_post/usb.c",line 164,column 2,is_s
    2255 000826 E614          MOV #1, *SP(#10) ; |164| 
         000828 01   
    2256                      .dwpsn  file "../c5535_bsl_revc/ezdsp5535_v1/boot_post_SDcard/boot_post/usb.c",line 166,column 2,is_s
    2257 000829 E631          MOV #0, *(#(_usbConfig+1)) ; |166| 
         00082b 0000 
         00082d 0063-
    2258                      .dwpsn  file "../c5535_bsl_revc/ezdsp5535_v1/boot_post_SDcard/boot_post/usb.c",line 167,column 5,is_s
    2259 00082f E631          MOV #0, *(#_usbConfig) ; |167| 
         000831 0000 
         000833 0062-
    2260                      .dwpsn  file "../c5535_bsl_revc/ezdsp5535_v1/boot_post_SDcard/boot_post/usb.c",line 168,column 2,is_s
    2261 000835 E631          MOV #50, *(#(_usbConfig+2)) ; |168| 
         000837 3200 
         000839 0064-
    2262                      .dwpsn  file "../c5535_bsl_revc/ezdsp5535_v1/boot_post_SDcard/boot_post/usb.c",line 169,column 2,is_s
    2263 00083b 7A00          MOV #(_CSL_suspendCallBack >> 16) << #16, AC0 ; |169| 
         00083d 000A%
    2264 00083f 7E00          OR #(_CSL_suspendCallBack & 0xffff), AC0, AC0 ; |169| 
         000841 0000%
    2265 000843 EB31          MOV AC0, dbl(*(#(_usbConfig+4))) ; |169| 
         000845 0800 
         000847 0066-
    2266                      .dwpsn  file "../c5535_bsl_revc/ezdsp5535_v1/boot_post_SDcard/boot_post/usb.c",line 170,column 2,is_s
    2267 000849 7A00          MOV #(_CSL_selfWakeupCallBack >> 16) << #16, AC0 ; |170| 
         00084b 000A%
    2268 00084d 7E00          OR #(_CSL_selfWakeupCallBack & 0xffff), AC0, AC0 ; |170| 
         00084f 0000%
    2269 000851 EB31          MOV AC0, dbl(*(#(_usbConfig+6))) ; |170| 
         000853 0800 
         000855 0068-
    2270                      .dwpsn  file "../c5535_bsl_revc/ezdsp5535_v1/boot_post_SDcard/boot_post/usb.c",line 171,column 2,is_s
    2271 000857 7A00          MOV #(_CSL_startTransferCallback >> 16) << #16, AC0 ; |171| 
         000859 000A%
    2272 00085b 7E00          OR #(_CSL_startTransferCallback & 0xffff), AC0, AC0 ; |171| 
TMS320C55x Assembler PC v4.4.1 Mon Aug 15 03:55:17 2016

Tools Copyright (c) 1996-2012 Texas Instruments Incorporated
usb.asm                                                              PAGE   54

         00085d 0000%
    2273 00085f EB31          MOV AC0, dbl(*(#(_usbConfig+8))) ; |171| 
         000861 0800 
         000863 006A-
    2274                      .dwpsn  file "../c5535_bsl_revc/ezdsp5535_v1/boot_post_SDcard/boot_post/usb.c",line 172,column 2,is_s
    2275 000865 7A00          MOV #(_CSL_completeTransferCallback >> 16) << #16, AC0 ; |172| 
         000867 000A%
    2276 000869 7E00          OR #(_CSL_completeTransferCallback & 0xffff), AC0, AC0 ; |172| 
         00086b 0000%
    2277 00086d EB31          MOV AC0, dbl(*(#(_usbConfig+10))) ; |172| 
         00086f 0800 
         000871 006C-
    2278                      .dwpsn  file "../c5535_bsl_revc/ezdsp5535_v1/boot_post_SDcard/boot_post/usb.c",line 174,column 2,is_s
    2279 000873 EC31          AMOV #_usbCtrlOutEpObj, XAR3 ; |174| 
         000875 BE00 
         000877 0012-
    2280 000879 EB31          MOV XAR3, dbl(*(#_hEpObjArray))
         00087b B500 
         00087d 0000-
    2281                      .dwpsn  file "../c5535_bsl_revc/ezdsp5535_v1/boot_post_SDcard/boot_post/usb.c",line 175,column 2,is_s
    2282 00087f EC31          AMOV #_usbCtrlInEpObj, XAR3 ; |175| 
         000881 BE00 
         000883 0026-
    2283 000885 EB31          MOV XAR3, dbl(*(#(_hEpObjArray+2)))
         000887 B500 
         000889 0002-
    2284                      .dwpsn  file "../c5535_bsl_revc/ezdsp5535_v1/boot_post_SDcard/boot_post/usb.c",line 176,column 2,is_s
    2285 00088b EC31          AMOV #_usbBulkOutEpObj, XAR3 ; |176| 
         00088d BE00 
         00088f 003A-
    2286 000891 EB31          MOV XAR3, dbl(*(#(_hEpObjArray+4)))
         000893 B500 
         000895 0004-
    2287                      .dwpsn  file "../c5535_bsl_revc/ezdsp5535_v1/boot_post_SDcard/boot_post/usb.c",line 177,column 2,is_s
    2288 000897 EC31          AMOV #_usbBulkInEpObj, XAR3 ; |177| 
         000899 BE00 
         00089b 004E-
    2289 00089d EB31          MOV XAR3, dbl(*(#(_hEpObjArray+6)))
         00089f B500 
         0008a1 0006-
    2290                      .dwpsn  file "../c5535_bsl_revc/ezdsp5535_v1/boot_post_SDcard/boot_post/usb.c",line 180,column 2,is_s
    2291 0008a3 7A00          MOV #(_VECSTART >> 16) << #16, AC0 ; |180| 
         0008a5 000A%
    2292 0008a7 7E00          OR #(_VECSTART & 0xffff), AC0, AC0 ; |180| 
         0008a9 0000%
    2293              $C$DW$191       .dwtag  DW_TAG_TI_branch
    2294                      .dwattr $C$DW$191, DW_AT_low_pc(0x00)
    2295                      .dwattr $C$DW$191, DW_AT_name("_IRQ_setVecs")
    2296                      .dwattr $C$DW$191, DW_AT_TI_call
    2297 0008ab 6C00          CALL #_IRQ_setVecs ; |180| 
         0008ad 0000!
    2298                                                      ; call occurs [#_IRQ_setVecs] ; |180| 
    2299                      .dwpsn  file "../c5535_bsl_revc/ezdsp5535_v1/boot_post_SDcard/boot_post/usb.c",line 183,column 2,is_s
    2300 0008af 7A00          MOV #(_usb_isr >> 16) << #16, AC0 ; |183| 
         0008b1 000A%
TMS320C55x Assembler PC v4.4.1 Mon Aug 15 03:55:17 2016

Tools Copyright (c) 1996-2012 Texas Instruments Incorporated
usb.asm                                                              PAGE   55

    2301 0008b3 7E00          OR #(_usb_isr & 0xffff), AC0, AC0 ; |183| 
         0008b5 0000%
    2302 0008b7 EB04          MOV AC0, dbl(*SP(#2)) ; |183| 
         0008b9 08   
    2303                      .dwpsn  file "../c5535_bsl_revc/ezdsp5535_v1/boot_post_SDcard/boot_post/usb.c",line 184,column 2,is_s
    2304 0008ba 7600          MOV #20, T0 ; |184| 
         0008bc 1448 
    2305 0008be ED04          MOV dbl(*SP(#2)), AC0 ; |184| 
         0008c0 08   
    2306              $C$DW$192       .dwtag  DW_TAG_TI_branch
    2307                      .dwattr $C$DW$192, DW_AT_low_pc(0x00)
    2308                      .dwattr $C$DW$192, DW_AT_name("_IRQ_plug")
    2309                      .dwattr $C$DW$192, DW_AT_TI_call
    2310 0008c1 6C00          CALL #_IRQ_plug ; |184| 
         0008c3 0000!
    2311                                                      ; call occurs [#_IRQ_plug] ; |184| 
    2312                      .dwpsn  file "../c5535_bsl_revc/ezdsp5535_v1/boot_post_SDcard/boot_post/usb.c",line 187,column 2,is_s
    2313 0008c5 7600          MOV #20, T0 ; |187| 
         0008c7 1448 
    2314              $C$DW$193       .dwtag  DW_TAG_TI_branch
    2315                      .dwattr $C$DW$193, DW_AT_low_pc(0x00)
    2316                      .dwattr $C$DW$193, DW_AT_name("_IRQ_enable")
    2317                      .dwattr $C$DW$193, DW_AT_TI_call
    2318 0008c9 6C00          CALL #_IRQ_enable ; |187| 
         0008cb 0000!
    2319                                                      ; call occurs [#_IRQ_enable] ; |187| 
    2320                      .dwpsn  file "../c5535_bsl_revc/ezdsp5535_v1/boot_post_SDcard/boot_post/usb.c",line 189,column 2,is_s
    2321              $C$DW$194       .dwtag  DW_TAG_TI_branch
    2322                      .dwattr $C$DW$194, DW_AT_low_pc(0x00)
    2323                      .dwattr $C$DW$194, DW_AT_name("_IRQ_globalEnable")
    2324                      .dwattr $C$DW$194, DW_AT_TI_call
    2325 0008cd 6C00          CALL #_IRQ_globalEnable ; |189| 
         0008cf 0000!
    2326                                                      ; call occurs [#_IRQ_globalEnable] ; |189| 
    2327                      .dwpsn  file "../c5535_bsl_revc/ezdsp5535_v1/boot_post_SDcard/boot_post/usb.c",line 192,column 2,is_s
    2328 0008d1 EC31          AMOV #_usbConfig, XAR0 ; |192| 
         0008d3 8E00 
         0008d5 0062-
    2329              $C$DW$195       .dwtag  DW_TAG_TI_branch
    2330                      .dwattr $C$DW$195, DW_AT_low_pc(0x00)
    2331                      .dwattr $C$DW$195, DW_AT_name("_USB_init")
    2332                      .dwattr $C$DW$195, DW_AT_TI_call
    2333 0008d7 6C00          CALL #_USB_init ; |192| 
         0008d9 0000!
    2334                                                      ; call occurs [#_USB_init] ; |192| 
    2335 0008db C431          MOV T0, *(#_status) ; |192| 
         0008dd 0000 
         0008df 75-  
    2336                      .dwpsn  file "../c5535_bsl_revc/ezdsp5535_v1/boot_post_SDcard/boot_post/usb.c",line 193,column 2,is_s
    2337 0008e0 2249          MOV T0, AR1
    2338 0008e2 0409          BCC $C$L50,AR1 == #0 ; |193| 
         0008e4 12   
    2339                                                      ; branchcc occurs ; |193| 
    2340                      .dwpsn  file "../c5535_bsl_revc/ezdsp5535_v1/boot_post_SDcard/boot_post/usb.c",line 195,column 3,is_s
    2341 0008e5 EC31          AMOV #$C$FSL1, XAR3 ; |195| 
TMS320C55x Assembler PC v4.4.1 Mon Aug 15 03:55:17 2016

Tools Copyright (c) 1996-2012 Texas Instruments Incorporated
usb.asm                                                              PAGE   56

         0008e7 BE00 
         0008e9 0000+
    2342 0008eb EB00          MOV XAR3, dbl(*SP(#0))
         0008ed B5   
    2343              $C$DW$196       .dwtag  DW_TAG_TI_branch
    2344                      .dwattr $C$DW$196, DW_AT_low_pc(0x00)
    2345                      .dwattr $C$DW$196, DW_AT_name("_printf")
    2346                      .dwattr $C$DW$196, DW_AT_TI_call
    2347 0008ee 6C00          CALL #_printf ; |195| 
         0008f0 0000!
    2348                                                      ; call occurs [#_printf] ; |195| 
    2349                      .dwpsn  file "../c5535_bsl_revc/ezdsp5535_v1/boot_post_SDcard/boot_post/usb.c",line 196,column 3,is_s
    2350 0008f2 A414          MOV *SP(#10), T0 ; |196| 
    2351 0008f4 0601          B $C$L60  ; |196| 
         0008f6 9C   
    2352                                                      ; branch occurs ; |196| 
    2353 0008f7       $C$L50:    
    2354                      .dwpsn  file "../c5535_bsl_revc/ezdsp5535_v1/boot_post_SDcard/boot_post/usb.c",line 200,column 2,is_s
    2355              $C$DW$197       .dwtag  DW_TAG_TI_branch
    2356                      .dwattr $C$DW$197, DW_AT_low_pc(0x00)
    2357                      .dwattr $C$DW$197, DW_AT_name("_USB_resetDev")
    2358                      .dwattr $C$DW$197, DW_AT_TI_call
    2359              
    2360 0008f7 6C00          CALL #_USB_resetDev ; |200| 
         0008f9 0000!
    2361 0008fb 3D04  ||      MOV #0, T0
    2362              
    2363                                                      ; call occurs [#_USB_resetDev] ; |200| 
    2364 0008fd C431          MOV T0, *(#_status) ; |200| 
         0008ff 0000 
         000901 75-  
    2365                      .dwpsn  file "../c5535_bsl_revc/ezdsp5535_v1/boot_post_SDcard/boot_post/usb.c",line 201,column 2,is_s
    2366 000902 2249          MOV T0, AR1
    2367 000904 0409          BCC $C$L51,AR1 == #0 ; |201| 
         000906 12   
    2368                                                      ; branchcc occurs ; |201| 
    2369                      .dwpsn  file "../c5535_bsl_revc/ezdsp5535_v1/boot_post_SDcard/boot_post/usb.c",line 203,column 3,is_s
    2370 000907 EC31          AMOV #$C$FSL2, XAR3 ; |203| 
         000909 BE00 
         00090b 0012+
    2371 00090d EB00          MOV XAR3, dbl(*SP(#0))
         00090f B5   
    2372              $C$DW$198       .dwtag  DW_TAG_TI_branch
    2373                      .dwattr $C$DW$198, DW_AT_low_pc(0x00)
    2374                      .dwattr $C$DW$198, DW_AT_name("_printf")
    2375                      .dwattr $C$DW$198, DW_AT_TI_call
    2376 000910 6C00          CALL #_printf ; |203| 
         000912 0000!
    2377                                                      ; call occurs [#_printf] ; |203| 
    2378                      .dwpsn  file "../c5535_bsl_revc/ezdsp5535_v1/boot_post_SDcard/boot_post/usb.c",line 204,column 3,is_s
    2379 000914 A414          MOV *SP(#10), T0 ; |204| 
    2380 000916 0601          B $C$L60  ; |204| 
         000918 7A   
    2381                                                      ; branch occurs ; |204| 
    2382 000919       $C$L51:    
TMS320C55x Assembler PC v4.4.1 Mon Aug 15 03:55:17 2016

Tools Copyright (c) 1996-2012 Texas Instruments Incorporated
usb.asm                                                              PAGE   57

    2383                      .dwpsn  file "../c5535_bsl_revc/ezdsp5535_v1/boot_post_SDcard/boot_post/usb.c",line 208,column 2,is_s
    2384 000919 E616          MOV #61, *SP(#11) ; |208| 
         00091b 3D   
    2385                      .dwpsn  file "../c5535_bsl_revc/ezdsp5535_v1/boot_post_SDcard/boot_post/usb.c",line 212,column 2,is_s
    2386 00091c ED31          MOV dbl(*(#_hEpObjArray)), XAR0
         00091e 8F00 
         000920 0000-
    2387 000922 3C05          MOV #0, T1
    2388              
    2389 000928 3D04          MOV #0, T0
    2390 000924 7600  ||      MOV #64, AR2 ; |212| 
         000926 40A8 
    2391              
    2392 00092a AB16          MOV *SP(#11), AR3 ; |212| 
    2393 00092c 3D09  ||      MOV #0, AR1
    2394              
    2395              $C$DW$199       .dwtag  DW_TAG_TI_branch
    2396                      .dwattr $C$DW$199, DW_AT_low_pc(0x00)
    2397                      .dwattr $C$DW$199, DW_AT_name("_USB_initEndptObj")
    2398                      .dwattr $C$DW$199, DW_AT_TI_call
    2399              
    2400 00092e 6C00          CALL #_USB_initEndptObj ; |212| 
         000930 0000!
    2401 000932 3D00  ||      MOV #0, AC0 ; |212| 
    2402              
    2403                                                      ; call occurs [#_USB_initEndptObj] ; |212| 
    2404 000934 C431          MOV T0, *(#_status) ; |212| 
         000936 0000 
         000938 75-  
    2405                      .dwpsn  file "../c5535_bsl_revc/ezdsp5535_v1/boot_post_SDcard/boot_post/usb.c",line 215,column 2,is_s
    2406 000939 2249          MOV T0, AR1
    2407 00093b 0409          BCC $C$L52,AR1 == #0 ; |215| 
         00093d 12   
    2408                                                      ; branchcc occurs ; |215| 
    2409                      .dwpsn  file "../c5535_bsl_revc/ezdsp5535_v1/boot_post_SDcard/boot_post/usb.c",line 217,column 3,is_s
    2410 00093e EC31          AMOV #$C$FSL3, XAR3 ; |217| 
         000940 BE00 
         000942 0024+
    2411 000944 EB00          MOV XAR3, dbl(*SP(#0))
         000946 B5   
    2412              $C$DW$200       .dwtag  DW_TAG_TI_branch
    2413                      .dwattr $C$DW$200, DW_AT_low_pc(0x00)
    2414                      .dwattr $C$DW$200, DW_AT_name("_printf")
    2415                      .dwattr $C$DW$200, DW_AT_TI_call
    2416 000947 6C00          CALL #_printf ; |217| 
         000949 0000!
    2417                                                      ; call occurs [#_printf] ; |217| 
    2418                      .dwpsn  file "../c5535_bsl_revc/ezdsp5535_v1/boot_post_SDcard/boot_post/usb.c",line 218,column 3,is_s
    2419 00094b A414          MOV *SP(#10), T0 ; |218| 
    2420 00094d 0601          B $C$L60  ; |218| 
         00094f 43   
    2421                                                      ; branch occurs ; |218| 
    2422 000950       $C$L52:    
    2423                      .dwpsn  file "../c5535_bsl_revc/ezdsp5535_v1/boot_post_SDcard/boot_post/usb.c",line 222,column 2,is_s
    2424 000950 ED31          MOV dbl(*(#(_hEpObjArray+2))), XAR0
TMS320C55x Assembler PC v4.4.1 Mon Aug 15 03:55:17 2016

Tools Copyright (c) 1996-2012 Texas Instruments Incorporated
usb.asm                                                              PAGE   58

         000952 8F00 
         000954 0002-
    2425 000956 3C09          MOV #0, AR1
    2426              
    2427 00095c 3D85          MOV #8, T1
    2428 000958 7600  ||      MOV #64, AR2 ; |222| 
         00095a 40A8 
    2429              
    2430 000962 3D04          MOV #0, T0
    2431 00095e 7600  ||      MOV #32, AR3 ; |222| 
         000960 20B8 
    2432              
    2433              $C$DW$201       .dwtag  DW_TAG_TI_branch
    2434                      .dwattr $C$DW$201, DW_AT_low_pc(0x00)
    2435                      .dwattr $C$DW$201, DW_AT_name("_USB_initEndptObj")
    2436                      .dwattr $C$DW$201, DW_AT_TI_call
    2437              
    2438 000964 6C00          CALL #_USB_initEndptObj ; |222| 
         000966 0000!
    2439 000968 3D00  ||      MOV #0, AC0 ; |222| 
    2440              
    2441                                                      ; call occurs [#_USB_initEndptObj] ; |222| 
    2442 00096a C431          MOV T0, *(#_status) ; |222| 
         00096c 0000 
         00096e 75-  
    2443                      .dwpsn  file "../c5535_bsl_revc/ezdsp5535_v1/boot_post_SDcard/boot_post/usb.c",line 225,column 2,is_s
    2444 00096f 2249          MOV T0, AR1
    2445 000971 0409          BCC $C$L53,AR1 == #0 ; |225| 
         000973 12   
    2446                                                      ; branchcc occurs ; |225| 
    2447                      .dwpsn  file "../c5535_bsl_revc/ezdsp5535_v1/boot_post_SDcard/boot_post/usb.c",line 227,column 3,is_s
    2448 000974 EC31          AMOV #$C$FSL3, XAR3 ; |227| 
         000976 BE00 
         000978 0024+
    2449 00097a EB00          MOV XAR3, dbl(*SP(#0))
         00097c B5   
    2450              $C$DW$202       .dwtag  DW_TAG_TI_branch
    2451                      .dwattr $C$DW$202, DW_AT_low_pc(0x00)
    2452                      .dwattr $C$DW$202, DW_AT_name("_printf")
    2453                      .dwattr $C$DW$202, DW_AT_TI_call
    2454 00097d 6C00          CALL #_printf ; |227| 
         00097f 0000!
    2455                                                      ; call occurs [#_printf] ; |227| 
    2456                      .dwpsn  file "../c5535_bsl_revc/ezdsp5535_v1/boot_post_SDcard/boot_post/usb.c",line 228,column 3,is_s
    2457 000981 A414          MOV *SP(#10), T0 ; |228| 
    2458 000983 0601          B $C$L60  ; |228| 
         000985 0D   
    2459                                                      ; branch occurs ; |228| 
    2460 000986       $C$L53:    
    2461                      .dwpsn  file "../c5535_bsl_revc/ezdsp5535_v1/boot_post_SDcard/boot_post/usb.c",line 232,column 2,is_s
    2462 000986 E616          MOV #33, *SP(#11) ; |232| 
         000988 21   
    2463                      .dwpsn  file "../c5535_bsl_revc/ezdsp5535_v1/boot_post_SDcard/boot_post/usb.c",line 233,column 2,is_s
    2464 000989 ED31          MOV dbl(*(#(_hEpObjArray+4))), XAR0
         00098b 8F00 
TMS320C55x Assembler PC v4.4.1 Mon Aug 15 03:55:17 2016

Tools Copyright (c) 1996-2012 Texas Instruments Incorporated
usb.asm                                                              PAGE   59

         00098d 0004-
    2465 00098f 3C95          MOV #9, T1
    2466              
    2467 000995 3D04          MOV #0, T0
    2468 000991 7600  ||      MOV #64, AR2 ; |233| 
         000993 40A8 
    2469              
    2470 000997 AB16          MOV *SP(#11), AR3 ; |233| 
    2471 000999 3D19  ||      MOV #1, AR1
    2472              
    2473              $C$DW$203       .dwtag  DW_TAG_TI_branch
    2474                      .dwattr $C$DW$203, DW_AT_low_pc(0x00)
    2475                      .dwattr $C$DW$203, DW_AT_name("_USB_initEndptObj")
    2476                      .dwattr $C$DW$203, DW_AT_TI_call
    2477              
    2478 00099b 6C00          CALL #_USB_initEndptObj ; |233| 
         00099d 0000!
    2479 00099f 3D00  ||      MOV #0, AC0 ; |233| 
    2480              
    2481                                                      ; call occurs [#_USB_initEndptObj] ; |233| 
    2482 0009a1 C431          MOV T0, *(#_status) ; |233| 
         0009a3 0000 
         0009a5 75-  
    2483                      .dwpsn  file "../c5535_bsl_revc/ezdsp5535_v1/boot_post_SDcard/boot_post/usb.c",line 236,column 2,is_s
    2484 0009a6 2249          MOV T0, AR1
    2485 0009a8 0409          BCC $C$L54,AR1 == #0 ; |236| 
         0009aa 12   
    2486                                                      ; branchcc occurs ; |236| 
    2487                      .dwpsn  file "../c5535_bsl_revc/ezdsp5535_v1/boot_post_SDcard/boot_post/usb.c",line 238,column 3,is_s
    2488 0009ab EC31          AMOV #$C$FSL3, XAR3 ; |238| 
         0009ad BE00 
         0009af 0024+
    2489 0009b1 EB00          MOV XAR3, dbl(*SP(#0))
         0009b3 B5   
    2490              $C$DW$204       .dwtag  DW_TAG_TI_branch
    2491                      .dwattr $C$DW$204, DW_AT_low_pc(0x00)
    2492                      .dwattr $C$DW$204, DW_AT_name("_printf")
    2493                      .dwattr $C$DW$204, DW_AT_TI_call
    2494 0009b4 6C00          CALL #_printf ; |238| 
         0009b6 0000!
    2495                                                      ; call occurs [#_printf] ; |238| 
    2496                      .dwpsn  file "../c5535_bsl_revc/ezdsp5535_v1/boot_post_SDcard/boot_post/usb.c",line 239,column 3,is_s
    2497 0009b8 A414          MOV *SP(#10), T0 ; |239| 
    2498 0009ba 0600          B $C$L60  ; |239| 
         0009bc D6   
    2499                                                      ; branch occurs ; |239| 
    2500 0009bd       $C$L54:    
    2501                      .dwpsn  file "../c5535_bsl_revc/ezdsp5535_v1/boot_post_SDcard/boot_post/usb.c",line 243,column 2,is_s
    2502 0009bd ED31          MOV dbl(*(#(_hEpObjArray+6))), XAR0
         0009bf 8F00 
         0009c1 0006-
    2503 0009c3 3C19          MOV #1, AR1
    2504              
    2505 0009c9 3D15          MOV #1, T1
    2506 0009c5 7600  ||      MOV #64, AR2 ; |243| 
TMS320C55x Assembler PC v4.4.1 Mon Aug 15 03:55:17 2016

Tools Copyright (c) 1996-2012 Texas Instruments Incorporated
usb.asm                                                              PAGE   60

         0009c7 40A8 
    2507              
    2508 0009cf 3D04          MOV #0, T0
    2509 0009cb 7600  ||      MOV #32, AR3 ; |243| 
         0009cd 20B8 
    2510              
    2511              $C$DW$205       .dwtag  DW_TAG_TI_branch
    2512                      .dwattr $C$DW$205, DW_AT_low_pc(0x00)
    2513                      .dwattr $C$DW$205, DW_AT_name("_USB_initEndptObj")
    2514                      .dwattr $C$DW$205, DW_AT_TI_call
    2515              
    2516 0009d1 6C00          CALL #_USB_initEndptObj ; |243| 
         0009d3 0000!
    2517 0009d5 3D00  ||      MOV #0, AC0 ; |243| 
    2518              
    2519                                                      ; call occurs [#_USB_initEndptObj] ; |243| 
    2520 0009d7 C431          MOV T0, *(#_status) ; |243| 
         0009d9 0000 
         0009db 75-  
    2521                      .dwpsn  file "../c5535_bsl_revc/ezdsp5535_v1/boot_post_SDcard/boot_post/usb.c",line 246,column 2,is_s
    2522 0009dc 2249          MOV T0, AR1
    2523 0009de 0409          BCC $C$L55,AR1 == #0 ; |246| 
         0009e0 12   
    2524                                                      ; branchcc occurs ; |246| 
    2525                      .dwpsn  file "../c5535_bsl_revc/ezdsp5535_v1/boot_post_SDcard/boot_post/usb.c",line 248,column 3,is_s
    2526 0009e1 EC31          AMOV #$C$FSL3, XAR3 ; |248| 
         0009e3 BE00 
         0009e5 0024+
    2527 0009e7 EB00          MOV XAR3, dbl(*SP(#0))
         0009e9 B5   
    2528              $C$DW$206       .dwtag  DW_TAG_TI_branch
    2529                      .dwattr $C$DW$206, DW_AT_low_pc(0x00)
    2530                      .dwattr $C$DW$206, DW_AT_name("_printf")
    2531                      .dwattr $C$DW$206, DW_AT_TI_call
    2532 0009ea 6C00          CALL #_printf ; |248| 
         0009ec 0000!
    2533                                                      ; call occurs [#_printf] ; |248| 
    2534                      .dwpsn  file "../c5535_bsl_revc/ezdsp5535_v1/boot_post_SDcard/boot_post/usb.c",line 249,column 3,is_s
    2535 0009ee A414          MOV *SP(#10), T0 ; |249| 
    2536 0009f0 0600          B $C$L60  ; |249| 
         0009f2 A0   
    2537                                                      ; branch occurs ; |249| 
    2538 0009f3       $C$L55:    
    2539                      .dwpsn  file "../c5535_bsl_revc/ezdsp5535_v1/boot_post_SDcard/boot_post/usb.c",line 253,column 2,is_s
    2540 0009f3 EC31          AMOV #_hEpObjArray, XAR0 ; |253| 
         0009f5 8E00 
         0009f7 0000-
    2541 0009f9 3C04          MOV #0, T0
    2542              $C$DW$207       .dwtag  DW_TAG_TI_branch
    2543                      .dwattr $C$DW$207, DW_AT_low_pc(0x00)
    2544                      .dwattr $C$DW$207, DW_AT_name("_USB_setParams")
    2545                      .dwattr $C$DW$207, DW_AT_TI_call
    2546              
    2547 0009fb 6C00          CALL #_USB_setParams ; |253| 
         0009fd 0000!
TMS320C55x Assembler PC v4.4.1 Mon Aug 15 03:55:17 2016

Tools Copyright (c) 1996-2012 Texas Instruments Incorporated
usb.asm                                                              PAGE   61

    2548 0009ff 3D05  ||      MOV #0, T1
    2549              
    2550                                                      ; call occurs [#_USB_setParams] ; |253| 
    2551 000a01 C431          MOV T0, *(#_status) ; |253| 
         000a03 0000 
         000a05 75-  
    2552                      .dwpsn  file "../c5535_bsl_revc/ezdsp5535_v1/boot_post_SDcard/boot_post/usb.c",line 254,column 2,is_s
    2553 000a06 2249          MOV T0, AR1
    2554 000a08 0409          BCC $C$L56,AR1 == #0 ; |254| 
         000a0a 12   
    2555                                                      ; branchcc occurs ; |254| 
    2556                      .dwpsn  file "../c5535_bsl_revc/ezdsp5535_v1/boot_post_SDcard/boot_post/usb.c",line 256,column 3,is_s
    2557 000a0b EC31          AMOV #$C$FSL4, XAR3 ; |256| 
         000a0d BE00 
         000a0f 0040+
    2558 000a11 EB00          MOV XAR3, dbl(*SP(#0))
         000a13 B5   
    2559              $C$DW$208       .dwtag  DW_TAG_TI_branch
    2560                      .dwattr $C$DW$208, DW_AT_low_pc(0x00)
    2561                      .dwattr $C$DW$208, DW_AT_name("_printf")
    2562                      .dwattr $C$DW$208, DW_AT_TI_call
    2563 000a14 6C00          CALL #_printf ; |256| 
         000a16 0000!
    2564                                                      ; call occurs [#_printf] ; |256| 
    2565                      .dwpsn  file "../c5535_bsl_revc/ezdsp5535_v1/boot_post_SDcard/boot_post/usb.c",line 257,column 3,is_s
    2566 000a18 A414          MOV *SP(#10), T0 ; |257| 
    2567 000a1a 0600          B $C$L60  ; |257| 
         000a1c 76   
    2568                                                      ; branch occurs ; |257| 
    2569 000a1d       $C$L56:    
    2570                      .dwpsn  file "../c5535_bsl_revc/ezdsp5535_v1/boot_post_SDcard/boot_post/usb.c",line 261,column 2,is_s
    2571              $C$DW$209       .dwtag  DW_TAG_TI_branch
    2572                      .dwattr $C$DW$209, DW_AT_low_pc(0x00)
    2573                      .dwattr $C$DW$209, DW_AT_name("_USB_connectDev")
    2574                      .dwattr $C$DW$209, DW_AT_TI_call
    2575              
    2576 000a1d 6C00          CALL #_USB_connectDev ; |261| 
         000a1f 0000!
    2577 000a21 3D04  ||      MOV #0, T0
    2578              
    2579                                                      ; call occurs [#_USB_connectDev] ; |261| 
    2580 000a23 C431          MOV T0, *(#_status) ; |261| 
         000a25 0000 
         000a27 75-  
    2581                      .dwpsn  file "../c5535_bsl_revc/ezdsp5535_v1/boot_post_SDcard/boot_post/usb.c",line 262,column 2,is_s
    2582 000a28 2249          MOV T0, AR1
    2583 000a2a 0409          BCC $C$L57,AR1 == #0 ; |262| 
         000a2c 12   
    2584                                                      ; branchcc occurs ; |262| 
    2585                      .dwpsn  file "../c5535_bsl_revc/ezdsp5535_v1/boot_post_SDcard/boot_post/usb.c",line 264,column 3,is_s
    2586 000a2d EC31          AMOV #$C$FSL5, XAR3 ; |264| 
         000a2f BE00 
         000a31 0058+
    2587 000a33 EB00          MOV XAR3, dbl(*SP(#0))
         000a35 B5   
TMS320C55x Assembler PC v4.4.1 Mon Aug 15 03:55:17 2016

Tools Copyright (c) 1996-2012 Texas Instruments Incorporated
usb.asm                                                              PAGE   62

    2588              $C$DW$210       .dwtag  DW_TAG_TI_branch
    2589                      .dwattr $C$DW$210, DW_AT_low_pc(0x00)
    2590                      .dwattr $C$DW$210, DW_AT_name("_printf")
    2591                      .dwattr $C$DW$210, DW_AT_TI_call
    2592 000a36 6C00          CALL #_printf ; |264| 
         000a38 0000!
    2593                                                      ; call occurs [#_printf] ; |264| 
    2594                      .dwpsn  file "../c5535_bsl_revc/ezdsp5535_v1/boot_post_SDcard/boot_post/usb.c",line 265,column 3,is_s
    2595 000a3a A414          MOV *SP(#10), T0 ; |265| 
    2596 000a3c 0600          B $C$L60  ; |265| 
         000a3e 54   
    2597                                                      ; branch occurs ; |265| 
    2598 000a3f       $C$L57:    
    2599                      .dwpsn  file "../c5535_bsl_revc/ezdsp5535_v1/boot_post_SDcard/boot_post/usb.c",line 268,column 2,is_s
    2600 000a3f EC31          AMOV #_deviceDesc, XAR3 ; |268| 
         000a41 BE00 
         000a43 0289-
    2601 000a45 EB31          MOV XAR3, dbl(*(#_deviceDescPtr))
         000a47 B500 
         000a49 027C-
    2602                      .dwpsn  file "../c5535_bsl_revc/ezdsp5535_v1/boot_post_SDcard/boot_post/usb.c",line 269,column 2,is_s
    2603 000a4b EC31          AMOV #_cfgDesc, XAR3 ; |269| 
         000a4d BE00 
         000a4f 0292-
    2604 000a51 EB31          MOV XAR3, dbl(*(#_cfgDescPtr))
         000a53 B500 
         000a55 027E-
    2605                      .dwpsn  file "../c5535_bsl_revc/ezdsp5535_v1/boot_post_SDcard/boot_post/usb.c",line 270,column 2,is_s
    2606 000a57 EC31          AMOV #_strDesc, XAR3 ; |270| 
         000a59 BE00 
         000a5b 02A2-
    2607 000a5d EB31          MOV XAR3, dbl(*(#_strDescPtr))
         000a5f B500 
         000a61 0280-
    2608                      .dwpsn  file "../c5535_bsl_revc/ezdsp5535_v1/boot_post_SDcard/boot_post/usb.c",line 271,column 2,is_s
    2609 000a63 EC31          AMOV #_dataReadBuff, XAR3 ; |271| 
         000a65 BE00 
         000a67 0078-
    2610 000a69 EB31          MOV XAR3, dbl(*(#_dataReadBuffPtr))
         000a6b B500 
         000a6d 0278-
    2611                      .dwpsn  file "../c5535_bsl_revc/ezdsp5535_v1/boot_post_SDcard/boot_post/usb.c",line 272,column 2,is_s
    2612 000a6f EC31          AMOV #_dataWriteBuff, XAR3 ; |272| 
         000a71 BE00 
         000a73 0178-
    2613 000a75 EB31          MOV XAR3, dbl(*(#_dataWriteBuffPtr))
         000a77 B500 
         000a79 027A-
    2614                      .dwpsn  file "../c5535_bsl_revc/ezdsp5535_v1/boot_post_SDcard/boot_post/usb.c",line 274,column 8,is_s
    2615 000a7b F031          CMP *(#_stopRunning) == #1, TC1 ; |274| 
         000a7d 0001 
         000a7f 0002 
         000a81 88-  
    2616 000a82 6564          BCC $C$L59,TC1 ; |274| 
    2617                                                      ; branchcc occurs ; |274| 
TMS320C55x Assembler PC v4.4.1 Mon Aug 15 03:55:17 2016

Tools Copyright (c) 1996-2012 Texas Instruments Incorporated
usb.asm                                                              PAGE   63

    2618 000a84       $C$L58:    
    2619 000a84       $C$DW$L$_usb_test$18$B:
    2620 000a84 F031          CMP *(#_stopRunning) == #1, TC1 ; |274| 
         000a86 0001 
         000a88 0002 
         000a8a 88-  
    2621 000a8b 0474          BCC $C$L58,!TC1 ; |274| 
         000a8d F6   
    2622                                                      ; branchcc occurs ; |274| 
    2623 000a8e       $C$DW$L$_usb_test$18$E:
    2624 000a8e       $C$L59:    
    2625                      .dwpsn  file "../c5535_bsl_revc/ezdsp5535_v1/boot_post_SDcard/boot_post/usb.c",line 276,column 2,is_s
    2626 000a8e E614          MOV #0, *SP(#10) ; |276| 
         000a90 00   
    2627                      .dwpsn  file "../c5535_bsl_revc/ezdsp5535_v1/boot_post_SDcard/boot_post/usb.c",line 277,column 2,is_s
    2628 000a91 A414          MOV *SP(#10), T0 ; |277| 
    2629 000a93       $C$L60:    
    2630                      .dwpsn  file "../c5535_bsl_revc/ezdsp5535_v1/boot_post_SDcard/boot_post/usb.c",line 278,column 1,is_s
    2631 000a93 4E0D          AADD #13, SP
    2632                      .dwcfi  cfa_offset, 1
    2633              $C$DW$211       .dwtag  DW_TAG_TI_branch
    2634                      .dwattr $C$DW$211, DW_AT_low_pc(0x00)
    2635                      .dwattr $C$DW$211, DW_AT_TI_return
    2636 000a95 4804          RET
    2637                                                      ; return occurs
    2638              
    2639              $C$DW$212       .dwtag  DW_TAG_TI_loop
    2640                      .dwattr $C$DW$212, DW_AT_name("F:\eZDSP_5535_Files\ccsws2\test\Debug\usb.asm:$C$L58:1:1471258514")
    2641                      .dwattr $C$DW$212, DW_AT_TI_begin_file("../c5535_bsl_revc/ezdsp5535_v1/boot_post_SDcard/boot_post/usb
    2642                      .dwattr $C$DW$212, DW_AT_TI_begin_line(0x112)
    2643                      .dwattr $C$DW$212, DW_AT_TI_end_line(0x112)
    2644              $C$DW$213       .dwtag  DW_TAG_TI_loop_range
    2645                      .dwattr $C$DW$213, DW_AT_low_pc($C$DW$L$_usb_test$18$B)
    2646                      .dwattr $C$DW$213, DW_AT_high_pc($C$DW$L$_usb_test$18$E)
    2647                      .dwendtag $C$DW$212
    2648              
    2649                      .dwattr $C$DW$187, DW_AT_TI_end_file("../c5535_bsl_revc/ezdsp5535_v1/boot_post_SDcard/boot_post/usb.c
    2650                      .dwattr $C$DW$187, DW_AT_TI_end_line(0x116)
    2651                      .dwattr $C$DW$187, DW_AT_TI_end_column(0x01)
    2652                      .dwendentry
    2653                      .dwendtag $C$DW$187
    2654              
    2655 000000               .sect   ".text:retain"
    2656                      .align 4
    2657                      .global _usb_isr
    2658              
    2659              $C$DW$214       .dwtag  DW_TAG_subprogram, DW_AT_name("usb_isr")
    2660                      .dwattr $C$DW$214, DW_AT_low_pc(_usb_isr)
    2661                      .dwattr $C$DW$214, DW_AT_high_pc(0x00)
    2662                      .dwattr $C$DW$214, DW_AT_TI_symbol_name("_usb_isr")
    2663                      .dwattr $C$DW$214, DW_AT_external
    2664                      .dwattr $C$DW$214, DW_AT_TI_begin_file("../c5535_bsl_revc/ezdsp5535_v1/boot_post_SDcard/boot_post/usb
    2665                      .dwattr $C$DW$214, DW_AT_TI_begin_line(0x11d)
    2666                      .dwattr $C$DW$214, DW_AT_TI_begin_column(0x10)
    2667                      .dwattr $C$DW$214, DW_AT_TI_interrupt
TMS320C55x Assembler PC v4.4.1 Mon Aug 15 03:55:17 2016

Tools Copyright (c) 1996-2012 Texas Instruments Incorporated
usb.asm                                                              PAGE   64

    2668                      .dwattr $C$DW$214, DW_AT_TI_max_frame_size(0x31)
    2669                      .dwpsn  file "../c5535_bsl_revc/ezdsp5535_v1/boot_post_SDcard/boot_post/usb.c",line 286,column 1,is_s
    2670              
    2671                      .dwfde $C$DW$CIE, _usb_isr
    2672              ;*******************************************************************************
    2673              ;* INTERRUPT NAME: usb_isr                                                     *
    2674              ;*                                                                             *
    2675              ;*   Function Uses Regs : AC0,AC0,AC1,AC1,AC2,AC2,AC3,AC3,T0,T1,AR0,XAR0,AR1,  *
    2676              ;*                        XAR1,AR2,AR3,XAR3,AR4,SP,BKC,BK03,BK47,ST1,ST2,ST3,  *
    2677              ;*                        BRC0,RSA0,REA0,BRS1,BRC1,RSA1,REA1,CSR,RPTC,CDP,TRN0,*
    2678              ;*                        TRN1,BSA01,BSA23,BSA45,BSA67,BSAC,TC1,M40,SATA,SATD, *
    2679              ;*                        RDM,FRCT,SMUL                                        *
    2680              ;*   Save On Entry Regs : AC0,AC0,AC1,AC1,AC2,AC2,AC3,AC3,T0,T1,AR0,AR1,AR2,   *
    2681              ;*                        AR3,AR4,BKC,BK03,BK47,BRC0,RSA0,REA0,BRS1,BRC1,RSA1, *
    2682              ;*                        REA1,CSR,RPTC,CDP,TRN0,TRN1,BSA01,BSA23,BSA45,BSA67, *
    2683              ;*                        BSAC                                                 *
    2684              ;*******************************************************************************
    2685 000000       _usb_isr:
    2686                      .dwcfi  cfa_offset, 3
    2687                      .dwcfi  save_reg_to_mem, 91, -3
    2688 000000 F406          AND #0xf91f, mmap(ST1_55)
         000002 F91F 
         000004 98   
    2689 000005 F506          OR #0x4100, mmap(ST1_55)
         000007 4100 
         000009 98   
    2690 00000a F496          AND #0xfa00, mmap(ST2_55)
         00000c FA00 
         00000e 98   
    2691 00000f F596          OR #0x8000, mmap(ST2_55)
         000011 8000 
         000013 98   
    2692 000014 B508          PSH mmap(ST3_55)
         000016 98   
    2693                      .dwcfi  cfa_offset, 4
    2694                      .dwcfi  save_reg_to_mem, 42, -4
    2695 000017 5007          PSH dbl(AC0)
    2696                      .dwcfi  cfa_offset, 5
    2697                      .dwcfi  save_reg_to_mem, 0, -5
    2698                      .dwcfi  cfa_offset, 6
    2699                      .dwcfi  save_reg_to_mem, 1, -6
    2700 000019 B514          PSH mmap(AC0G)
         00001b 98   
    2701                      .dwcfi  cfa_offset, 7
    2702                      .dwcfi  save_reg_to_mem, 2, -7
    2703 00001c 5017          PSH dbl(AC1)
    2704                      .dwcfi  cfa_offset, 8
    2705                      .dwcfi  save_reg_to_mem, 3, -8
    2706                      .dwcfi  cfa_offset, 9
    2707                      .dwcfi  save_reg_to_mem, 4, -9
    2708 00001e B51A          PSH mmap(AC1G)
         000020 98   
    2709                      .dwcfi  cfa_offset, 10
    2710                      .dwcfi  save_reg_to_mem, 5, -10
    2711 000021 5027          PSH dbl(AC2)
TMS320C55x Assembler PC v4.4.1 Mon Aug 15 03:55:17 2016

Tools Copyright (c) 1996-2012 Texas Instruments Incorporated
usb.asm                                                              PAGE   65

    2712                      .dwcfi  cfa_offset, 11
    2713                      .dwcfi  save_reg_to_mem, 6, -11
    2714                      .dwcfi  cfa_offset, 12
    2715                      .dwcfi  save_reg_to_mem, 7, -12
    2716 000023 B54C          PSH mmap(AC2G)
         000025 98   
    2717                      .dwcfi  cfa_offset, 13
    2718                      .dwcfi  save_reg_to_mem, 8, -13
    2719 000026 5037          PSH dbl(AC3)
    2720                      .dwcfi  cfa_offset, 14
    2721                      .dwcfi  save_reg_to_mem, 9, -14
    2722                      .dwcfi  cfa_offset, 15
    2723                      .dwcfi  save_reg_to_mem, 10, -15
    2724 000028 B554          PSH mmap(AC3G)
         00002a 98   
    2725                      .dwcfi  cfa_offset, 16
    2726                      .dwcfi  save_reg_to_mem, 11, -16
    2727 00002b 5046          PSH T0
    2728                      .dwcfi  cfa_offset, 17
    2729                      .dwcfi  save_reg_to_mem, 12, -17
    2730 00002d 5056          PSH T1
    2731                      .dwcfi  cfa_offset, 18
    2732                      .dwcfi  save_reg_to_mem, 13, -18
    2733 00002f 5085          PSHBOTH XAR0
    2734                      .dwcfi  cfa_offset, 19
    2735                      .dwcfi  save_reg_to_mem, 16, -19
    2736 000031 5095          PSHBOTH XAR1
    2737                      .dwcfi  cfa_offset, 20
    2738                      .dwcfi  save_reg_to_mem, 18, -20
    2739 000033 50A5          PSHBOTH XAR2
    2740                      .dwcfi  cfa_offset, 21
    2741                      .dwcfi  save_reg_to_mem, 20, -21
    2742 000035 50B5          PSHBOTH XAR3
    2743                      .dwcfi  cfa_offset, 22
    2744                      .dwcfi  save_reg_to_mem, 22, -22
    2745 000037 50C5          PSHBOTH XAR4
    2746                      .dwcfi  cfa_offset, 23
    2747                      .dwcfi  save_reg_to_mem, 24, -23
    2748 000039 B562          PSH mmap(BKC)
         00003b 98   
    2749                      .dwcfi  cfa_offset, 24
    2750                      .dwcfi  save_reg_to_mem, 37, -24
    2751 00003c B532          PSH mmap(BK03)
         00003e 98   
    2752                      .dwcfi  cfa_offset, 25
    2753                      .dwcfi  save_reg_to_mem, 38, -25
    2754 00003f B560          PSH mmap(BK47)
         000041 98   
    2755                      .dwcfi  cfa_offset, 26
    2756                      .dwcfi  save_reg_to_mem, 39, -26
    2757 000042 B534          PSH mmap(BRC0)
         000044 98   
    2758                      .dwcfi  cfa_offset, 27
    2759                      .dwcfi  save_reg_to_mem, 47, -27
    2760 000045 B57A          PSH mmap(RSA0L)
TMS320C55x Assembler PC v4.4.1 Mon Aug 15 03:55:17 2016

Tools Copyright (c) 1996-2012 Texas Instruments Incorporated
usb.asm                                                              PAGE   66

         000047 98   
    2761                      .dwcfi  cfa_offset, 28
    2762                      .dwcfi  save_reg_to_mem, 48, -28
    2763 000048 B578          PSH mmap(RSA0H)
         00004a 98   
    2764                      .dwcfi  cfa_offset, 29
    2765                      .dwcfi  save_reg_to_mem, 49, -29
    2766 00004b B57E          PSH mmap(REA0L)
         00004d 98   
    2767                      .dwcfi  cfa_offset, 30
    2768                      .dwcfi  save_reg_to_mem, 50, -30
    2769 00004e B57C          PSH mmap(REA0H)
         000050 98   
    2770                      .dwcfi  cfa_offset, 31
    2771                      .dwcfi  save_reg_to_mem, 51, -31
    2772 000051 B574          PSH mmap(BRS1)
         000053 98   
    2773                      .dwcfi  cfa_offset, 32
    2774                      .dwcfi  save_reg_to_mem, 52, -32
    2775 000054 B572          PSH mmap(BRC1)
         000056 98   
    2776                      .dwcfi  cfa_offset, 33
    2777                      .dwcfi  save_reg_to_mem, 53, -33
    2778 000057 B582          PSH mmap(RSA1L)
         000059 98   
    2779                      .dwcfi  cfa_offset, 34
    2780                      .dwcfi  save_reg_to_mem, 54, -34
    2781 00005a B580          PSH mmap(RSA1H)
         00005c 98   
    2782                      .dwcfi  cfa_offset, 35
    2783                      .dwcfi  save_reg_to_mem, 55, -35
    2784 00005d B586          PSH mmap(REA1L)
         00005f 98   
    2785                      .dwcfi  cfa_offset, 36
    2786                      .dwcfi  save_reg_to_mem, 56, -36
    2787 000060 B584          PSH mmap(REA1H)
         000062 98   
    2788                      .dwcfi  cfa_offset, 37
    2789                      .dwcfi  save_reg_to_mem, 57, -37
    2790 000063 B576          PSH mmap(CSR)
         000065 98   
    2791                      .dwcfi  cfa_offset, 38
    2792                      .dwcfi  save_reg_to_mem, 58, -38
    2793 000066 B588          PSH mmap(RPTC)
         000068 98   
    2794                      .dwcfi  cfa_offset, 39
    2795                      .dwcfi  save_reg_to_mem, 59, -39
    2796 000069 5075          PSHBOTH XCDP
    2797                      .dwcfi  cfa_offset, 40
    2798                      .dwcfi  save_reg_to_mem, 60, -40
    2799 00006b B51E          PSH mmap(TRN0)
         00006d 98   
    2800                      .dwcfi  cfa_offset, 41
    2801                      .dwcfi  save_reg_to_mem, 62, -41
    2802 00006e B570          PSH mmap(TRN1)
TMS320C55x Assembler PC v4.4.1 Mon Aug 15 03:55:17 2016

Tools Copyright (c) 1996-2012 Texas Instruments Incorporated
usb.asm                                                              PAGE   67

         000070 98   
    2803                      .dwcfi  cfa_offset, 42
    2804                      .dwcfi  save_reg_to_mem, 63, -42
    2805 000071 B564          PSH mmap(BSA01)
         000073 98   
    2806                      .dwcfi  cfa_offset, 43
    2807                      .dwcfi  save_reg_to_mem, 64, -43
    2808 000074 B566          PSH mmap(BSA23)
         000076 98   
    2809                      .dwcfi  cfa_offset, 44
    2810                      .dwcfi  save_reg_to_mem, 65, -44
    2811 000077 B568          PSH mmap(BSA45)
         000079 98   
    2812                      .dwcfi  cfa_offset, 45
    2813                      .dwcfi  save_reg_to_mem, 66, -45
    2814 00007a B56A          PSH mmap(BSA67)
         00007c 98   
    2815                      .dwcfi  cfa_offset, 46
    2816                      .dwcfi  save_reg_to_mem, 67, -46
    2817 00007d B56C          PSH mmap(BSAC)
         00007f 98   
    2818                      .dwcfi  cfa_offset, 47
    2819                      .dwcfi  save_reg_to_mem, 68, -47
    2820 000080 EC00          AMAR *SP(#0), XAR1
         000082 9E   
    2821 000083 F49A          AND #0xfffe, mmap(SP)
         000085 FFFE 
         000087 98   
    2822 000088 5096          PSH AR1
    2823 00008a 4EFD          AADD #-3, SP
    2824                      .dwcfi  cfa_offset, 49
    2825                      .dwpsn  file "../c5535_bsl_revc/ezdsp5535_v1/boot_post_SDcard/boot_post/usb.c",line 288,column 2,is_s
    2826 00008c 7600          MOV #56, T0 ; |288| 
         00008e 3848 
    2827 000090 AB31          MOV *(#_usbRegisters), AR3 ; |288| 
         000092 0000 
         000094 00!  
    2828 000095 A96B          MOV port(*AR3(T0)), AR1 ; |288| 
         000097 99   
    2829 000098 ED31          MOV dbl(*(#_pContext)), XAR3
         00009a BF00 
         00009c 0076-
    2830 00009e C96D          MOV AR1, *AR3(#94) ; |288| 
         0000a0 005E 
    2831                      .dwpsn  file "../c5535_bsl_revc/ezdsp5535_v1/boot_post_SDcard/boot_post/usb.c",line 289,column 2,is_s
    2832 0000a2 7600          MOV #57, T0 ; |289| 
         0000a4 3948 
    2833 0000a6 AB31          MOV *(#_usbRegisters), AR3 ; |289| 
         0000a8 0000 
         0000aa 00!  
    2834 0000ab A96B          MOV port(*AR3(T0)), AR1 ; |289| 
         0000ad 99   
    2835 0000ae ED31          MOV dbl(*(#_pContext)), XAR3
         0000b0 BF00 
         0000b2 0076-
TMS320C55x Assembler PC v4.4.1 Mon Aug 15 03:55:17 2016

Tools Copyright (c) 1996-2012 Texas Instruments Incorporated
usb.asm                                                              PAGE   68

    2836 0000b4 C96D          MOV AR1, *AR3(#95) ; |289| 
         0000b6 005F 
    2837                      .dwpsn  file "../c5535_bsl_revc/ezdsp5535_v1/boot_post_SDcard/boot_post/usb.c",line 292,column 2,is_s
    2838 0000b8 ED31          MOV dbl(*(#_pContext)), XAR3
         0000ba BF00 
         0000bc 0076-
    2839 0000be A96D          MOV *AR3(#94), AR1 ; |292| 
         0000c0 005E 
    2840 0000c2 0409          BCC $C$L61,AR1 == #0 ; |292| 
         0000c4 10   
    2841                                                      ; branchcc occurs ; |292| 
    2842                      .dwpsn  file "../c5535_bsl_revc/ezdsp5535_v1/boot_post_SDcard/boot_post/usb.c",line 294,column 3,is_s
    2843 0000c5 7600          MOV #40, T0 ; |294| 
         0000c7 2848 
    2844 0000c9 A96D          MOV *AR3(#94), AR1 ; |294| 
         0000cb 005E 
    2845 0000cd AB31          MOV *(#_usbRegisters), AR3 ; |294| 
         0000cf 0000 
         0000d1 00!  
    2846 0000d2 C96B          MOV AR1, port(*AR3(T0)) ; |294| 
         0000d4 9A   
    2847 0000d5       $C$L61:    
    2848                      .dwpsn  file "../c5535_bsl_revc/ezdsp5535_v1/boot_post_SDcard/boot_post/usb.c",line 297,column 2,is_s
    2849 0000d5 ED31          MOV dbl(*(#_pContext)), XAR3
         0000d7 BF00 
         0000d9 0076-
    2850 0000db A96D          MOV *AR3(#95), AR1 ; |297| 
         0000dd 005F 
    2851 0000df 0409          BCC $C$L62,AR1 == #0 ; |297| 
         0000e1 10   
    2852                                                      ; branchcc occurs ; |297| 
    2853                      .dwpsn  file "../c5535_bsl_revc/ezdsp5535_v1/boot_post_SDcard/boot_post/usb.c",line 299,column 3,is_s
    2854 0000e2 7600          MOV #41, T0 ; |299| 
         0000e4 2948 
    2855 0000e6 A96D          MOV *AR3(#95), AR1 ; |299| 
         0000e8 005F 
    2856 0000ea AB31          MOV *(#_usbRegisters), AR3 ; |299| 
         0000ec 0000 
         0000ee 00!  
    2857 0000ef C96B          MOV AR1, port(*AR3(T0)) ; |299| 
         0000f1 9A   
    2858 0000f2       $C$L62:    
    2859                      .dwpsn  file "../c5535_bsl_revc/ezdsp5535_v1/boot_post_SDcard/boot_post/usb.c",line 302,column 2,is_s
    2860 0000f2 ED31          MOV dbl(*(#_pContext)), XAR3
         0000f4 BF00 
         0000f6 0076-
    2861 0000f8 A96D          MOV *AR3(#94), AR1 ; |302| 
         0000fa 005E 
    2862 0000fc 6419          BCC $C$L63,AR1 != #0 ; |302| 
    2863                                                      ; branchcc occurs ; |302| 
    2864 0000fe A96D          MOV *AR3(#95), AR1 ; |302| 
         000100 005F 
    2865 000102 6D09          BCC $C$L98,AR1 == #0 ; |302| 
         000104 0620 
    2866                                                      ; branchcc occurs ; |302| 
TMS320C55x Assembler PC v4.4.1 Mon Aug 15 03:55:17 2016

Tools Copyright (c) 1996-2012 Texas Instruments Incorporated
usb.asm                                                              PAGE   69

    2867 000106       $C$L63:    
    2868                      .dwpsn  file "../c5535_bsl_revc/ezdsp5535_v1/boot_post_SDcard/boot_post/usb.c",line 305,column 3,is_s
    2869 000106 DC6D          BTST #2, *AR3(#95), TC1 ; |305| 
         000108 2000 
         00010a 5F   
    2870 00010b 0474          BCC $C$L65,!TC1 ; |305| 
         00010d 6A   
    2871                                                      ; branchcc occurs ; |305| 
    2872                      .dwpsn  file "../c5535_bsl_revc/ezdsp5535_v1/boot_post_SDcard/boot_post/usb.c",line 307,column 4,is_s
    2873 00010e 7604          MOV #1038, T0 ; |307| 
         000110 0E48 
    2874 000112 AB31          MOV *(#_usbRegisters), AR3 ; |307| 
         000114 0000 
         000116 00!  
    2875 000117 DF6B          MOV uns(low_byte(port(*AR3(T0)))), AR1 ; |307| 
         000119 93   
         00011a 99   
    2876 00011b C96B          MOV AR1, port(*AR3(T0)) ; |307| 
         00011d 9A   
    2877                      .dwpsn  file "../c5535_bsl_revc/ezdsp5535_v1/boot_post_SDcard/boot_post/usb.c",line 309,column 4,is_s
    2878 00011e F031          CMP *(#_usbBulkOutEpObj) == #9, TC1 ; |309| 
         000120 0009 
         000122 0000 
         000124 3A-  
    2879 000125 0474          BCC $C$L64,!TC1 ; |309| 
         000127 29   
    2880                                                      ; branchcc occurs ; |309| 
    2881                      .dwpsn  file "../c5535_bsl_revc/ezdsp5535_v1/boot_post_SDcard/boot_post/usb.c",line 311,column 5,is_s
    2882 000128 AB31          MOV *(#_usbRegisters), AR3 ; |311| 
         00012a 0000 
         00012c 00!  
    2883 00012d A96B          MOV port(*AR3(T0)), AR1 ; |311| 
         00012f 99   
    2884 000130 7DFF          AND #0xfff0, AR1, AC0 ; |311| 
         000132 F009 
    2885 000134 EC00          BSET @#0, AC0 ; |311| 
         000136 00   
    2886 000137 C06B          MOV AC0, port(*AR3(T0)) ; |311| 
         000139 9A   
    2887                      .dwpsn  file "../c5535_bsl_revc/ezdsp5535_v1/boot_post_SDcard/boot_post/usb.c",line 313,column 5,is_s
    2888 00013a 7604          MOV #1042, T0 ; |313| 
         00013c 1248 
    2889 00013e AB31          MOV *(#_usbRegisters), AR3 ; |313| 
         000140 0000 
         000142 00!  
    2890 000143 A96B          MOV port(*AR3(T0)), AR1 ; |313| 
         000145 99   
    2891 000146 EC00          BCLR @#0, AR1 ; |313| 
         000148 92   
    2892 000149 EC00          BSET @#0, AR1 ; |313| 
         00014b 90   
    2893 00014c C96B          MOV AR1, port(*AR3(T0)) ; |313| 
         00014e 9A   
    2894                      .dwpsn  file "../c5535_bsl_revc/ezdsp5535_v1/boot_post_SDcard/boot_post/usb.c",line 315,column 4,is_s
    2895 00014f 4A27          B $C$L65  ; |315| 
TMS320C55x Assembler PC v4.4.1 Mon Aug 15 03:55:17 2016

Tools Copyright (c) 1996-2012 Texas Instruments Incorporated
usb.asm                                                              PAGE   70

    2896                                                      ; branch occurs ; |315| 
    2897 000151       $C$L64:    
    2898                      .dwpsn  file "../c5535_bsl_revc/ezdsp5535_v1/boot_post_SDcard/boot_post/usb.c",line 318,column 5,is_s
    2899 000151 AB31          MOV *(#_usbRegisters), AR3 ; |318| 
         000153 0000 
         000155 00!  
    2900 000156 A96B          MOV port(*AR3(T0)), AR1 ; |318| 
         000158 99   
    2901 000159 7DFF          AND #0xfff0, AR1, AC0 ; |318| 
         00015b F009 
    2902 00015d EC02          BSET @#1, AC0 ; |318| 
         00015f 00   
    2903 000160 C06B          MOV AC0, port(*AR3(T0)) ; |318| 
         000162 9A   
    2904                      .dwpsn  file "../c5535_bsl_revc/ezdsp5535_v1/boot_post_SDcard/boot_post/usb.c",line 320,column 5,is_s
    2905 000163 7604          MOV #1042, T0 ; |320| 
         000165 1248 
    2906 000167 AB31          MOV *(#_usbRegisters), AR3 ; |320| 
         000169 0000 
         00016b 00!  
    2907 00016c A96B          MOV port(*AR3(T0)), AR1 ; |320| 
         00016e 99   
    2908 00016f EC00          BCLR @#0, AR1 ; |320| 
         000171 92   
    2909 000172 EC00          BSET @#0, AR1 ; |320| 
         000174 90   
    2910 000175 C96B          MOV AR1, port(*AR3(T0)) ; |320| 
         000177 9A   
    2911 000178       $C$L65:    
    2912                      .dwpsn  file "../c5535_bsl_revc/ezdsp5535_v1/boot_post_SDcard/boot_post/usb.c",line 326,column 3,is_s
    2913 000178 ED31          MOV dbl(*(#_pContext)), XAR3
         00017a BF00 
         00017c 0076-
    2914 00017e DC6D          BTST #1, *AR3(#95), TC1 ; |326| 
         000180 1000 
         000182 5F   
    2915 000183 0474          BCC $C$L66,!TC1 ; |326| 
         000185 3D   
    2916                                                      ; branchcc occurs ; |326| 
    2917                      .dwpsn  file "../c5535_bsl_revc/ezdsp5535_v1/boot_post_SDcard/boot_post/usb.c",line 328,column 4,is_s
    2918 000186 4617          BSET ST3_SMUL
    2919              
    2920 000188 3C04          MOV #0, T0
    2921 00018a 4756  ||      BCLR ST3_SATA
    2922              
    2923              $C$DW$215       .dwtag  DW_TAG_TI_branch
    2924                      .dwattr $C$DW$215, DW_AT_low_pc(0x00)
    2925                      .dwattr $C$DW$215, DW_AT_name("_USB_setRemoteWakeup")
    2926                      .dwattr $C$DW$215, DW_AT_TI_call
    2927              
    2928 00018c 6C00          CALL #_USB_setRemoteWakeup ; |328| 
         00018e 0000!
    2929 000190 3D15  ||      MOV #1, T1
    2930              
    2931                                                      ; call occurs [#_USB_setRemoteWakeup] ; |328| 
TMS320C55x Assembler PC v4.4.1 Mon Aug 15 03:55:17 2016

Tools Copyright (c) 1996-2012 Texas Instruments Incorporated
usb.asm                                                              PAGE   71

    2932                      .dwpsn  file "../c5535_bsl_revc/ezdsp5535_v1/boot_post_SDcard/boot_post/usb.c",line 329,column 4,is_s
    2933 000192 3C15          MOV #1, T1
    2934              $C$DW$216       .dwtag  DW_TAG_TI_branch
    2935                      .dwattr $C$DW$216, DW_AT_low_pc(0x00)
    2936                      .dwattr $C$DW$216, DW_AT_name("_USB_issueRemoteWakeup")
    2937                      .dwattr $C$DW$216, DW_AT_TI_call
    2938              
    2939 000194 6C00          CALL #_USB_issueRemoteWakeup ; |329| 
         000196 0000!
    2940 000198 3D04  ||      MOV #0, T0
    2941              
    2942                                                      ; call occurs [#_USB_issueRemoteWakeup] ; |329| 
    2943 00019a C431          MOV T0, *(#_status) ; |329| 
         00019c 0000 
         00019e 75-  
    2944                      .dwpsn  file "../c5535_bsl_revc/ezdsp5535_v1/boot_post_SDcard/boot_post/usb.c",line 331,column 4,is_s
    2945              $C$DW$217       .dwtag  DW_TAG_TI_branch
    2946                      .dwattr $C$DW$217, DW_AT_low_pc(0x00)
    2947                      .dwattr $C$DW$217, DW_AT_name("_USB_delay")
    2948                      .dwattr $C$DW$217, DW_AT_TI_call
    2949              
    2950 00019f 6C00          CALL #_USB_delay ; |331| 
         0001a1 0AC8'
    2951 0001a3 3DA0  ||      MOV #10, AC0 ; |331| 
    2952              
    2953                                                      ; call occurs [#_USB_delay] ; |331| 
    2954                      .dwpsn  file "../c5535_bsl_revc/ezdsp5535_v1/boot_post_SDcard/boot_post/usb.c",line 332,column 4,is_s
    2955 0001a5 3C04          MOV #0, T0
    2956              $C$DW$218       .dwtag  DW_TAG_TI_branch
    2957                      .dwattr $C$DW$218, DW_AT_low_pc(0x00)
    2958                      .dwattr $C$DW$218, DW_AT_name("_USB_issueRemoteWakeup")
    2959                      .dwattr $C$DW$218, DW_AT_TI_call
    2960              
    2961 0001a7 6C00          CALL #_USB_issueRemoteWakeup ; |332| 
         0001a9 0000!
    2962 0001ab 3D05  ||      MOV #0, T1
    2963              
    2964                                                      ; call occurs [#_USB_issueRemoteWakeup] ; |332| 
    2965 0001ad C431          MOV T0, *(#_status) ; |332| 
         0001af 0000 
         0001b1 75-  
    2966                      .dwpsn  file "../c5535_bsl_revc/ezdsp5535_v1/boot_post_SDcard/boot_post/usb.c",line 333,column 4,is_s
    2967 0001b2 2249          MOV T0, AR1
    2968 0001b4 6689          BCC $C$L66,AR1 == #0 ; |333| 
    2969                                                      ; branchcc occurs ; |333| 
    2970                      .dwpsn  file "../c5535_bsl_revc/ezdsp5535_v1/boot_post_SDcard/boot_post/usb.c",line 335,column 5,is_s
    2971 0001b6 EC31          AMOV #$C$FSL6, XAR3 ; |335| 
         0001b8 BE00 
         0001ba 006C+
    2972 0001bc EB00          MOV XAR3, dbl(*SP(#0))
         0001be B5   
    2973              $C$DW$219       .dwtag  DW_TAG_TI_branch
    2974                      .dwattr $C$DW$219, DW_AT_low_pc(0x00)
    2975                      .dwattr $C$DW$219, DW_AT_name("_printf")
    2976                      .dwattr $C$DW$219, DW_AT_TI_call
TMS320C55x Assembler PC v4.4.1 Mon Aug 15 03:55:17 2016

Tools Copyright (c) 1996-2012 Texas Instruments Incorporated
usb.asm                                                              PAGE   72

    2977 0001bf 6C00          CALL #_printf ; |335| 
         0001c1 0000!
    2978                                                      ; call occurs [#_printf] ; |335| 
    2979 0001c3       $C$L66:    
    2980                      .dwpsn  file "../c5535_bsl_revc/ezdsp5535_v1/boot_post_SDcard/boot_post/usb.c",line 340,column 3,is_s
    2981 0001c3 ED31          MOV dbl(*(#_pContext)), XAR3
         0001c5 BF00 
         0001c7 0076-
    2982 0001c9 DC6D          BTST #0, *AR3(#94), TC1 ; |340| 
         0001cb 0000 
         0001cd 5E   
    2983 0001ce 6D74          BCC $C$L91,!TC1 ; |340| 
         0001d0 0448 
    2984                                                      ; branchcc occurs ; |340| 
    2985                      .dwpsn  file "../c5535_bsl_revc/ezdsp5535_v1/boot_post_SDcard/boot_post/usb.c",line 342,column 4,is_s
    2986 0001d2 7604          MOV #1038, T0 ; |342| 
         0001d4 0E48 
    2987 0001d6 AB31          MOV *(#_usbRegisters), AR3 ; |342| 
         0001d8 0000 
         0001da 00!  
    2988 0001db A96B          MOV port(*AR3(T0)), AR1 ; |342| 
         0001dd 99   
    2989 0001de C931          MOV AR1, *(#_saveIndex) ; |342| 
         0001e0 0002 
         0001e2 84-  
    2990                      .dwpsn  file "../c5535_bsl_revc/ezdsp5535_v1/boot_post_SDcard/boot_post/usb.c",line 343,column 5,is_s
    2991 0001e3 A96B          MOV port(*AR3(T0)), AR1 ; |343| 
         0001e5 99   
    2992 0001e6 7DFF          AND #0xfff0, AR1, AC0 ; |343| 
         0001e8 F009 
    2993 0001ea C06B          MOV AC0, port(*AR3(T0)) ; |343| 
         0001ec 9A   
    2994                      .dwpsn  file "../c5535_bsl_revc/ezdsp5535_v1/boot_post_SDcard/boot_post/usb.c",line 346,column 4,is_s
    2995 0001ed 4617          BSET ST3_SMUL
    2996 0001ef EC31          AMOV #_usbSetup, XAR0 ; |346| 
         0001f1 8E00 
         0001f3 006E-
    2997              
    2998 0001f5 3C15          MOV #1, T1
    2999 0001f7 4756  ||      BCLR ST3_SATA
    3000              
    3001              $C$DW$220       .dwtag  DW_TAG_TI_branch
    3002                      .dwattr $C$DW$220, DW_AT_low_pc(0x00)
    3003                      .dwattr $C$DW$220, DW_AT_name("_USB_getSetupPacket")
    3004                      .dwattr $C$DW$220, DW_AT_TI_call
    3005              
    3006 0001f9 6C00          CALL #_USB_getSetupPacket ; |346| 
         0001fb 0000!
    3007 0001fd 3D04  ||      MOV #0, T0
    3008              
    3009                                                      ; call occurs [#_USB_getSetupPacket] ; |346| 
    3010                      .dwpsn  file "../c5535_bsl_revc/ezdsp5535_v1/boot_post_SDcard/boot_post/usb.c",line 348,column 4,is_s
    3011 0001ff 7604          MOV #1042, T0 ; |348| 
         000201 1248 
    3012 000203 AB31          MOV *(#_usbRegisters), AR3 ; |348| 
TMS320C55x Assembler PC v4.4.1 Mon Aug 15 03:55:17 2016

