TMS320C55x Assembler PC v4.4.1 Fri Sep 07 02:27:22 2018

Tools Copyright (c) 1996-2012 Texas Instruments Incorporated
main.asm                                                             PAGE    1

    3026              ; Temporary Registers Used: None
       1              ;*******************************************************************************
       2              ;* TMS320C55x C/C++ Codegen                                          PC v4.4.1 *
       3              ;* Date/Time created: Fri Sep 07 02:27:21 2018                                 *
       4              ;*******************************************************************************
       5                      .compiler_opts --hll_source=on --mem_model:code=flat --mem_model:data=large --object_format=coff --si
       6                      .mmregs
       7                      .cpl_on
       8                      .arms_on
       9                      .c54cm_off
      10                      .asg AR6, FP
      11                      .asg XAR6, XFP
      12                      .asg DPH, MDP
      13                      .model call=c55_std
      14                      .model mem=large
      15                      .noremark 5002  ; code respects overwrite rules
      16              ;*******************************************************************************
      17              ;* GLOBAL FILE PARAMETERS                                                      *
      18              ;*                                                                             *
      19              ;*   Architecture       : TMS320C55x                                           *
      20              ;*   Optimizing for     : Speed                                                *
      21              ;*   Memory             : Large Model (23-Bit Data Pointers)                   *
      22              ;*   Calls              : Normal Library ASM calls                             *
      23              ;*   Debug Info         : Standard TI Debug Information                        *
      24              ;*******************************************************************************
      25              
      26              $C$DW$CU        .dwtag  DW_TAG_compile_unit
      27                      .dwattr $C$DW$CU, DW_AT_name("../FreeRTOS/Demo/c5515_CCS/main.c")
      28                      .dwattr $C$DW$CU, DW_AT_producer("TMS320C55x C/C++ Codegen PC v4.4.1 Copyright (c) 1996-2012 Texas In
      29                      .dwattr $C$DW$CU, DW_AT_TI_version(0x01)
      30                      .dwattr $C$DW$CU, DW_AT_comp_dir("F:\eZDSP_5535_Files\ccsws2\test\Debug")
      31              ;******************************************************************************
      32              ;* CINIT RECORDS                                                              *
      33              ;******************************************************************************
      34 000000               .sect   ".cinit"
      35                      .align  1
      36 000000 0001          .field          1,16
      37 000001 0000-         .field          _fSineWave+0,24
         000002 0000 
      38 000002 0000          .field          0,8
      39 000003 0000          .field  0,16                    ; _fSineWave @ 0
      40              
      41 000004               .sect   ".cinit"
      42                      .align  1
      43 000004 0001          .field          1,16
      44 000005 0000-         .field          _f1KToneOn+0,24
         000006 0100 
      45 000006 0100          .field          0,8
      46 000007 0000          .field  0,16                    ; _f1KToneOn @ 0
      47              
      48 000008               .sect   ".cinit"
      49                      .align  1
      50 000008 0001          .field          1,16
      51 000009 0000-         .field          _f2KToneOn+0,24
         00000a 0200 
TMS320C55x Assembler PC v4.4.1 Fri Sep 07 02:27:22 2018

Tools Copyright (c) 1996-2012 Texas Instruments Incorporated
main.asm                                                             PAGE    2

      52 00000a 0200          .field          0,8
      53 00000b 0000          .field  0,16                    ; _f2KToneOn @ 0
      54              
      55 00000c               .sect   ".cinit"
      56                      .align  1
      57 00000c 0002          .field          2,16
      58 00000d 0000-         .field          _ulIdleLoops+0,24
         00000e 0400 
      59 00000e 0400          .field          0,8
      60 00000f 0000          .field  0,32                    ; _ulIdleLoops @ 0
         000010 0000 
      61              
      62 000011               .sect   ".cinit"
      63                      .align  1
      64 000011 0002          .field          2,16
      65 000012 0000-         .field          _ulDummyVariable$1+0,24
         000013 0600 
      66 000013 0600          .field          0,8
      67 000014 0000          .field  3,32                    ; _ulDummyVariable$1 @ 0
         000015 0003 
      68              
      69 000016               .sect   ".cinit"
      70                      .align  1
      71 000016 0001          .field          1,16
      72 000017 0000-         .field          _sNoErrorFound$2+0,24
         000018 0300 
      73 000018 0300          .field          0,8
      74 000019 0001          .field  1,16                    ; _sNoErrorFound$2 @ 0
      75              
      76 00001a               .sect   ".cinit"
      77                      .align  1
      78 00001a 0002          .field          2,16
      79 00001b 0000-         .field          _ulLastIdleLoops$3+0,24
         00001c 0800 
      80 00001c 0800          .field          0,8
      81 00001d 0000          .field  0,32                    ; _ulLastIdleLoops$3 @ 0
         00001e 0000 
      82              
      83              
      84              $C$DW$1 .dwtag  DW_TAG_subprogram, DW_AT_name("EZDSP5535_init")
      85                      .dwattr $C$DW$1, DW_AT_TI_symbol_name("_EZDSP5535_init")
      86                      .dwattr $C$DW$1, DW_AT_type(*$C$DW$T$60)
      87                      .dwattr $C$DW$1, DW_AT_declaration
      88                      .dwattr $C$DW$1, DW_AT_external
      89              
      90              $C$DW$2 .dwtag  DW_TAG_subprogram, DW_AT_name("EZDSP5535_waitusec")
      91                      .dwattr $C$DW$2, DW_AT_TI_symbol_name("_EZDSP5535_waitusec")
      92                      .dwattr $C$DW$2, DW_AT_declaration
      93                      .dwattr $C$DW$2, DW_AT_external
      94              $C$DW$3 .dwtag  DW_TAG_formal_parameter
      95                      .dwattr $C$DW$3, DW_AT_type(*$C$DW$T$28)
      96                      .dwendtag $C$DW$2
      97              
      98              
      99              $C$DW$4 .dwtag  DW_TAG_subprogram, DW_AT_name("vTaskDelay")
TMS320C55x Assembler PC v4.4.1 Fri Sep 07 02:27:22 2018

Tools Copyright (c) 1996-2012 Texas Instruments Incorporated
main.asm                                                             PAGE    3

     100                      .dwattr $C$DW$4, DW_AT_TI_symbol_name("_vTaskDelay")
     101                      .dwattr $C$DW$4, DW_AT_declaration
     102                      .dwattr $C$DW$4, DW_AT_external
     103              $C$DW$5 .dwtag  DW_TAG_formal_parameter
     104                      .dwattr $C$DW$5, DW_AT_type(*$C$DW$T$44)
     105                      .dwendtag $C$DW$4
     106              
     107              
     108              $C$DW$6 .dwtag  DW_TAG_subprogram, DW_AT_name("vTaskStartScheduler")
     109                      .dwattr $C$DW$6, DW_AT_TI_symbol_name("_vTaskStartScheduler")
     110                      .dwattr $C$DW$6, DW_AT_declaration
     111                      .dwattr $C$DW$6, DW_AT_external
     112              
     113              $C$DW$7 .dwtag  DW_TAG_subprogram, DW_AT_name("xTaskGenericCreate")
     114                      .dwattr $C$DW$7, DW_AT_TI_symbol_name("_xTaskGenericCreate")
     115                      .dwattr $C$DW$7, DW_AT_type(*$C$DW$T$10)
     116                      .dwattr $C$DW$7, DW_AT_declaration
     117                      .dwattr $C$DW$7, DW_AT_external
     118              $C$DW$8 .dwtag  DW_TAG_formal_parameter
     119                      .dwattr $C$DW$8, DW_AT_type(*$C$DW$T$51)
     120              $C$DW$9 .dwtag  DW_TAG_formal_parameter
     121                      .dwattr $C$DW$9, DW_AT_type(*$C$DW$T$56)
     122              $C$DW$10        .dwtag  DW_TAG_formal_parameter
     123                      .dwattr $C$DW$10, DW_AT_type(*$C$DW$T$9)
     124              $C$DW$11        .dwtag  DW_TAG_formal_parameter
     125                      .dwattr $C$DW$11, DW_AT_type(*$C$DW$T$3)
     126              $C$DW$12        .dwtag  DW_TAG_formal_parameter
     127                      .dwattr $C$DW$12, DW_AT_type(*$C$DW$T$11)
     128              $C$DW$13        .dwtag  DW_TAG_formal_parameter
     129                      .dwattr $C$DW$13, DW_AT_type(*$C$DW$T$41)
     130              $C$DW$14        .dwtag  DW_TAG_formal_parameter
     131                      .dwattr $C$DW$14, DW_AT_type(*$C$DW$T$83)
     132              $C$DW$15        .dwtag  DW_TAG_formal_parameter
     133                      .dwattr $C$DW$15, DW_AT_type(*$C$DW$T$87)
     134                      .dwendtag $C$DW$7
     135              
     136              
     137              $C$DW$16        .dwtag  DW_TAG_subprogram, DW_AT_name("vStartLEDFlashTasks")
     138                      .dwattr $C$DW$16, DW_AT_TI_symbol_name("_vStartLEDFlashTasks")
     139                      .dwattr $C$DW$16, DW_AT_declaration
     140                      .dwattr $C$DW$16, DW_AT_external
     141              $C$DW$17        .dwtag  DW_TAG_formal_parameter
     142                      .dwattr $C$DW$17, DW_AT_type(*$C$DW$T$11)
     143                      .dwendtag $C$DW$16
     144              
     145              
     146              $C$DW$18        .dwtag  DW_TAG_subprogram, DW_AT_name("xAreIntegerMathsTaskStillRunning")
     147                      .dwattr $C$DW$18, DW_AT_TI_symbol_name("_xAreIntegerMathsTaskStillRunning")
     148                      .dwattr $C$DW$18, DW_AT_type(*$C$DW$T$10)
     149                      .dwattr $C$DW$18, DW_AT_declaration
     150                      .dwattr $C$DW$18, DW_AT_external
     151              
     152              $C$DW$19        .dwtag  DW_TAG_subprogram, DW_AT_name("xArePollingQueuesStillRunning")
     153                      .dwattr $C$DW$19, DW_AT_TI_symbol_name("_xArePollingQueuesStillRunning")
     154                      .dwattr $C$DW$19, DW_AT_type(*$C$DW$T$10)
TMS320C55x Assembler PC v4.4.1 Fri Sep 07 02:27:22 2018

Tools Copyright (c) 1996-2012 Texas Instruments Incorporated
main.asm                                                             PAGE    4

     155                      .dwattr $C$DW$19, DW_AT_declaration
     156                      .dwattr $C$DW$19, DW_AT_external
     157              
     158              $C$DW$20        .dwtag  DW_TAG_subprogram, DW_AT_name("reset_RTC")
     159                      .dwattr $C$DW$20, DW_AT_TI_symbol_name("_reset_RTC")
     160                      .dwattr $C$DW$20, DW_AT_declaration
     161                      .dwattr $C$DW$20, DW_AT_external
     162              
     163              $C$DW$21        .dwtag  DW_TAG_subprogram, DW_AT_name("enable_i2s0")
     164                      .dwattr $C$DW$21, DW_AT_TI_symbol_name("_enable_i2s0")
     165                      .dwattr $C$DW$21, DW_AT_declaration
     166                      .dwattr $C$DW$21, DW_AT_external
     167              
     168              $C$DW$22        .dwtag  DW_TAG_subprogram, DW_AT_name("set_i2s0_slave")
     169                      .dwattr $C$DW$22, DW_AT_TI_symbol_name("_set_i2s0_slave")
     170                      .dwattr $C$DW$22, DW_AT_type(*$C$DW$T$19)
     171                      .dwattr $C$DW$22, DW_AT_declaration
     172                      .dwattr $C$DW$22, DW_AT_external
     173              
     174              $C$DW$23        .dwtag  DW_TAG_subprogram, DW_AT_name("set_dma0_ch0_i2s0_Lout")
     175                      .dwattr $C$DW$23, DW_AT_TI_symbol_name("_set_dma0_ch0_i2s0_Lout")
     176                      .dwattr $C$DW$23, DW_AT_type(*$C$DW$T$19)
     177                      .dwattr $C$DW$23, DW_AT_declaration
     178                      .dwattr $C$DW$23, DW_AT_external
     179              
     180              $C$DW$24        .dwtag  DW_TAG_subprogram, DW_AT_name("set_dma0_ch1_i2s0_Rout")
     181                      .dwattr $C$DW$24, DW_AT_TI_symbol_name("_set_dma0_ch1_i2s0_Rout")
     182                      .dwattr $C$DW$24, DW_AT_type(*$C$DW$T$19)
     183                      .dwattr $C$DW$24, DW_AT_declaration
     184                      .dwattr $C$DW$24, DW_AT_external
     185              
     186              $C$DW$25        .dwtag  DW_TAG_subprogram, DW_AT_name("set_dma0_ch0_stop")
     187                      .dwattr $C$DW$25, DW_AT_TI_symbol_name("_set_dma0_ch0_stop")
     188                      .dwattr $C$DW$25, DW_AT_declaration
     189                      .dwattr $C$DW$25, DW_AT_external
     190              
     191              $C$DW$26        .dwtag  DW_TAG_subprogram, DW_AT_name("set_dma0_ch1_stop")
     192                      .dwattr $C$DW$26, DW_AT_TI_symbol_name("_set_dma0_ch1_stop")
     193                      .dwattr $C$DW$26, DW_AT_declaration
     194                      .dwattr $C$DW$26, DW_AT_external
     195              
     196              $C$DW$27        .dwtag  DW_TAG_subprogram, DW_AT_name("EZDSP5535_LED_init")
     197                      .dwattr $C$DW$27, DW_AT_TI_symbol_name("_EZDSP5535_LED_init")
     198                      .dwattr $C$DW$27, DW_AT_type(*$C$DW$T$60)
     199                      .dwattr $C$DW$27, DW_AT_declaration
     200                      .dwattr $C$DW$27, DW_AT_external
     201              
     202              $C$DW$28        .dwtag  DW_TAG_subprogram, DW_AT_name("EZDSP5535_LED_on")
     203                      .dwattr $C$DW$28, DW_AT_TI_symbol_name("_EZDSP5535_LED_on")
     204                      .dwattr $C$DW$28, DW_AT_type(*$C$DW$T$60)
     205                      .dwattr $C$DW$28, DW_AT_declaration
     206                      .dwattr $C$DW$28, DW_AT_external
     207              $C$DW$29        .dwtag  DW_TAG_formal_parameter
     208                      .dwattr $C$DW$29, DW_AT_type(*$C$DW$T$19)
     209                      .dwendtag $C$DW$28
TMS320C55x Assembler PC v4.4.1 Fri Sep 07 02:27:22 2018

Tools Copyright (c) 1996-2012 Texas Instruments Incorporated
main.asm                                                             PAGE    5

     210              
     211              
     212              $C$DW$30        .dwtag  DW_TAG_subprogram, DW_AT_name("EZDSP5535_LED_off")
     213                      .dwattr $C$DW$30, DW_AT_TI_symbol_name("_EZDSP5535_LED_off")
     214                      .dwattr $C$DW$30, DW_AT_type(*$C$DW$T$60)
     215                      .dwattr $C$DW$30, DW_AT_declaration
     216                      .dwattr $C$DW$30, DW_AT_external
     217              $C$DW$31        .dwtag  DW_TAG_formal_parameter
     218                      .dwattr $C$DW$31, DW_AT_type(*$C$DW$T$19)
     219                      .dwendtag $C$DW$30
     220              
     221              
     222              $C$DW$32        .dwtag  DW_TAG_subprogram, DW_AT_name("EZDSP5535_XF_toggle")
     223                      .dwattr $C$DW$32, DW_AT_TI_symbol_name("_EZDSP5535_XF_toggle")
     224                      .dwattr $C$DW$32, DW_AT_type(*$C$DW$T$60)
     225                      .dwattr $C$DW$32, DW_AT_declaration
     226                      .dwattr $C$DW$32, DW_AT_external
     227              
     228              $C$DW$33        .dwtag  DW_TAG_subprogram, DW_AT_name("EZDSP5535_SAR_init")
     229                      .dwattr $C$DW$33, DW_AT_TI_symbol_name("_EZDSP5535_SAR_init")
     230                      .dwattr $C$DW$33, DW_AT_type(*$C$DW$T$57)
     231                      .dwattr $C$DW$33, DW_AT_declaration
     232                      .dwattr $C$DW$33, DW_AT_external
     233              
     234              $C$DW$34        .dwtag  DW_TAG_subprogram, DW_AT_name("EZDSP5535_SAR_getKey")
     235                      .dwattr $C$DW$34, DW_AT_TI_symbol_name("_EZDSP5535_SAR_getKey")
     236                      .dwattr $C$DW$34, DW_AT_type(*$C$DW$T$19)
     237                      .dwattr $C$DW$34, DW_AT_declaration
     238                      .dwattr $C$DW$34, DW_AT_external
     239              
     240              $C$DW$35        .dwtag  DW_TAG_subprogram, DW_AT_name("PLL_init")
     241                      .dwattr $C$DW$35, DW_AT_TI_symbol_name("_PLL_init")
     242                      .dwattr $C$DW$35, DW_AT_type(*$C$DW$T$61)
     243                      .dwattr $C$DW$35, DW_AT_declaration
     244                      .dwattr $C$DW$35, DW_AT_external
     245              $C$DW$36        .dwtag  DW_TAG_formal_parameter
     246                      .dwattr $C$DW$36, DW_AT_type(*$C$DW$T$37)
     247              $C$DW$37        .dwtag  DW_TAG_formal_parameter
     248                      .dwattr $C$DW$37, DW_AT_type(*$C$DW$T$28)
     249                      .dwendtag $C$DW$35
     250              
     251              
     252              $C$DW$38        .dwtag  DW_TAG_subprogram, DW_AT_name("PLL_config")
     253                      .dwattr $C$DW$38, DW_AT_TI_symbol_name("_PLL_config")
     254                      .dwattr $C$DW$38, DW_AT_type(*$C$DW$T$61)
     255                      .dwattr $C$DW$38, DW_AT_declaration
     256                      .dwattr $C$DW$38, DW_AT_external
     257              $C$DW$39        .dwtag  DW_TAG_formal_parameter
     258                      .dwattr $C$DW$39, DW_AT_type(*$C$DW$T$39)
     259              $C$DW$40        .dwtag  DW_TAG_formal_parameter
     260                      .dwattr $C$DW$40, DW_AT_type(*$C$DW$T$27)
     261                      .dwendtag $C$DW$38
     262              
     263              
     264              $C$DW$41        .dwtag  DW_TAG_subprogram, DW_AT_name("PLL_reset")
TMS320C55x Assembler PC v4.4.1 Fri Sep 07 02:27:22 2018

Tools Copyright (c) 1996-2012 Texas Instruments Incorporated
main.asm                                                             PAGE    6

     265                      .dwattr $C$DW$41, DW_AT_TI_symbol_name("_PLL_reset")
     266                      .dwattr $C$DW$41, DW_AT_type(*$C$DW$T$61)
     267                      .dwattr $C$DW$41, DW_AT_declaration
     268                      .dwattr $C$DW$41, DW_AT_external
     269              $C$DW$42        .dwtag  DW_TAG_formal_parameter
     270                      .dwattr $C$DW$42, DW_AT_type(*$C$DW$T$39)
     271                      .dwendtag $C$DW$41
     272              
     273              
     274              $C$DW$43        .dwtag  DW_TAG_subprogram, DW_AT_name("mem_test")
     275                      .dwattr $C$DW$43, DW_AT_TI_symbol_name("_mem_test")
     276                      .dwattr $C$DW$43, DW_AT_type(*$C$DW$T$60)
     277                      .dwattr $C$DW$43, DW_AT_declaration
     278                      .dwattr $C$DW$43, DW_AT_external
     279              
     280              $C$DW$44        .dwtag  DW_TAG_subprogram, DW_AT_name("oled_test")
     281                      .dwattr $C$DW$44, DW_AT_TI_symbol_name("_oled_test")
     282                      .dwattr $C$DW$44, DW_AT_type(*$C$DW$T$60)
     283                      .dwattr $C$DW$44, DW_AT_declaration
     284                      .dwattr $C$DW$44, DW_AT_external
     285              $C$DW$45        .dwtag  DW_TAG_formal_parameter
     286                      .dwattr $C$DW$45, DW_AT_type(*$C$DW$T$10)
     287                      .dwendtag $C$DW$44
     288              
     289              
     290              $C$DW$46        .dwtag  DW_TAG_subprogram, DW_AT_name("spiflash_test")
     291                      .dwattr $C$DW$46, DW_AT_TI_symbol_name("_spiflash_test")
     292                      .dwattr $C$DW$46, DW_AT_type(*$C$DW$T$60)
     293                      .dwattr $C$DW$46, DW_AT_declaration
     294                      .dwattr $C$DW$46, DW_AT_external
     295              
     296              $C$DW$47        .dwtag  DW_TAG_subprogram, DW_AT_name("RTC_reset")
     297                      .dwattr $C$DW$47, DW_AT_TI_symbol_name("_RTC_reset")
     298                      .dwattr $C$DW$47, DW_AT_type(*$C$DW$T$10)
     299                      .dwattr $C$DW$47, DW_AT_declaration
     300                      .dwattr $C$DW$47, DW_AT_external
     301                      .global _fSineWave
     302 000000               .bss    _fSineWave,1,0,0
     303              $C$DW$48        .dwtag  DW_TAG_variable, DW_AT_name("fSineWave")
     304                      .dwattr $C$DW$48, DW_AT_TI_symbol_name("_fSineWave")
     305                      .dwattr $C$DW$48, DW_AT_location[DW_OP_addr _fSineWave]
     306                      .dwattr $C$DW$48, DW_AT_type(*$C$DW$T$19)
     307                      .dwattr $C$DW$48, DW_AT_external
     308                      .global _f1KToneOn
     309 000001               .bss    _f1KToneOn,1,0,0
     310              $C$DW$49        .dwtag  DW_TAG_variable, DW_AT_name("f1KToneOn")
     311                      .dwattr $C$DW$49, DW_AT_TI_symbol_name("_f1KToneOn")
     312                      .dwattr $C$DW$49, DW_AT_location[DW_OP_addr _f1KToneOn]
     313                      .dwattr $C$DW$49, DW_AT_type(*$C$DW$T$19)
     314                      .dwattr $C$DW$49, DW_AT_external
     315                      .global _f2KToneOn
     316 000002               .bss    _f2KToneOn,1,0,0
     317              $C$DW$50        .dwtag  DW_TAG_variable, DW_AT_name("f2KToneOn")
     318                      .dwattr $C$DW$50, DW_AT_TI_symbol_name("_f2KToneOn")
     319                      .dwattr $C$DW$50, DW_AT_location[DW_OP_addr _f2KToneOn]
TMS320C55x Assembler PC v4.4.1 Fri Sep 07 02:27:22 2018

Tools Copyright (c) 1996-2012 Texas Instruments Incorporated
main.asm                                                             PAGE    7

     320                      .dwattr $C$DW$50, DW_AT_type(*$C$DW$T$19)
     321                      .dwattr $C$DW$50, DW_AT_external
     322              $C$DW$51        .dwtag  DW_TAG_variable, DW_AT_name("fTimer")
     323                      .dwattr $C$DW$51, DW_AT_TI_symbol_name("_fTimer")
     324                      .dwattr $C$DW$51, DW_AT_type(*$C$DW$T$19)
     325                      .dwattr $C$DW$51, DW_AT_declaration
     326                      .dwattr $C$DW$51, DW_AT_external
     327              $C$DW$52        .dwtag  DW_TAG_variable, DW_AT_name("Flag_RTC")
     328                      .dwattr $C$DW$52, DW_AT_TI_symbol_name("_Flag_RTC")
     329                      .dwattr $C$DW$52, DW_AT_type(*$C$DW$T$19)
     330                      .dwattr $C$DW$52, DW_AT_declaration
     331                      .dwattr $C$DW$52, DW_AT_external
     332              $C$DW$53        .dwtag  DW_TAG_variable, DW_AT_name("Conunt_RTC")
     333                      .dwattr $C$DW$53, DW_AT_TI_symbol_name("_Conunt_RTC")
     334                      .dwattr $C$DW$53, DW_AT_type(*$C$DW$T$19)
     335                      .dwattr $C$DW$53, DW_AT_declaration
     336                      .dwattr $C$DW$53, DW_AT_external
     337 000004               .bss    _ulIdleLoops,2,0,2
     338              $C$DW$54        .dwtag  DW_TAG_variable, DW_AT_name("ulIdleLoops")
     339                      .dwattr $C$DW$54, DW_AT_TI_symbol_name("_ulIdleLoops")
     340                      .dwattr $C$DW$54, DW_AT_type(*$C$DW$T$98)
     341                      .dwattr $C$DW$54, DW_AT_location[DW_OP_addr _ulIdleLoops]
     342              $C$DW$55        .dwtag  DW_TAG_variable, DW_AT_name("VECSTART")
     343                      .dwattr $C$DW$55, DW_AT_TI_symbol_name("_VECSTART")
     344                      .dwattr $C$DW$55, DW_AT_type(*$C$DW$T$9)
     345                      .dwattr $C$DW$55, DW_AT_declaration
     346                      .dwattr $C$DW$55, DW_AT_external
     347 000006               .bss    _ulDummyVariable$1,2,0,2
     348 000003               .bss    _sNoErrorFound$2,1,0,0
     349 000008               .bss    _ulLastIdleLoops$3,2,0,2
     350 00000a               .bss    _i$4,1,0,0
     351 000000               .sect   ".const:_$P$T0$5"
     352                      .clink
     353                      .align  1
     354 000000       _$P$T0$5:
     355 000000 8BE8          .field  35816,16                        ; _$P$T0$5._PLLCNTL1 @ 0
     356 000001 8000          .field  32768,16                        ; _$P$T0$5._PLLINCNTL @ 16
     357 000002 0806          .field  2054,16                 ; _$P$T0$5._PLLCNTL2 @ 32
     358 000003 0000          .field  0,16                    ; _$P$T0$5._PLLOUTCNTL @ 48
     359              
     360              $C$DW$56        .dwtag  DW_TAG_variable, DW_AT_name("$P$T0$5")
     361                      .dwattr $C$DW$56, DW_AT_TI_symbol_name("_$P$T0$5")
     362                      .dwattr $C$DW$56, DW_AT_type(*$C$DW$T$35)
     363                      .dwattr $C$DW$56, DW_AT_location[DW_OP_addr _$P$T0$5]
     364              ;       F:\ti\ccs8p1\ccsv8\tools\compiler\alt-install-ti-cgt-c55x_4.4.1\bin\acp55.exe -@f:\\AppData\\Local\\T
     365 000000               .sect   ".text"
     366                      .align 4
     367                      .global _main
     368              
     369              $C$DW$57        .dwtag  DW_TAG_subprogram, DW_AT_name("main")
     370                      .dwattr $C$DW$57, DW_AT_low_pc(_main)
     371                      .dwattr $C$DW$57, DW_AT_high_pc(0x00)
     372                      .dwattr $C$DW$57, DW_AT_TI_symbol_name("_main")
     373                      .dwattr $C$DW$57, DW_AT_external
     374                      .dwattr $C$DW$57, DW_AT_type(*$C$DW$T$10)
TMS320C55x Assembler PC v4.4.1 Fri Sep 07 02:27:22 2018

Tools Copyright (c) 1996-2012 Texas Instruments Incorporated
main.asm                                                             PAGE    8

     375                      .dwattr $C$DW$57, DW_AT_TI_begin_file("../FreeRTOS/Demo/c5515_CCS/main.c")
     376                      .dwattr $C$DW$57, DW_AT_TI_begin_line(0xdc)
     377                      .dwattr $C$DW$57, DW_AT_TI_begin_column(0x05)
     378                      .dwattr $C$DW$57, DW_AT_TI_max_frame_size(0x06)
     379                      .dwpsn  file "../FreeRTOS/Demo/c5515_CCS/main.c",line 221,column 1,is_stmt,address _main
     380              
     381                      .dwfde $C$DW$CIE, _main
     382              ;*******************************************************************************
     383              ;* FUNCTION NAME: main                                                         *
     384              ;*                                                                             *
     385              ;*   Function Uses Regs : AC0,AC0,T0,T1,AR0,XAR0,AR1,XAR1,AR2,XAR2,AR3,XAR3,   *
     386              ;*                        AR4,XAR4,SP,CARRY,TC1,M40,SATA,SATD,RDM,FRCT,SMUL    *
     387              ;*   Stack Frame        : Compact (No Frame Pointer, w/ debug)                 *
     388              ;*   Total Frame Size   : 6 words                                              *
     389              ;*                        (2 return address/alignment)                         *
     390              ;*                        (4 local values)                                     *
     391              ;*   Min System Stack   : 1 word                                               *
     392              ;*******************************************************************************
     393 000000       _main:
     394                      .dwcfi  cfa_offset, 1
     395                      .dwcfi  save_reg_to_mem, 91, -1
     396 000000 4EFB          AADD #-5, SP
     397                      .dwcfi  cfa_offset, 6
     398              $C$DW$58        .dwtag  DW_TAG_variable, DW_AT_name("i")
     399                      .dwattr $C$DW$58, DW_AT_TI_symbol_name("_i")
     400                      .dwattr $C$DW$58, DW_AT_type(*$C$DW$T$10)
     401                      .dwattr $C$DW$58, DW_AT_location[DW_OP_bregx 0x24 0]
     402              $C$DW$59        .dwtag  DW_TAG_variable, DW_AT_name("temp1")
     403                      .dwattr $C$DW$59, DW_AT_TI_symbol_name("_temp1")
     404                      .dwattr $C$DW$59, DW_AT_type(*$C$DW$T$13)
     405                      .dwattr $C$DW$59, DW_AT_location[DW_OP_bregx 0x24 2]
     406                      .dwpsn  file "../FreeRTOS/Demo/c5515_CCS/main.c",line 224,column 2,is_stmt
     407              $C$DW$60        .dwtag  DW_TAG_TI_branch
     408                      .dwattr $C$DW$60, DW_AT_low_pc(0x00)
     409                      .dwattr $C$DW$60, DW_AT_name("_SYS_GlobalIntDisable")
     410                      .dwattr $C$DW$60, DW_AT_TI_call
     411 000002 0803          CALL #_SYS_GlobalIntDisable ; |224| 
         000004 03   
     412                                                      ; call occurs [#_SYS_GlobalIntDisable] ; |224| 
     413                      .dwpsn  file "../FreeRTOS/Demo/c5515_CCS/main.c",line 226,column 2,is_stmt
     414 000005 7A00          MOV #(_VECSTART >> 16) << #16, AC0 ; |226| 
         000007 000A%
     415 000009 7E00          OR #(_VECSTART & 0xffff), AC0, AC0 ; |226| 
         00000b 0000%
     416 00000d EB04          MOV AC0, dbl(*SP(#2)) ; |226| 
         00000f 08   
     417                      .dwpsn  file "../FreeRTOS/Demo/c5515_CCS/main.c",line 227,column 2,is_stmt
     418 000010 ED04          MOV dbl(*SP(#2)), AC0 ; |227| 
         000012 08   
     419 000013 1007          SFTL AC0, #-8, AC0 ; |227| 
         000015 38   
     420 000016 EB04          MOV AC0, dbl(*SP(#2)) ; |227| 
         000018 08   
     421                      .dwpsn  file "../FreeRTOS/Demo/c5515_CCS/main.c",line 228,column 2,is_stmt
     422 000019 A906          MOV *SP(#3), AR1 ; |228| 
TMS320C55x Assembler PC v4.4.1 Fri Sep 07 02:27:22 2018

Tools Copyright (c) 1996-2012 Texas Instruments Incorporated
main.asm                                                             PAGE    9

     423 00001b C931          MOV AR1, *(#73) ; |228| 
         00001d 0000 
         00001f 49   
     424                      .dwpsn  file "../FreeRTOS/Demo/c5515_CCS/main.c",line 229,column 2,is_stmt
     425 000020 C931          MOV AR1, *(#74) ; |229| 
         000022 0000 
         000024 4A   
     426 000025 20            NOP
     427 000026 20            NOP
     428 000027 20            NOP
     429                      .dwpsn  file "../FreeRTOS/Demo/c5515_CCS/main.c",line 231,column 2,is_stmt
     430 000028 4652   bclr C54CM
     431                      .dwpsn  file "../FreeRTOS/Demo/c5515_CCS/main.c",line 234,column 2,is_stmt
     432 00002a DC31          BTST #2, *(#71), TC1 ; |234| 
         00002c 2000 
         00002e 0047 
     433 000030 65E4          BCC $C$L1,TC1 ; |234| 
     434                                                      ; branchcc occurs ; |234| 
     435                      .dwpsn  file "../FreeRTOS/Demo/c5515_CCS/main.c",line 236,column 3,is_stmt
     436 000032 F531          OR #0x0004, *(#71) ; |236| 
         000034 0004 
         000036 0000 
         000038 47   
     437                      .dwpsn  file "../FreeRTOS/Demo/c5515_CCS/main.c",line 237,column 3,is_stmt
     438 000039 9400   reset
     439                      .dwpsn  file "../FreeRTOS/Demo/c5515_CCS/main.c",line 238,column 2,is_stmt
     440 00003b 4A07          B $C$L2   ; |238| 
     441                                                      ; branch occurs ; |238| 
     442 00003d       $C$L1:    
     443                      .dwpsn  file "../FreeRTOS/Demo/c5515_CCS/main.c",line 241,column 3,is_stmt
     444 00003d F431          AND #0xfffb, *(#71) ; |241| 
         00003f FFFB 
         000041 0000 
         000043 47   
     445 000044       $C$L2:    
     446                      .dwpsn  file "../FreeRTOS/Demo/c5515_CCS/main.c",line 243,column 3,is_stmt
     447 000044 4652   bclr C54CM
     448                      .dwpsn  file "../FreeRTOS/Demo/c5515_CCS/main.c",line 247,column 6,is_stmt
     449              $C$DW$61        .dwtag  DW_TAG_TI_branch
     450                      .dwattr $C$DW$61, DW_AT_low_pc(0x00)
     451                      .dwattr $C$DW$61, DW_AT_name("_systemInit")
     452                      .dwattr $C$DW$61, DW_AT_TI_call
     453 000046 0803          CALL #_systemInit ; |247| 
         000048 EF   
     454                                                      ; call occurs [#_systemInit] ; |247| 
     455                      .dwpsn  file "../FreeRTOS/Demo/c5515_CCS/main.c",line 248,column 6,is_stmt
     456              $C$DW$62        .dwtag  DW_TAG_TI_branch
     457                      .dwattr $C$DW$62, DW_AT_low_pc(0x00)
     458                      .dwattr $C$DW$62, DW_AT_name("_EZDSP5535_init")
     459                      .dwattr $C$DW$62, DW_AT_TI_call
     460 000049 6C00          CALL #_EZDSP5535_init ; |248| 
         00004b 0000!
     461                                                      ; call occurs [#_EZDSP5535_init] ; |248| 
     462                      .dwpsn  file "../FreeRTOS/Demo/c5515_CCS/main.c",line 250,column 6,is_stmt
     463              $C$DW$63        .dwtag  DW_TAG_TI_branch
TMS320C55x Assembler PC v4.4.1 Fri Sep 07 02:27:22 2018

Tools Copyright (c) 1996-2012 Texas Instruments Incorporated
main.asm                                                             PAGE   10

     464                      .dwattr $C$DW$63, DW_AT_low_pc(0x00)
     465                      .dwattr $C$DW$63, DW_AT_name("_EZDSP5535_LED_init")
     466                      .dwattr $C$DW$63, DW_AT_TI_call
     467 00004d 6C00          CALL #_EZDSP5535_LED_init ; |250| 
         00004f 0000!
     468                                                      ; call occurs [#_EZDSP5535_LED_init] ; |250| 
     469                      .dwpsn  file "../FreeRTOS/Demo/c5515_CCS/main.c",line 251,column 6,is_stmt
     470              $C$DW$64        .dwtag  DW_TAG_TI_branch
     471                      .dwattr $C$DW$64, DW_AT_low_pc(0x00)
     472                      .dwattr $C$DW$64, DW_AT_name("_EZDSP5535_SAR_init")
     473                      .dwattr $C$DW$64, DW_AT_TI_call
     474 000051 6C00          CALL #_EZDSP5535_SAR_init ; |251| 
         000053 0000!
     475                                                      ; call occurs [#_EZDSP5535_SAR_init] ; |251| 
     476                      .dwpsn  file "../FreeRTOS/Demo/c5515_CCS/main.c",line 254,column 6,is_stmt
     477              $C$DW$65        .dwtag  DW_TAG_TI_branch
     478                      .dwattr $C$DW$65, DW_AT_low_pc(0x00)
     479                      .dwattr $C$DW$65, DW_AT_name("_oled_test")
     480                      .dwattr $C$DW$65, DW_AT_TI_call
     481              
     482 000055 6C00          CALL #_oled_test ; |254| 
         000057 0000!
     483 000059 3D04  ||      MOV #0, T0
     484              
     485                                                      ; call occurs [#_oled_test] ; |254| 
     486                      .dwpsn  file "../FreeRTOS/Demo/c5515_CCS/main.c",line 255,column 6,is_stmt
     487              $C$DW$66        .dwtag  DW_TAG_TI_branch
     488                      .dwattr $C$DW$66, DW_AT_low_pc(0x00)
     489                      .dwattr $C$DW$66, DW_AT_name("_mem_test")
     490                      .dwattr $C$DW$66, DW_AT_TI_call
     491 00005b 6C00          CALL #_mem_test ; |255| 
         00005d 0000!
     492                                                      ; call occurs [#_mem_test] ; |255| 
     493 00005f 6314          BCC $C$L3,T0 != #0 ; |255| 
     494                                                      ; branchcc occurs ; |255| 
     495                      .dwpsn  file "../FreeRTOS/Demo/c5515_CCS/main.c",line 256,column 10,is_stmt
     496              $C$DW$67        .dwtag  DW_TAG_TI_branch
     497                      .dwattr $C$DW$67, DW_AT_low_pc(0x00)
     498                      .dwattr $C$DW$67, DW_AT_name("_EZDSP5535_LED_on")
     499                      .dwattr $C$DW$67, DW_AT_TI_call
     500              
     501 000061 6C00          CALL #_EZDSP5535_LED_on ; |256| 
         000063 0000!
     502 000065 3D04  ||      MOV #0, T0
     503              
     504                                                      ; call occurs [#_EZDSP5535_LED_on] ; |256| 
     505 000067       $C$L3:    
     506                      .dwpsn  file "../FreeRTOS/Demo/c5515_CCS/main.c",line 257,column 6,is_stmt
     507              $C$DW$68        .dwtag  DW_TAG_TI_branch
     508                      .dwattr $C$DW$68, DW_AT_low_pc(0x00)
     509                      .dwattr $C$DW$68, DW_AT_name("_oled_test")
     510                      .dwattr $C$DW$68, DW_AT_TI_call
     511              
     512 000067 6C00          CALL #_oled_test ; |257| 
         000069 0000!
TMS320C55x Assembler PC v4.4.1 Fri Sep 07 02:27:22 2018

Tools Copyright (c) 1996-2012 Texas Instruments Incorporated
main.asm                                                             PAGE   11

     513 00006b 3D44  ||      MOV #4, T0
     514              
     515                                                      ; call occurs [#_oled_test] ; |257| 
     516                      .dwpsn  file "../FreeRTOS/Demo/c5515_CCS/main.c",line 258,column 12,is_stmt
     517              $C$DW$69        .dwtag  DW_TAG_TI_branch
     518                      .dwattr $C$DW$69, DW_AT_low_pc(0x00)
     519                      .dwattr $C$DW$69, DW_AT_name("_EZDSP5535_SAR_getKey")
     520                      .dwattr $C$DW$69, DW_AT_TI_call
     521 00006d 6C00          CALL #_EZDSP5535_SAR_getKey ; |258| 
         00006f 0000!
     522                                                      ; call occurs [#_EZDSP5535_SAR_getKey] ; |258| 
     523 000071 7602          MOV #680, AR1 ; |258| 
         000073 A898 
     524 000075 1240          CMPU T0 == AR1, TC1 ; |258| 
         000077 94   
     525 000078 6764          BCC $C$L5,TC1 ; |258| 
     526                                                      ; branchcc occurs ; |258| 
     527              $C$L4:    
     528              $C$DW$L$_main$7$B:
     529              $C$DW$70        .dwtag  DW_TAG_TI_branch
     530                      .dwattr $C$DW$70, DW_AT_low_pc(0x00)
     531                      .dwattr $C$DW$70, DW_AT_name("_EZDSP5535_SAR_getKey")
     532                      .dwattr $C$DW$70, DW_AT_TI_call
     533 00007a 6C00          CALL #_EZDSP5535_SAR_getKey ; |258| 
         00007c 0000!
     534                                                      ; call occurs [#_EZDSP5535_SAR_getKey] ; |258| 
     535 00007e 7602          MOV #680, AR1 ; |258| 
         000080 A898 
     536 000082 124C          CMPU T0 != AR1, TC1 ; |258| 
         000084 94   
     537 000085 0464          BCC $C$L4,TC1 ; |258| 
         000087 F2   
     538                                                      ; branchcc occurs ; |258| 
     539 000088       $C$DW$L$_main$7$E:
     540 000088       $C$L5:    
     541                      .dwpsn  file "../FreeRTOS/Demo/c5515_CCS/main.c",line 259,column 12,is_stmt
     542              $C$DW$71        .dwtag  DW_TAG_TI_branch
     543                      .dwattr $C$DW$71, DW_AT_low_pc(0x00)
     544                      .dwattr $C$DW$71, DW_AT_name("_EZDSP5535_SAR_getKey")
     545                      .dwattr $C$DW$71, DW_AT_TI_call
     546 000088 6C00          CALL #_EZDSP5535_SAR_getKey ; |259| 
         00008a 0000!
     547                                                      ; call occurs [#_EZDSP5535_SAR_getKey] ; |259| 
     548 00008c 7601          MOV #510, AR1 ; |259| 
         00008e FE98 
     549 000090 1240          CMPU T0 == AR1, TC1 ; |259| 
         000092 94   
     550 000093 6764          BCC $C$L7,TC1 ; |259| 
     551                                                      ; branchcc occurs ; |259| 
     552              $C$L6:    
     553              $C$DW$L$_main$9$B:
     554              $C$DW$72        .dwtag  DW_TAG_TI_branch
     555                      .dwattr $C$DW$72, DW_AT_low_pc(0x00)
     556                      .dwattr $C$DW$72, DW_AT_name("_EZDSP5535_SAR_getKey")
     557                      .dwattr $C$DW$72, DW_AT_TI_call
TMS320C55x Assembler PC v4.4.1 Fri Sep 07 02:27:22 2018

Tools Copyright (c) 1996-2012 Texas Instruments Incorporated
main.asm                                                             PAGE   12

     558 000095 6C00          CALL #_EZDSP5535_SAR_getKey ; |259| 
         000097 0000!
     559                                                      ; call occurs [#_EZDSP5535_SAR_getKey] ; |259| 
     560 000099 7601          MOV #510, AR1 ; |259| 
         00009b FE98 
     561 00009d 124C          CMPU T0 != AR1, TC1 ; |259| 
         00009f 94   
     562 0000a0 0464          BCC $C$L6,TC1 ; |259| 
         0000a2 F2   
     563                                                      ; branchcc occurs ; |259| 
     564 0000a3       $C$DW$L$_main$9$E:
     565 0000a3       $C$L7:    
     566                      .dwpsn  file "../FreeRTOS/Demo/c5515_CCS/main.c",line 262,column 6,is_stmt
     567              $C$DW$73        .dwtag  DW_TAG_TI_branch
     568                      .dwattr $C$DW$73, DW_AT_low_pc(0x00)
     569                      .dwattr $C$DW$73, DW_AT_name("_oled_test")
     570                      .dwattr $C$DW$73, DW_AT_TI_call
     571              
     572 0000a3 6C00          CALL #_oled_test ; |262| 
         0000a5 0000!
     573 0000a7 3D14  ||      MOV #1, T0
     574              
     575                                                      ; call occurs [#_oled_test] ; |262| 
     576                      .dwpsn  file "../FreeRTOS/Demo/c5515_CCS/main.c",line 263,column 6,is_stmt
     577              $C$DW$74        .dwtag  DW_TAG_TI_branch
     578                      .dwattr $C$DW$74, DW_AT_low_pc(0x00)
     579                      .dwattr $C$DW$74, DW_AT_name("_spiflash_test")
     580                      .dwattr $C$DW$74, DW_AT_TI_call
     581 0000a9 6C00          CALL #_spiflash_test ; |263| 
         0000ab 0000!
     582                                                      ; call occurs [#_spiflash_test] ; |263| 
     583 0000ad 6314          BCC $C$L8,T0 != #0 ; |263| 
     584                                                      ; branchcc occurs ; |263| 
     585                      .dwpsn  file "../FreeRTOS/Demo/c5515_CCS/main.c",line 264,column 10,is_stmt
     586              $C$DW$75        .dwtag  DW_TAG_TI_branch
     587                      .dwattr $C$DW$75, DW_AT_low_pc(0x00)
     588                      .dwattr $C$DW$75, DW_AT_name("_EZDSP5535_LED_on")
     589                      .dwattr $C$DW$75, DW_AT_TI_call
     590              
     591 0000af 6C00          CALL #_EZDSP5535_LED_on ; |264| 
         0000b1 0000!
     592 0000b3 3D14  ||      MOV #1, T0
     593              
     594                                                      ; call occurs [#_EZDSP5535_LED_on] ; |264| 
     595 0000b5       $C$L8:    
     596                      .dwpsn  file "../FreeRTOS/Demo/c5515_CCS/main.c",line 265,column 6,is_stmt
     597              $C$DW$76        .dwtag  DW_TAG_TI_branch
     598                      .dwattr $C$DW$76, DW_AT_low_pc(0x00)
     599                      .dwattr $C$DW$76, DW_AT_name("_oled_test")
     600                      .dwattr $C$DW$76, DW_AT_TI_call
     601              
     602 0000b5 6C00          CALL #_oled_test ; |265| 
         0000b7 0000!
     603 0000b9 3D44  ||      MOV #4, T0
     604              
TMS320C55x Assembler PC v4.4.1 Fri Sep 07 02:27:22 2018

Tools Copyright (c) 1996-2012 Texas Instruments Incorporated
main.asm                                                             PAGE   13

     605                                                      ; call occurs [#_oled_test] ; |265| 
     606                      .dwpsn  file "../FreeRTOS/Demo/c5515_CCS/main.c",line 266,column 12,is_stmt
     607              $C$DW$77        .dwtag  DW_TAG_TI_branch
     608                      .dwattr $C$DW$77, DW_AT_low_pc(0x00)
     609                      .dwattr $C$DW$77, DW_AT_name("_EZDSP5535_SAR_getKey")
     610                      .dwattr $C$DW$77, DW_AT_TI_call
     611 0000bb 6C00          CALL #_EZDSP5535_SAR_getKey ; |266| 
         0000bd 0000!
     612                                                      ; call occurs [#_EZDSP5535_SAR_getKey] ; |266| 
     613 0000bf 7602          MOV #680, AR1 ; |266| 
         0000c1 A898 
     614 0000c3 1240          CMPU T0 == AR1, TC1 ; |266| 
         0000c5 94   
     615 0000c6 6764          BCC $C$L10,TC1 ; |266| 
     616                                                      ; branchcc occurs ; |266| 
     617              $C$L9:    
     618              $C$DW$L$_main$13$B:
     619              $C$DW$78        .dwtag  DW_TAG_TI_branch
     620                      .dwattr $C$DW$78, DW_AT_low_pc(0x00)
     621                      .dwattr $C$DW$78, DW_AT_name("_EZDSP5535_SAR_getKey")
     622                      .dwattr $C$DW$78, DW_AT_TI_call
     623 0000c8 6C00          CALL #_EZDSP5535_SAR_getKey ; |266| 
         0000ca 0000!
     624                                                      ; call occurs [#_EZDSP5535_SAR_getKey] ; |266| 
     625 0000cc 7602          MOV #680, AR1 ; |266| 
         0000ce A898 
     626 0000d0 124C          CMPU T0 != AR1, TC1 ; |266| 
         0000d2 94   
     627 0000d3 0464          BCC $C$L9,TC1 ; |266| 
         0000d5 F2   
     628                                                      ; branchcc occurs ; |266| 
     629 0000d6       $C$DW$L$_main$13$E:
     630 0000d6       $C$L10:    
     631                      .dwpsn  file "../FreeRTOS/Demo/c5515_CCS/main.c",line 267,column 12,is_stmt
     632              $C$DW$79        .dwtag  DW_TAG_TI_branch
     633                      .dwattr $C$DW$79, DW_AT_low_pc(0x00)
     634                      .dwattr $C$DW$79, DW_AT_name("_EZDSP5535_SAR_getKey")
     635                      .dwattr $C$DW$79, DW_AT_TI_call
     636 0000d6 6C00          CALL #_EZDSP5535_SAR_getKey ; |267| 
         0000d8 0000!
     637                                                      ; call occurs [#_EZDSP5535_SAR_getKey] ; |267| 
     638 0000da 7601          MOV #510, AR1 ; |267| 
         0000dc FE98 
     639 0000de 1240          CMPU T0 == AR1, TC1 ; |267| 
         0000e0 94   
     640 0000e1 6764          BCC $C$L12,TC1 ; |267| 
     641                                                      ; branchcc occurs ; |267| 
     642              $C$L11:    
     643              $C$DW$L$_main$15$B:
     644              $C$DW$80        .dwtag  DW_TAG_TI_branch
     645                      .dwattr $C$DW$80, DW_AT_low_pc(0x00)
     646                      .dwattr $C$DW$80, DW_AT_name("_EZDSP5535_SAR_getKey")
     647                      .dwattr $C$DW$80, DW_AT_TI_call
     648 0000e3 6C00          CALL #_EZDSP5535_SAR_getKey ; |267| 
         0000e5 0000!
TMS320C55x Assembler PC v4.4.1 Fri Sep 07 02:27:22 2018

Tools Copyright (c) 1996-2012 Texas Instruments Incorporated
main.asm                                                             PAGE   14

     649                                                      ; call occurs [#_EZDSP5535_SAR_getKey] ; |267| 
     650 0000e7 7601          MOV #510, AR1 ; |267| 
         0000e9 FE98 
     651 0000eb 124C          CMPU T0 != AR1, TC1 ; |267| 
         0000ed 94   
     652 0000ee 0464          BCC $C$L11,TC1 ; |267| 
         0000f0 F2   
     653                                                      ; branchcc occurs ; |267| 
     654 0000f1       $C$DW$L$_main$15$E:
     655 0000f1       $C$L12:    
     656                      .dwpsn  file "../FreeRTOS/Demo/c5515_CCS/main.c",line 278,column 6,is_stmt
     657              $C$DW$81        .dwtag  DW_TAG_TI_branch
     658                      .dwattr $C$DW$81, DW_AT_low_pc(0x00)
     659                      .dwattr $C$DW$81, DW_AT_name("_oled_test")
     660                      .dwattr $C$DW$81, DW_AT_TI_call
     661              
     662 0000f1 6C00          CALL #_oled_test ; |278| 
         0000f3 0000!
     663 0000f5 3D34  ||      MOV #3, T0
     664              
     665                                                      ; call occurs [#_oled_test] ; |278| 
     666                      .dwpsn  file "../FreeRTOS/Demo/c5515_CCS/main.c",line 279,column 6,is_stmt
     667              $C$DW$82        .dwtag  DW_TAG_TI_branch
     668                      .dwattr $C$DW$82, DW_AT_low_pc(0x00)
     669                      .dwattr $C$DW$82, DW_AT_name("_EZDSP5535_LED_on")
     670                      .dwattr $C$DW$82, DW_AT_TI_call
     671              
     672 0000f7 6C00          CALL #_EZDSP5535_LED_on ; |279| 
         0000f9 0000!
     673 0000fb 3D34  ||      MOV #3, T0
     674              
     675                                                      ; call occurs [#_EZDSP5535_LED_on] ; |279| 
     676                      .dwpsn  file "../FreeRTOS/Demo/c5515_CCS/main.c",line 289,column 2,is_stmt
     677              $C$DW$83        .dwtag  DW_TAG_TI_branch
     678                      .dwattr $C$DW$83, DW_AT_low_pc(0x00)
     679                      .dwattr $C$DW$83, DW_AT_name("_prvSetupHardware")
     680                      .dwattr $C$DW$83, DW_AT_TI_call
     681 0000fd 0801          CALL #_prvSetupHardware ; |289| 
         0000ff 40   
     682                                                      ; call occurs [#_prvSetupHardware] ; |289| 
     683                      .dwpsn  file "../FreeRTOS/Demo/c5515_CCS/main.c",line 308,column 9,is_stmt
     684              $C$DW$84        .dwtag  DW_TAG_TI_branch
     685                      .dwattr $C$DW$84, DW_AT_low_pc(0x00)
     686                      .dwattr $C$DW$84, DW_AT_name("_BlinkLED")
     687                      .dwattr $C$DW$84, DW_AT_TI_call
     688 000100 0802          CALL #_BlinkLED ; |308| 
         000102 71   
     689                                                      ; call occurs [#_BlinkLED] ; |308| 
     690                      .dwpsn  file "../FreeRTOS/Demo/c5515_CCS/main.c",line 311,column 11,is_stmt
     691 000103 E600          MOV #0, *SP(#0) ; |311| 
         000105 00   
     692                      .dwpsn  file "../FreeRTOS/Demo/c5515_CCS/main.c",line 311,column 19,is_stmt
     693              
     694 000106 A900          MOV *SP(#0), AR1 ; |311| 
     695 000108 3D4A  ||      MOV #4, AR2
TMS320C55x Assembler PC v4.4.1 Fri Sep 07 02:27:22 2018

Tools Copyright (c) 1996-2012 Texas Instruments Incorporated
main.asm                                                             PAGE   15

     696              
     697 00010a 1298          CMP AR1 >= AR2, TC1 ; |311| 
         00010c A0   
     698 00010d 0464          BCC $C$L14,TC1 ; |311| 
         00010f 20   
     699                                                      ; branchcc occurs ; |311| 
     700 000110       $C$L13:    
     701 000110       $C$DW$L$_main$17$B:
     702                      .dwpsn  file "../FreeRTOS/Demo/c5515_CCS/main.c",line 313,column 9,is_stmt
     703 000110 A400          MOV *SP(#0), T0 ; |313| 
     704              $C$DW$85        .dwtag  DW_TAG_TI_branch
     705                      .dwattr $C$DW$85, DW_AT_low_pc(0x00)
     706                      .dwattr $C$DW$85, DW_AT_name("_EZDSP5535_LED_off")
     707                      .dwattr $C$DW$85, DW_AT_TI_call
     708 000112 6C00          CALL #_EZDSP5535_LED_off ; |313| 
         000114 0000!
     709                                                      ; call occurs [#_EZDSP5535_LED_off] ; |313| 
     710                      .dwpsn  file "../FreeRTOS/Demo/c5515_CCS/main.c",line 314,column 9,is_stmt
     711 000116 76C3          MOV #50000, AR1 ; |314| 
         000118 5098 
     712 00011a 7DFF          AND #0xffff, AR1, AC0 ; |314| 
         00011c FF09 
     713              $C$DW$86        .dwtag  DW_TAG_TI_branch
     714                      .dwattr $C$DW$86, DW_AT_low_pc(0x00)
     715                      .dwattr $C$DW$86, DW_AT_name("_EZDSP5535_waitusec")
     716                      .dwattr $C$DW$86, DW_AT_TI_call
     717 00011e 6C00          CALL #_EZDSP5535_waitusec ; |314| 
         000120 0000!
     718                                                      ; call occurs [#_EZDSP5535_waitusec] ; |314| 
     719                      .dwpsn  file "../FreeRTOS/Demo/c5515_CCS/main.c",line 311,column 27,is_stmt
     720 000122 F700          ADD #1, *SP(#0) ; |311| 
         000124 0001 
     721                      .dwpsn  file "../FreeRTOS/Demo/c5515_CCS/main.c",line 311,column 19,is_stmt
     722              
     723 000126 A900          MOV *SP(#0), AR1 ; |311| 
     724 000128 3D4A  ||      MOV #4, AR2
     725              
     726 00012a 1294          CMP AR1 < AR2, TC1 ; |311| 
         00012c A0   
     727 00012d 0464          BCC $C$L13,TC1 ; |311| 
         00012f E0   
     728                                                      ; branchcc occurs ; |311| 
     729 000130       $C$DW$L$_main$17$E:
     730 000130       $C$L14:    
     731                      .dwpsn  file "../FreeRTOS/Demo/c5515_CCS/main.c",line 316,column 11,is_stmt
     732 000130 E600          MOV #0, *SP(#0) ; |316| 
         000132 00   
     733                      .dwpsn  file "../FreeRTOS/Demo/c5515_CCS/main.c",line 316,column 19,is_stmt
     734 000133 A900          MOV *SP(#0), AR1 ; |316| 
     735 000135 1298          CMP AR1 >= AR2, TC1 ; |316| 
         000137 A0   
     736 000138 0464          BCC $C$L16,TC1 ; |316| 
         00013a 20   
     737                                                      ; branchcc occurs ; |316| 
     738 00013b       $C$L15:    
TMS320C55x Assembler PC v4.4.1 Fri Sep 07 02:27:22 2018

Tools Copyright (c) 1996-2012 Texas Instruments Incorporated
main.asm                                                             PAGE   16

     739 00013b       $C$DW$L$_main$19$B:
     740                      .dwpsn  file "../FreeRTOS/Demo/c5515_CCS/main.c",line 318,column 13,is_stmt
     741 00013b A400          MOV *SP(#0), T0 ; |318| 
     742              $C$DW$87        .dwtag  DW_TAG_TI_branch
     743                      .dwattr $C$DW$87, DW_AT_low_pc(0x00)
     744                      .dwattr $C$DW$87, DW_AT_name("_EZDSP5535_LED_on")
     745                      .dwattr $C$DW$87, DW_AT_TI_call
     746 00013d 6C00          CALL #_EZDSP5535_LED_on ; |318| 
         00013f 0000!
     747                                                      ; call occurs [#_EZDSP5535_LED_on] ; |318| 
     748                      .dwpsn  file "../FreeRTOS/Demo/c5515_CCS/main.c",line 319,column 13,is_stmt
     749 000141 76C3          MOV #50000, AR1 ; |319| 
         000143 5098 
     750 000145 7DFF          AND #0xffff, AR1, AC0 ; |319| 
         000147 FF09 
     751              $C$DW$88        .dwtag  DW_TAG_TI_branch
     752                      .dwattr $C$DW$88, DW_AT_low_pc(0x00)
     753                      .dwattr $C$DW$88, DW_AT_name("_EZDSP5535_waitusec")
     754                      .dwattr $C$DW$88, DW_AT_TI_call
     755 000149 6C00          CALL #_EZDSP5535_waitusec ; |319| 
         00014b 0000!
     756                                                      ; call occurs [#_EZDSP5535_waitusec] ; |319| 
     757                      .dwpsn  file "../FreeRTOS/Demo/c5515_CCS/main.c",line 316,column 27,is_stmt
     758 00014d F700          ADD #1, *SP(#0) ; |316| 
         00014f 0001 
     759                      .dwpsn  file "../FreeRTOS/Demo/c5515_CCS/main.c",line 316,column 19,is_stmt
     760              
     761 000151 A900          MOV *SP(#0), AR1 ; |316| 
     762 000153 3D4A  ||      MOV #4, AR2
     763              
     764 000155 1294          CMP AR1 < AR2, TC1 ; |316| 
         000157 A0   
     765 000158 0464          BCC $C$L15,TC1 ; |316| 
         00015a E0   
     766                                                      ; branchcc occurs ; |316| 
     767 00015b       $C$DW$L$_main$19$E:
     768 00015b       $C$L16:    
     769                      .dwpsn  file "../FreeRTOS/Demo/c5515_CCS/main.c",line 375,column 6,is_stmt
     770              $C$DW$89        .dwtag  DW_TAG_TI_branch
     771                      .dwattr $C$DW$89, DW_AT_low_pc(0x00)
     772                      .dwattr $C$DW$89, DW_AT_name("_SYS_GlobalIntDisable")
     773                      .dwattr $C$DW$89, DW_AT_TI_call
     774 00015b 0801          CALL #_SYS_GlobalIntDisable ; |375| 
         00015d AA   
     775                                                      ; call occurs [#_SYS_GlobalIntDisable] ; |375| 
     776                      .dwpsn  file "../FreeRTOS/Demo/c5515_CCS/main.c",line 378,column 2,is_stmt
     777              $C$DW$90        .dwtag  DW_TAG_TI_branch
     778                      .dwattr $C$DW$90, DW_AT_low_pc(0x00)
     779                      .dwattr $C$DW$90, DW_AT_name("_vStartLEDFlashTasks")
     780                      .dwattr $C$DW$90, DW_AT_TI_call
     781              
     782 00015e 6C00          CALL #_vStartLEDFlashTasks ; |378| 
         000160 0000!
     783 000162 3D14  ||      MOV #1, T0
     784              
TMS320C55x Assembler PC v4.4.1 Fri Sep 07 02:27:22 2018

Tools Copyright (c) 1996-2012 Texas Instruments Incorporated
main.asm                                                             PAGE   17

     785                                                      ; call occurs [#_vStartLEDFlashTasks] ; |378| 
     786                      .dwpsn  file "../FreeRTOS/Demo/c5515_CCS/main.c",line 384,column 2,is_stmt
     787 000164 7600          MOV #128, T0 ; |384| 
         000166 8048 
     788 000168 7A00          MOV #(_vErrorChecks >> 16) << #16, AC0 ; |384| 
         00016a 000A%
     789 00016c EC31          AMOV #0, XAR4 ; |384| 
         00016e CE00 
         000170 0000 
     790 000172 EC31          AMOV #0, XAR3 ; |384| 
         000174 BE00 
         000176 0000 
     791 000178 EC31          AMOV #0, XAR2 ; |384| 
         00017a AE00 
         00017c 0000 
     792 00017e EC31          AMOV #0, XAR1 ; |384| 
         000180 9E00 
         000182 0000 
     793 000184 EC31          AMOV #$C$FSL1, XAR0 ; |384| 
         000186 8E00 
         000188 0000+
     794 00018a 7E00          OR #(_vErrorChecks & 0xffff), AC0, AC0 ; |384| 
         00018c 0000%
     795              $C$DW$91        .dwtag  DW_TAG_TI_branch
     796                      .dwattr $C$DW$91, DW_AT_low_pc(0x00)
     797                      .dwattr $C$DW$91, DW_AT_name("_xTaskGenericCreate")
     798                      .dwattr $C$DW$91, DW_AT_TI_call
     799              
     800 00018e 6C00          CALL #_xTaskGenericCreate ; |384| 
         000190 0000!
     801 000192 3D35  ||      MOV #3, T1
     802              
     803                                                      ; call occurs [#_xTaskGenericCreate] ; |384| 
     804                      .dwpsn  file "../FreeRTOS/Demo/c5515_CCS/main.c",line 387,column 2,is_stmt
     805 000194 F431          AND #0xdfff, *(#0) ; |387| 
         000196 DFFF 
         000198 0000 
         00019a 00   
     806                      .dwpsn  file "../FreeRTOS/Demo/c5515_CCS/main.c",line 389,column 2,is_stmt
     807              $C$DW$92        .dwtag  DW_TAG_TI_branch
     808                      .dwattr $C$DW$92, DW_AT_low_pc(0x00)
     809                      .dwattr $C$DW$92, DW_AT_name("_SYS_GlobalIntEnable")
     810                      .dwattr $C$DW$92, DW_AT_TI_call
     811 00019b 0801          CALL #_SYS_GlobalIntEnable ; |389| 
         00019d 62   
     812                                                      ; call occurs [#_SYS_GlobalIntEnable] ; |389| 
     813                      .dwpsn  file "../FreeRTOS/Demo/c5515_CCS/main.c",line 395,column 2,is_stmt
     814 00019e 76C3          MOV #50000, AR1 ; |395| 
         0001a0 5098 
     815 0001a2 7DFF          AND #0xffff, AR1, AC0 ; |395| 
         0001a4 FF09 
     816              $C$DW$93        .dwtag  DW_TAG_TI_branch
     817                      .dwattr $C$DW$93, DW_AT_low_pc(0x00)
     818                      .dwattr $C$DW$93, DW_AT_name("_EZDSP5535_waitusec")
     819                      .dwattr $C$DW$93, DW_AT_TI_call
TMS320C55x Assembler PC v4.4.1 Fri Sep 07 02:27:22 2018

Tools Copyright (c) 1996-2012 Texas Instruments Incorporated
main.asm                                                             PAGE   18

     820 0001a6 6C00          CALL #_EZDSP5535_waitusec ; |395| 
         0001a8 0000!
     821                                                      ; call occurs [#_EZDSP5535_waitusec] ; |395| 
     822                      .dwpsn  file "../FreeRTOS/Demo/c5515_CCS/main.c",line 396,column 2,is_stmt
     823              $C$DW$94        .dwtag  DW_TAG_TI_branch
     824                      .dwattr $C$DW$94, DW_AT_low_pc(0x00)
     825                      .dwattr $C$DW$94, DW_AT_name("_oled_test")
     826                      .dwattr $C$DW$94, DW_AT_TI_call
     827              
     828 0001aa 6C00          CALL #_oled_test ; |396| 
         0001ac 0000!
     829 0001ae 3D54  ||      MOV #5, T0
     830              
     831                                                      ; call occurs [#_oled_test] ; |396| 
     832                      .dwpsn  file "../FreeRTOS/Demo/c5515_CCS/main.c",line 397,column 2,is_stmt
     833              $C$DW$95        .dwtag  DW_TAG_TI_branch
     834                      .dwattr $C$DW$95, DW_AT_low_pc(0x00)
     835                      .dwattr $C$DW$95, DW_AT_name("_vTaskStartScheduler")
     836                      .dwattr $C$DW$95, DW_AT_TI_call
     837 0001b0 6C00          CALL #_vTaskStartScheduler ; |397| 
         0001b2 0000!
     838                                                      ; call occurs [#_vTaskStartScheduler] ; |397| 
     839                      .dwpsn  file "../FreeRTOS/Demo/c5515_CCS/main.c",line 401,column 2,is_stmt
     840 0001b4 3C04          MOV #0, T0
     841                      .dwpsn  file "../FreeRTOS/Demo/c5515_CCS/main.c",line 402,column 1,is_stmt
     842 0001b6 4E05          AADD #5, SP
     843                      .dwcfi  cfa_offset, 1
     844              $C$DW$96        .dwtag  DW_TAG_TI_branch
     845                      .dwattr $C$DW$96, DW_AT_low_pc(0x00)
     846                      .dwattr $C$DW$96, DW_AT_TI_return
     847 0001b8 4804          RET
     848                                                      ; return occurs
     849              
     850              $C$DW$97        .dwtag  DW_TAG_TI_loop
     851                      .dwattr $C$DW$97, DW_AT_name("F:\eZDSP_5535_Files\ccsws2\test\Debug\main.asm:$C$L15:1:1536312441")
     852                      .dwattr $C$DW$97, DW_AT_TI_begin_file("../FreeRTOS/Demo/c5515_CCS/main.c")
     853                      .dwattr $C$DW$97, DW_AT_TI_begin_line(0x13c)
     854                      .dwattr $C$DW$97, DW_AT_TI_end_line(0x140)
     855              $C$DW$98        .dwtag  DW_TAG_TI_loop_range
     856                      .dwattr $C$DW$98, DW_AT_low_pc($C$DW$L$_main$19$B)
     857                      .dwattr $C$DW$98, DW_AT_high_pc($C$DW$L$_main$19$E)
     858                      .dwendtag $C$DW$97
     859              
     860              
     861              $C$DW$99        .dwtag  DW_TAG_TI_loop
     862                      .dwattr $C$DW$99, DW_AT_name("F:\eZDSP_5535_Files\ccsws2\test\Debug\main.asm:$C$L13:1:1536312441")
     863                      .dwattr $C$DW$99, DW_AT_TI_begin_file("../FreeRTOS/Demo/c5515_CCS/main.c")
     864                      .dwattr $C$DW$99, DW_AT_TI_begin_line(0x137)
     865                      .dwattr $C$DW$99, DW_AT_TI_end_line(0x13b)
     866              $C$DW$100       .dwtag  DW_TAG_TI_loop_range
     867                      .dwattr $C$DW$100, DW_AT_low_pc($C$DW$L$_main$17$B)
     868                      .dwattr $C$DW$100, DW_AT_high_pc($C$DW$L$_main$17$E)
     869                      .dwendtag $C$DW$99
     870              
     871              
TMS320C55x Assembler PC v4.4.1 Fri Sep 07 02:27:22 2018

Tools Copyright (c) 1996-2012 Texas Instruments Incorporated
main.asm                                                             PAGE   19

     872              $C$DW$101       .dwtag  DW_TAG_TI_loop
     873                      .dwattr $C$DW$101, DW_AT_name("F:\eZDSP_5535_Files\ccsws2\test\Debug\main.asm:$C$L11:1:1536312441")
     874                      .dwattr $C$DW$101, DW_AT_TI_begin_file("../FreeRTOS/Demo/c5515_CCS/main.c")
     875                      .dwattr $C$DW$101, DW_AT_TI_begin_line(0x10b)
     876                      .dwattr $C$DW$101, DW_AT_TI_end_line(0x10b)
     877              $C$DW$102       .dwtag  DW_TAG_TI_loop_range
     878                      .dwattr $C$DW$102, DW_AT_low_pc($C$DW$L$_main$15$B)
     879                      .dwattr $C$DW$102, DW_AT_high_pc($C$DW$L$_main$15$E)
     880                      .dwendtag $C$DW$101
     881              
     882              
     883              $C$DW$103       .dwtag  DW_TAG_TI_loop
     884                      .dwattr $C$DW$103, DW_AT_name("F:\eZDSP_5535_Files\ccsws2\test\Debug\main.asm:$C$L9:1:1536312441")
     885                      .dwattr $C$DW$103, DW_AT_TI_begin_file("../FreeRTOS/Demo/c5515_CCS/main.c")
     886                      .dwattr $C$DW$103, DW_AT_TI_begin_line(0x10a)
     887                      .dwattr $C$DW$103, DW_AT_TI_end_line(0x10a)
     888              $C$DW$104       .dwtag  DW_TAG_TI_loop_range
     889                      .dwattr $C$DW$104, DW_AT_low_pc($C$DW$L$_main$13$B)
     890                      .dwattr $C$DW$104, DW_AT_high_pc($C$DW$L$_main$13$E)
     891                      .dwendtag $C$DW$103
     892              
     893              
     894              $C$DW$105       .dwtag  DW_TAG_TI_loop
     895                      .dwattr $C$DW$105, DW_AT_name("F:\eZDSP_5535_Files\ccsws2\test\Debug\main.asm:$C$L6:1:1536312441")
     896                      .dwattr $C$DW$105, DW_AT_TI_begin_file("../FreeRTOS/Demo/c5515_CCS/main.c")
     897                      .dwattr $C$DW$105, DW_AT_TI_begin_line(0x103)
     898                      .dwattr $C$DW$105, DW_AT_TI_end_line(0x103)
     899              $C$DW$106       .dwtag  DW_TAG_TI_loop_range
     900                      .dwattr $C$DW$106, DW_AT_low_pc($C$DW$L$_main$9$B)
     901                      .dwattr $C$DW$106, DW_AT_high_pc($C$DW$L$_main$9$E)
     902                      .dwendtag $C$DW$105
     903              
     904              
     905              $C$DW$107       .dwtag  DW_TAG_TI_loop
     906                      .dwattr $C$DW$107, DW_AT_name("F:\eZDSP_5535_Files\ccsws2\test\Debug\main.asm:$C$L4:1:1536312441")
     907                      .dwattr $C$DW$107, DW_AT_TI_begin_file("../FreeRTOS/Demo/c5515_CCS/main.c")
     908                      .dwattr $C$DW$107, DW_AT_TI_begin_line(0x102)
     909                      .dwattr $C$DW$107, DW_AT_TI_end_line(0x102)
     910              $C$DW$108       .dwtag  DW_TAG_TI_loop_range
     911                      .dwattr $C$DW$108, DW_AT_low_pc($C$DW$L$_main$7$B)
     912                      .dwattr $C$DW$108, DW_AT_high_pc($C$DW$L$_main$7$E)
     913                      .dwendtag $C$DW$107
     914              
     915                      .dwattr $C$DW$57, DW_AT_TI_end_file("../FreeRTOS/Demo/c5515_CCS/main.c")
     916                      .dwattr $C$DW$57, DW_AT_TI_end_line(0x192)
     917                      .dwattr $C$DW$57, DW_AT_TI_end_column(0x01)
     918                      .dwendentry
     919                      .dwendtag $C$DW$57
     920              
     921 0001ba               .sect   ".text"
     922                      .align 4
     923              
     924              $C$DW$109       .dwtag  DW_TAG_subprogram, DW_AT_name("vErrorChecks")
     925                      .dwattr $C$DW$109, DW_AT_low_pc(_vErrorChecks)
     926                      .dwattr $C$DW$109, DW_AT_high_pc(0x00)
TMS320C55x Assembler PC v4.4.1 Fri Sep 07 02:27:22 2018

Tools Copyright (c) 1996-2012 Texas Instruments Incorporated
main.asm                                                             PAGE   20

     927                      .dwattr $C$DW$109, DW_AT_TI_symbol_name("_vErrorChecks")
     928                      .dwattr $C$DW$109, DW_AT_TI_begin_file("../FreeRTOS/Demo/c5515_CCS/main.c")
     929                      .dwattr $C$DW$109, DW_AT_TI_begin_line(0x195)
     930                      .dwattr $C$DW$109, DW_AT_TI_begin_column(0x0d)
     931                      .dwattr $C$DW$109, DW_AT_TI_max_frame_size(0x06)
     932                      .dwpsn  file "../FreeRTOS/Demo/c5515_CCS/main.c",line 406,column 1,is_stmt,address _vErrorChecks
     933              
     934                      .dwfde $C$DW$CIE, _vErrorChecks
     935              $C$DW$110       .dwtag  DW_TAG_variable, DW_AT_name("ulDummyVariable")
     936                      .dwattr $C$DW$110, DW_AT_TI_symbol_name("_ulDummyVariable$1")
     937                      .dwattr $C$DW$110, DW_AT_type(*$C$DW$T$98)
     938                      .dwattr $C$DW$110, DW_AT_location[DW_OP_addr _ulDummyVariable$1]
     939              $C$DW$111       .dwtag  DW_TAG_formal_parameter, DW_AT_name("pvParameters")
     940                      .dwattr $C$DW$111, DW_AT_TI_symbol_name("_pvParameters")
     941                      .dwattr $C$DW$111, DW_AT_type(*$C$DW$T$3)
     942                      .dwattr $C$DW$111, DW_AT_location[DW_OP_reg17]
     943              ;*******************************************************************************
     944              ;* FUNCTION NAME: vErrorChecks                                                 *
     945              ;*                                                                             *
     946              ;*   Function Uses Regs : AC0,AC0,AC1,AC1,T0,T2,AR0,XAR0,SP,CARRY,TC1,M40,SATA,*
     947              ;*                        SATD,RDM,FRCT,SMUL                                   *
     948              ;*   Save On Entry Regs : T2                                                   *
     949              ;*   Stack Frame        : Compact (No Frame Pointer, w/ debug)                 *
     950              ;*   Total Frame Size   : 6 words                                              *
     951              ;*                        (2 return address/alignment)                         *
     952              ;*                        (3 local values)                                     *
     953              ;*                        (1 register save area)                               *
     954              ;*   Min System Stack   : 1 word                                               *
     955              ;*******************************************************************************
     956 0001bc       _vErrorChecks:
     957                      .dwcfi  cfa_offset, 1
     958                      .dwcfi  save_reg_to_mem, 91, -1
     959 0001bc 5066          PSH T2
     960                      .dwcfi  cfa_offset, 2
     961                      .dwcfi  save_reg_to_mem, 14, -2
     962 0001be 4EFC          AADD #-4, SP
     963                      .dwcfi  cfa_offset, 6
     964              $C$DW$112       .dwtag  DW_TAG_variable, DW_AT_name("pvParameters")
     965                      .dwattr $C$DW$112, DW_AT_TI_symbol_name("_pvParameters")
     966                      .dwattr $C$DW$112, DW_AT_type(*$C$DW$T$3)
     967                      .dwattr $C$DW$112, DW_AT_location[DW_OP_bregx 0x24 0]
     968              $C$DW$113       .dwtag  DW_TAG_variable, DW_AT_name("xDelayPeriod")
     969                      .dwattr $C$DW$113, DW_AT_TI_symbol_name("_xDelayPeriod")
     970                      .dwattr $C$DW$113, DW_AT_type(*$C$DW$T$44)
     971                      .dwattr $C$DW$113, DW_AT_location[DW_OP_bregx 0x24 2]
     972 0001c0 EB00          MOV XAR0, dbl(*SP(#0))
         0001c2 85   
     973                      .dwpsn  file "../FreeRTOS/Demo/c5515_CCS/main.c",line 408,column 14,is_stmt
     974              
     975 0001c3 FB04          MOV #3000, *SP(#2) ; |408| 
         0001c5 0BB8 
     976 0001c7 3D16  ||      MOV #1, T2
     977              
     978 0001c9       $C$L17:    
     979 0001c9       $C$DW$L$_vErrorChecks$2$B:
TMS320C55x Assembler PC v4.4.1 Fri Sep 07 02:27:22 2018

Tools Copyright (c) 1996-2012 Texas Instruments Incorporated
main.asm                                                             PAGE   21

     980                      .dwpsn  file "../FreeRTOS/Demo/c5515_CCS/main.c",line 417,column 3,is_stmt
     981 0001c9 A404          MOV *SP(#2), T0 ; |417| 
     982              $C$DW$114       .dwtag  DW_TAG_TI_branch
     983                      .dwattr $C$DW$114, DW_AT_low_pc(0x00)
     984                      .dwattr $C$DW$114, DW_AT_name("_vTaskDelay")
     985                      .dwattr $C$DW$114, DW_AT_TI_call
     986 0001cb 6C00          CALL #_vTaskDelay ; |417| 
         0001cd 0000!
     987                                                      ; call occurs [#_vTaskDelay] ; |417| 
     988                      .dwpsn  file "../FreeRTOS/Demo/c5515_CCS/main.c",line 425,column 3,is_stmt
     989 0001cf ED31          MOV dbl(*(#_ulDummyVariable$1)), AC1 ; |425| 
         0001d1 1800 
         0001d3 0006-
     990 0001d5 1017          SFTL AC1, #1, AC0 ; |425| 
         0001d7 01   
     991 0001d8 2410          ADD AC1, AC0 ; |425| 
     992 0001da EB31          MOV AC0, dbl(*(#_ulDummyVariable$1)) ; |425| 
         0001dc 0800 
         0001de 0006-
     993                      .dwpsn  file "../FreeRTOS/Demo/c5515_CCS/main.c",line 428,column 3,is_stmt
     994              $C$DW$115       .dwtag  DW_TAG_TI_branch
     995                      .dwattr $C$DW$115, DW_AT_low_pc(0x00)
     996                      .dwattr $C$DW$115, DW_AT_name("_prvCheckOtherTasksAreStillRunning")
     997                      .dwattr $C$DW$115, DW_AT_TI_call
     998 0001e0 0800          CALL #_prvCheckOtherTasksAreStillRunning ; |428| 
         0001e2 0D   
     999                                                      ; call occurs [#_prvCheckOtherTasksAreStillRunning] ; |428| 
    1000 0001e3 1240          CMP T0 == T2, TC1 ; |428| 
         0001e5 60   
    1001 0001e6 0464          BCC $C$L17,TC1 ; |428| 
         0001e8 E0   
    1002                                                      ; branchcc occurs ; |428| 
    1003 0001e9       $C$DW$L$_vErrorChecks$2$E:
    1004 0001e9       $C$DW$L$_vErrorChecks$3$B:
    1005                      .dwpsn  file "../FreeRTOS/Demo/c5515_CCS/main.c",line 433,column 4,is_stmt
    1006 0001e9 FB04          MOV #500, *SP(#2) ; |433| 
         0001eb 01F4 
    1007                      .dwpsn  file "../FreeRTOS/Demo/c5515_CCS/main.c",line 438,column 2,is_stmt
    1008 0001ed 4A5A          B $C$L17  ; |438| 
    1009                                                      ; branch occurs ; |438| 
    1010 0001ef       $C$DW$L$_vErrorChecks$3$E:
    1011                      .dwcfi  cfa_offset, 2
    1012                      .dwcfi  restore_reg, 14
    1013                      .dwcfi  cfa_offset, 1
    1014              
    1015              $C$DW$116       .dwtag  DW_TAG_TI_loop
    1016                      .dwattr $C$DW$116, DW_AT_name("F:\eZDSP_5535_Files\ccsws2\test\Debug\main.asm:$C$L17:1:1536312441")
    1017                      .dwattr $C$DW$116, DW_AT_TI_begin_file("../FreeRTOS/Demo/c5515_CCS/main.c")
    1018                      .dwattr $C$DW$116, DW_AT_TI_begin_line(0x19c)
    1019                      .dwattr $C$DW$116, DW_AT_TI_end_line(0x1b6)
    1020              $C$DW$117       .dwtag  DW_TAG_TI_loop_range
    1021                      .dwattr $C$DW$117, DW_AT_low_pc($C$DW$L$_vErrorChecks$2$B)
    1022                      .dwattr $C$DW$117, DW_AT_high_pc($C$DW$L$_vErrorChecks$2$E)
    1023              $C$DW$118       .dwtag  DW_TAG_TI_loop_range
    1024                      .dwattr $C$DW$118, DW_AT_low_pc($C$DW$L$_vErrorChecks$3$B)
TMS320C55x Assembler PC v4.4.1 Fri Sep 07 02:27:22 2018

Tools Copyright (c) 1996-2012 Texas Instruments Incorporated
main.asm                                                             PAGE   22

    1025                      .dwattr $C$DW$118, DW_AT_high_pc($C$DW$L$_vErrorChecks$3$E)
    1026                      .dwendtag $C$DW$116
    1027              
    1028                      .dwattr $C$DW$109, DW_AT_TI_end_file("../FreeRTOS/Demo/c5515_CCS/main.c")
    1029                      .dwattr $C$DW$109, DW_AT_TI_end_line(0x1b7)
    1030                      .dwattr $C$DW$109, DW_AT_TI_end_column(0x01)
    1031                      .dwendentry
    1032                      .dwendtag $C$DW$109
    1033              
    1034 0001ef               .sect   ".text"
    1035                      .align 4
    1036              
    1037              $C$DW$119       .dwtag  DW_TAG_subprogram, DW_AT_name("prvCheckOtherTasksAreStillRunning")
    1038                      .dwattr $C$DW$119, DW_AT_low_pc(_prvCheckOtherTasksAreStillRunning)
    1039                      .dwattr $C$DW$119, DW_AT_high_pc(0x00)
    1040                      .dwattr $C$DW$119, DW_AT_TI_symbol_name("_prvCheckOtherTasksAreStillRunning")
    1041                      .dwattr $C$DW$119, DW_AT_type(*$C$DW$T$8)
    1042                      .dwattr $C$DW$119, DW_AT_TI_begin_file("../FreeRTOS/Demo/c5515_CCS/main.c")
    1043                      .dwattr $C$DW$119, DW_AT_TI_begin_line(0x1ba)
    1044                      .dwattr $C$DW$119, DW_AT_TI_begin_column(0x0e)
    1045                      .dwattr $C$DW$119, DW_AT_TI_max_frame_size(0x02)
    1046                      .dwpsn  file "../FreeRTOS/Demo/c5515_CCS/main.c",line 443,column 1,is_stmt,address _prvCheckOtherTask
    1047              
    1048                      .dwfde $C$DW$CIE, _prvCheckOtherTasksAreStillRunning
    1049              $C$DW$120       .dwtag  DW_TAG_variable, DW_AT_name("sNoErrorFound")
    1050                      .dwattr $C$DW$120, DW_AT_TI_symbol_name("_sNoErrorFound$2")
    1051                      .dwattr $C$DW$120, DW_AT_type(*$C$DW$T$8)
    1052                      .dwattr $C$DW$120, DW_AT_location[DW_OP_addr _sNoErrorFound$2]
    1053              $C$DW$121       .dwtag  DW_TAG_variable, DW_AT_name("ulLastIdleLoops")
    1054                      .dwattr $C$DW$121, DW_AT_TI_symbol_name("_ulLastIdleLoops$3")
    1055                      .dwattr $C$DW$121, DW_AT_type(*$C$DW$T$13)
    1056                      .dwattr $C$DW$121, DW_AT_location[DW_OP_addr _ulLastIdleLoops$3]
    1057              ;*******************************************************************************
    1058              ;* FUNCTION NAME: prvCheckOtherTasksAreStillRunning                            *
    1059              ;*                                                                             *
    1060              ;*   Function Uses Regs : AC0,AC0,AC1,AC1,T0,AR1,SP,TC1,M40,SATA,SATD,RDM,FRCT,*
    1061              ;*                        SMUL                                                 *
    1062              ;*   Stack Frame        : Compact (No Frame Pointer, w/ debug)                 *
    1063              ;*   Total Frame Size   : 2 words                                              *
    1064              ;*                        (2 return address/alignment)                         *
    1065              ;*   Min System Stack   : 1 word                                               *
    1066              ;*******************************************************************************
    1067 0001f0       _prvCheckOtherTasksAreStillRunning:
    1068                      .dwcfi  cfa_offset, 1
    1069                      .dwcfi  save_reg_to_mem, 91, -1
    1070 0001f0 4EFF          AADD #-1, SP
    1071                      .dwcfi  cfa_offset, 2
    1072                      .dwpsn  file "../FreeRTOS/Demo/c5515_CCS/main.c",line 454,column 2,is_stmt
    1073              $C$DW$122       .dwtag  DW_TAG_TI_branch
    1074                      .dwattr $C$DW$122, DW_AT_low_pc(0x00)
    1075                      .dwattr $C$DW$122, DW_AT_name("_xAreIntegerMathsTaskStillRunning")
    1076                      .dwattr $C$DW$122, DW_AT_TI_call
    1077 0001f2 6C00          CALL #_xAreIntegerMathsTaskStillRunning ; |454| 
         0001f4 0000!
    1078                                                      ; call occurs [#_xAreIntegerMathsTaskStillRunning] ; |454| 
TMS320C55x Assembler PC v4.4.1 Fri Sep 07 02:27:22 2018

Tools Copyright (c) 1996-2012 Texas Instruments Incorporated
main.asm                                                             PAGE   23

    1079 0001f6 3C19          MOV #1, AR1
    1080 0001f8 1240          CMP T0 == AR1, TC1 ; |454| 
         0001fa 90   
    1081 0001fb 6364          BCC $C$L18,TC1 ; |454| 
    1082                                                      ; branchcc occurs ; |454| 
    1083                      .dwpsn  file "../FreeRTOS/Demo/c5515_CCS/main.c",line 456,column 3,is_stmt
    1084 0001fd E631          MOV #0, *(#_sNoErrorFound$2) ; |456| 
         0001ff 0000 
         000201 0003-
    1085 000203       $C$L18:    
    1086                      .dwpsn  file "../FreeRTOS/Demo/c5515_CCS/main.c",line 464,column 2,is_stmt
    1087              $C$DW$123       .dwtag  DW_TAG_TI_branch
    1088                      .dwattr $C$DW$123, DW_AT_low_pc(0x00)
    1089                      .dwattr $C$DW$123, DW_AT_name("_xArePollingQueuesStillRunning")
    1090                      .dwattr $C$DW$123, DW_AT_TI_call
    1091 000203 6C00          CALL #_xArePollingQueuesStillRunning ; |464| 
         000205 0000!
    1092                                                      ; call occurs [#_xArePollingQueuesStillRunning] ; |464| 
    1093 000207 3C19          MOV #1, AR1
    1094 000209 1240          CMP T0 == AR1, TC1 ; |464| 
         00020b 90   
    1095 00020c 6364          BCC $C$L19,TC1 ; |464| 
    1096                                                      ; branchcc occurs ; |464| 
    1097                      .dwpsn  file "../FreeRTOS/Demo/c5515_CCS/main.c",line 466,column 3,is_stmt
    1098 00020e E631          MOV #0, *(#_sNoErrorFound$2) ; |466| 
         000210 0000 
         000212 0003-
    1099 000214       $C$L19:    
    1100                      .dwpsn  file "../FreeRTOS/Demo/c5515_CCS/main.c",line 469,column 2,is_stmt
    1101 000214 ED31          MOV dbl(*(#_ulIdleLoops)), AC0 ; |469| 
         000216 0800 
         000218 0004-
    1102 00021a ED31          MOV dbl(*(#_ulLastIdleLoops$3)), AC1 ; |469| 
         00021c 1800 
         00021e 0008-
    1103 000220 121C          CMPU AC1 != AC0, TC1 ; |469| 
         000222 04   
    1104 000223 6364          BCC $C$L20,TC1 ; |469| 
    1105                                                      ; branchcc occurs ; |469| 
    1106                      .dwpsn  file "../FreeRTOS/Demo/c5515_CCS/main.c",line 471,column 3,is_stmt
    1107 000225 E631          MOV #0, *(#_sNoErrorFound$2) ; |471| 
         000227 0000 
         000229 0003-
    1108 00022b       $C$L20:    
    1109                      .dwpsn  file "../FreeRTOS/Demo/c5515_CCS/main.c",line 474,column 2,is_stmt
    1110 00022b ED31          MOV dbl(*(#_ulIdleLoops)), AC0 ; |474| 
         00022d 0800 
         00022f 0004-
    1111 000231 EB31          MOV AC0, dbl(*(#_ulLastIdleLoops$3)) ; |474| 
         000233 0800 
         000235 0008-
    1112                      .dwpsn  file "../FreeRTOS/Demo/c5515_CCS/main.c",line 476,column 2,is_stmt
    1113 000237 A431          MOV *(#_sNoErrorFound$2), T0 ; |476| 
         000239 0000 
         00023b 03-  
TMS320C55x Assembler PC v4.4.1 Fri Sep 07 02:27:22 2018

Tools Copyright (c) 1996-2012 Texas Instruments Incorporated
main.asm                                                             PAGE   24

    1114                      .dwpsn  file "../FreeRTOS/Demo/c5515_CCS/main.c",line 477,column 1,is_stmt
    1115 00023c 4E01          AADD #1, SP
    1116                      .dwcfi  cfa_offset, 1
    1117              $C$DW$124       .dwtag  DW_TAG_TI_branch
    1118                      .dwattr $C$DW$124, DW_AT_low_pc(0x00)
    1119                      .dwattr $C$DW$124, DW_AT_TI_return
    1120 00023e 4804          RET
    1121                                                      ; return occurs
    1122                      .dwattr $C$DW$119, DW_AT_TI_end_file("../FreeRTOS/Demo/c5515_CCS/main.c")
    1123                      .dwattr $C$DW$119, DW_AT_TI_end_line(0x1dd)
    1124                      .dwattr $C$DW$119, DW_AT_TI_end_column(0x01)
    1125                      .dwendentry
    1126                      .dwendtag $C$DW$119
    1127              
    1128 000240               .sect   ".text"
    1129                      .align 4
    1130              
    1131              $C$DW$125       .dwtag  DW_TAG_subprogram, DW_AT_name("prvSetupHardware")
    1132                      .dwattr $C$DW$125, DW_AT_low_pc(_prvSetupHardware)
    1133                      .dwattr $C$DW$125, DW_AT_high_pc(0x00)
    1134                      .dwattr $C$DW$125, DW_AT_TI_symbol_name("_prvSetupHardware")
    1135                      .dwattr $C$DW$125, DW_AT_TI_begin_file("../FreeRTOS/Demo/c5515_CCS/main.c")
    1136                      .dwattr $C$DW$125, DW_AT_TI_begin_line(0x1e0)
    1137                      .dwattr $C$DW$125, DW_AT_TI_begin_column(0x0d)
    1138                      .dwattr $C$DW$125, DW_AT_TI_max_frame_size(0x02)
    1139                      .dwpsn  file "../FreeRTOS/Demo/c5515_CCS/main.c",line 481,column 1,is_stmt,address _prvSetupHardware
    1140              
    1141                      .dwfde $C$DW$CIE, _prvSetupHardware
    1142              ;*******************************************************************************
    1143              ;* FUNCTION NAME: prvSetupHardware                                             *
    1144              ;*                                                                             *
    1145              ;*   Function Uses Regs : SP,M40,SATA,SATD,RDM,FRCT,SMUL                       *
    1146              ;*   Stack Frame        : Compact (No Frame Pointer, w/ debug)                 *
    1147              ;*   Total Frame Size   : 2 words                                              *
    1148              ;*                        (2 return address/alignment)                         *
    1149              ;*   Min System Stack   : 1 word                                               *
    1150              ;*******************************************************************************
    1151 000240       _prvSetupHardware:
    1152                      .dwcfi  cfa_offset, 1
    1153                      .dwcfi  save_reg_to_mem, 91, -1
    1154 000240 4EFF          AADD #-1, SP
    1155                      .dwcfi  cfa_offset, 2
    1156                      .dwpsn  file "../FreeRTOS/Demo/c5515_CCS/main.c",line 485,column 7,is_stmt
    1157              $C$DW$126       .dwtag  DW_TAG_TI_branch
    1158                      .dwattr $C$DW$126, DW_AT_low_pc(0x00)
    1159                      .dwattr $C$DW$126, DW_AT_name("_systemInit")
    1160                      .dwattr $C$DW$126, DW_AT_TI_call
    1161 000242 0801          CALL #_systemInit ; |485| 
         000244 F3   
    1162                                                      ; call occurs [#_systemInit] ; |485| 
    1163                      .dwpsn  file "../FreeRTOS/Demo/c5515_CCS/main.c",line 494,column 9,is_stmt
    1164              $C$DW$127       .dwtag  DW_TAG_TI_branch
    1165                      .dwattr $C$DW$127, DW_AT_low_pc(0x00)
    1166                      .dwattr $C$DW$127, DW_AT_name("_RTC_reset")
    1167                      .dwattr $C$DW$127, DW_AT_TI_call
TMS320C55x Assembler PC v4.4.1 Fri Sep 07 02:27:22 2018

Tools Copyright (c) 1996-2012 Texas Instruments Incorporated
main.asm                                                             PAGE   25

    1168 000245 6C00          CALL #_RTC_reset ; |494| 
         000247 0000!
    1169                                                      ; call occurs [#_RTC_reset] ; |494| 
    1170                      .dwpsn  file "../FreeRTOS/Demo/c5515_CCS/main.c",line 495,column 2,is_stmt
    1171              $C$DW$128       .dwtag  DW_TAG_TI_branch
    1172                      .dwattr $C$DW$128, DW_AT_low_pc(0x00)
    1173                      .dwattr $C$DW$128, DW_AT_name("_reset_RTC")
    1174                      .dwattr $C$DW$128, DW_AT_TI_call
    1175 000249 6C00          CALL #_reset_RTC ; |495| 
         00024b 0000!
    1176                                                      ; call occurs [#_reset_RTC] ; |495| 
    1177                      .dwpsn  file "../FreeRTOS/Demo/c5515_CCS/main.c",line 499,column 2,is_stmt
    1178              $C$DW$129       .dwtag  DW_TAG_TI_branch
    1179                      .dwattr $C$DW$129, DW_AT_low_pc(0x00)
    1180                      .dwattr $C$DW$129, DW_AT_name("_set_i2s0_slave")
    1181                      .dwattr $C$DW$129, DW_AT_TI_call
    1182 00024d 6C00          CALL #_set_i2s0_slave ; |499| 
         00024f 0000!
    1183                                                      ; call occurs [#_set_i2s0_slave] ; |499| 
    1184                      .dwpsn  file "../FreeRTOS/Demo/c5515_CCS/main.c",line 500,column 2,is_stmt
    1185              $C$DW$130       .dwtag  DW_TAG_TI_branch
    1186                      .dwattr $C$DW$130, DW_AT_low_pc(0x00)
    1187                      .dwattr $C$DW$130, DW_AT_name("_enable_i2s0")
    1188                      .dwattr $C$DW$130, DW_AT_TI_call
    1189 000251 6C00          CALL #_enable_i2s0 ; |500| 
         000253 0000!
    1190                                                      ; call occurs [#_enable_i2s0] ; |500| 
    1191                      .dwpsn  file "../FreeRTOS/Demo/c5515_CCS/main.c",line 532,column 1,is_stmt
    1192 000255 4E01          AADD #1, SP
    1193                      .dwcfi  cfa_offset, 1
    1194              $C$DW$131       .dwtag  DW_TAG_TI_branch
    1195                      .dwattr $C$DW$131, DW_AT_low_pc(0x00)
    1196                      .dwattr $C$DW$131, DW_AT_TI_return
    1197 000257 4804          RET
    1198                                                      ; return occurs
    1199                      .dwattr $C$DW$125, DW_AT_TI_end_file("../FreeRTOS/Demo/c5515_CCS/main.c")
    1200                      .dwattr $C$DW$125, DW_AT_TI_end_line(0x214)
    1201                      .dwattr $C$DW$125, DW_AT_TI_end_column(0x01)
    1202                      .dwendentry
    1203                      .dwendtag $C$DW$125
    1204              
    1205 000259               .sect   ".text"
    1206                      .align 4
    1207                      .global _vApplicationIdleHook
    1208              
    1209              $C$DW$132       .dwtag  DW_TAG_subprogram, DW_AT_name("vApplicationIdleHook")
    1210                      .dwattr $C$DW$132, DW_AT_low_pc(_vApplicationIdleHook)
    1211                      .dwattr $C$DW$132, DW_AT_high_pc(0x00)
    1212                      .dwattr $C$DW$132, DW_AT_TI_symbol_name("_vApplicationIdleHook")
    1213                      .dwattr $C$DW$132, DW_AT_external
    1214                      .dwattr $C$DW$132, DW_AT_TI_begin_file("../FreeRTOS/Demo/c5515_CCS/main.c")
    1215                      .dwattr $C$DW$132, DW_AT_TI_begin_line(0x218)
    1216                      .dwattr $C$DW$132, DW_AT_TI_begin_column(0x06)
    1217                      .dwattr $C$DW$132, DW_AT_TI_max_frame_size(0x02)
    1218                      .dwpsn  file "../FreeRTOS/Demo/c5515_CCS/main.c",line 537,column 1,is_stmt,address _vApplicationIdleH
TMS320C55x Assembler PC v4.4.1 Fri Sep 07 02:27:22 2018

Tools Copyright (c) 1996-2012 Texas Instruments Incorporated
main.asm                                                             PAGE   26

    1219              
    1220                      .dwfde $C$DW$CIE, _vApplicationIdleHook
    1221              $C$DW$133       .dwtag  DW_TAG_variable, DW_AT_name("i")
    1222                      .dwattr $C$DW$133, DW_AT_TI_symbol_name("_i$4")
    1223                      .dwattr $C$DW$133, DW_AT_type(*$C$DW$T$9)
    1224                      .dwattr $C$DW$133, DW_AT_location[DW_OP_addr _i$4]
    1225              ;*******************************************************************************
    1226              ;* FUNCTION NAME: vApplicationIdleHook                                         *
    1227              ;*                                                                             *
    1228              ;*   Function Uses Regs : AC0,AC0,AC1,AC1,AR3,XAR3,SP,CARRY,TC1,M40,SATA,SATD, *
    1229              ;*                        RDM,FRCT,SMUL                                        *
    1230              ;*   Stack Frame        : Compact (No Frame Pointer, w/ debug)                 *
    1231              ;*   Total Frame Size   : 2 words                                              *
    1232              ;*                        (2 return address/alignment)                         *
    1233              ;*   Min System Stack   : 1 word                                               *
    1234              ;*******************************************************************************
    1235 00025c       _vApplicationIdleHook:
    1236                      .dwcfi  cfa_offset, 1
    1237                      .dwcfi  save_reg_to_mem, 91, -1
    1238 00025c 4EFF          AADD #-1, SP
    1239                      .dwcfi  cfa_offset, 2
    1240                      .dwpsn  file "../FreeRTOS/Demo/c5515_CCS/main.c",line 542,column 2,is_stmt
    1241 00025e ED31          MOV dbl(*(#_ulIdleLoops)), AC0 ; |542| 
         000260 0800 
         000262 0004-
    1242 000264 4010          ADD #1, AC0 ; |542| 
    1243 000266 EB31          MOV AC0, dbl(*(#_ulIdleLoops)) ; |542| 
         000268 0800 
         00026a 0004-
    1244                      .dwpsn  file "../FreeRTOS/Demo/c5515_CCS/main.c",line 544,column 2,is_stmt
    1245              $C$DW$134       .dwtag  DW_TAG_TI_branch
    1246                      .dwattr $C$DW$134, DW_AT_low_pc(0x00)
    1247                      .dwattr $C$DW$134, DW_AT_name("_toggleLED")
    1248                      .dwattr $C$DW$134, DW_AT_TI_call
    1249 00026c 0800          CALL #_toggleLED ; |544| 
         00026e A1   
    1250                                                      ; call occurs [#_toggleLED] ; |544| 
    1251                      .dwpsn  file "../FreeRTOS/Demo/c5515_CCS/main.c",line 547,column 2,is_stmt
    1252 00026f EC31          AMOV #500000, XAR3 ; |547| 
         000271 BE07 
         000273 A120 
    1253 000275 ED31          MOV dbl(*(#_ulIdleLoops)), AC1 ; |547| 
         000277 1800 
         000279 0004-
    1254 00027b 90B0          MOV XAR3, AC0
    1255 00027d 1218          CMPU AC1 >= AC0, TC1 ; |547| 
         00027f 04   
    1256 000280 6464          BCC $C$L21,TC1 ; |547| 
    1257                                                      ; branchcc occurs ; |547| 
    1258                      .dwpsn  file "../FreeRTOS/Demo/c5515_CCS/main.c",line 568,column 9,is_stmt
    1259 000282 3C00          MOV #0, AC0 ; |568| 
    1260 000284 EB31          MOV AC0, dbl(*(#_ulIdleLoops)) ; |568| 
         000286 0800 
         000288 0004-
    1261                      .dwpsn  file "../FreeRTOS/Demo/c5515_CCS/main.c",line 575,column 1,is_stmt
TMS320C55x Assembler PC v4.4.1 Fri Sep 07 02:27:22 2018

Tools Copyright (c) 1996-2012 Texas Instruments Incorporated
main.asm                                                             PAGE   27

    1262 00028a       $C$L21:    
    1263 00028a 4E01          AADD #1, SP
    1264                      .dwcfi  cfa_offset, 1
    1265              $C$DW$135       .dwtag  DW_TAG_TI_branch
    1266                      .dwattr $C$DW$135, DW_AT_low_pc(0x00)
    1267                      .dwattr $C$DW$135, DW_AT_TI_return
    1268 00028c 4804          RET
    1269                                                      ; return occurs
    1270                      .dwattr $C$DW$132, DW_AT_TI_end_file("../FreeRTOS/Demo/c5515_CCS/main.c")
    1271                      .dwattr $C$DW$132, DW_AT_TI_end_line(0x23f)
    1272                      .dwattr $C$DW$132, DW_AT_TI_end_column(0x01)
    1273                      .dwendentry
    1274                      .dwendtag $C$DW$132
    1275              
    1276 00028e               .sect   ".text"
    1277                      .align 4
    1278                      .global _InitSystem
    1279              
    1280              $C$DW$136       .dwtag  DW_TAG_subprogram, DW_AT_name("InitSystem")
    1281                      .dwattr $C$DW$136, DW_AT_low_pc(_InitSystem)
    1282                      .dwattr $C$DW$136, DW_AT_high_pc(0x00)
    1283                      .dwattr $C$DW$136, DW_AT_TI_symbol_name("_InitSystem")
    1284                      .dwattr $C$DW$136, DW_AT_external
    1285                      .dwattr $C$DW$136, DW_AT_TI_begin_file("../FreeRTOS/Demo/c5515_CCS/main.c")
    1286                      .dwattr $C$DW$136, DW_AT_TI_begin_line(0x248)
    1287                      .dwattr $C$DW$136, DW_AT_TI_begin_column(0x06)
    1288                      .dwattr $C$DW$136, DW_AT_TI_max_frame_size(0x02)
    1289                      .dwpsn  file "../FreeRTOS/Demo/c5515_CCS/main.c",line 585,column 1,is_stmt,address _InitSystem
    1290              
    1291                      .dwfde $C$DW$CIE, _InitSystem
    1292              ;*******************************************************************************
    1293              ;* FUNCTION NAME: InitSystem                                                   *
    1294              ;*                                                                             *
    1295              ;*   Function Uses Regs : AR1,AR2,SP,CARRY,TC1,M40,SATA,SATD,RDM,FRCT,SMUL     *
    1296              ;*   Stack Frame        : Compact (No Frame Pointer, w/ debug)                 *
    1297              ;*   Total Frame Size   : 2 words                                              *
    1298              ;*                        (1 return address/alignment)                         *
    1299              ;*                        (1 local values)                                     *
    1300              ;*   Min System Stack   : 1 word                                               *
    1301              ;*******************************************************************************
    1302 000290       _InitSystem:
    1303                      .dwcfi  cfa_offset, 1
    1304                      .dwcfi  save_reg_to_mem, 91, -1
    1305 000290 4EFF          AADD #-1, SP
    1306                      .dwcfi  cfa_offset, 2
    1307              $C$DW$137       .dwtag  DW_TAG_variable, DW_AT_name("i")
    1308                      .dwattr $C$DW$137, DW_AT_TI_symbol_name("_i")
    1309                      .dwattr $C$DW$137, DW_AT_type(*$C$DW$T$10)
    1310                      .dwattr $C$DW$137, DW_AT_location[DW_OP_bregx 0x24 0]
    1311                      .dwpsn  file "../FreeRTOS/Demo/c5515_CCS/main.c",line 589,column 5,is_stmt
    1312 000292 E651          MOV #0, *port(#7199) ; |589| 
         000294 001C 
         000296 1F   
    1313                      .dwpsn  file "../FreeRTOS/Demo/c5515_CCS/main.c",line 592,column 5,is_stmt
    1314 000297 FB51          MOV #32768, *port(#7201) ; |592| 
TMS320C55x Assembler PC v4.4.1 Fri Sep 07 02:27:22 2018

Tools Copyright (c) 1996-2012 Texas Instruments Incorporated
main.asm                                                             PAGE   28

         000299 8000 
         00029b 1C21 
    1315                      .dwpsn  file "../FreeRTOS/Demo/c5515_CCS/main.c",line 593,column 5,is_stmt
    1316 00029d E651          MOV #0, *port(#7203) ; |593| 
         00029f 001C 
         0002a1 23   
    1317                      .dwpsn  file "../FreeRTOS/Demo/c5515_CCS/main.c",line 594,column 5,is_stmt
    1318 0002a2 FB51          MOV #2054, *port(#7202) ; |594| 
         0002a4 0806 
         0002a6 1C22 
    1319                      .dwpsn  file "../FreeRTOS/Demo/c5515_CCS/main.c",line 595,column 5,is_stmt
    1320 0002a8 FB51          MOV #35816, *port(#7200) ; |595| 
         0002aa 8BE8 
         0002ac 1C20 
    1321                      .dwpsn  file "../FreeRTOS/Demo/c5515_CCS/main.c",line 610,column 13,is_stmt
    1322 0002ae DC51          BTST #3, *port(#7202), TC1 ; |610| 
         0002b0 301C 
         0002b2 22   
    1323 0002b3 6464          BCC $C$L23,TC1 ; |610| 
    1324                                                      ; branchcc occurs ; |610| 
    1325 0002b5       $C$L22:    
    1326 0002b5       $C$DW$L$_InitSystem$2$B:
    1327 0002b5 DC51          BTST #3, *port(#7202), TC1 ; |610| 
         0002b7 301C 
         0002b9 22   
    1328 0002ba 0474          BCC $C$L22,!TC1 ; |610| 
         0002bc F8   
    1329                                                      ; branchcc occurs ; |610| 
    1330 0002bd       $C$DW$L$_InitSystem$2$E:
    1331 0002bd       $C$L23:    
    1332                      .dwpsn  file "../FreeRTOS/Demo/c5515_CCS/main.c",line 612,column 5,is_stmt
    1333 0002bd E651          MOV #1, *port(#7199) ; |612| 
         0002bf 011C 
         0002c1 1F   
    1334                      .dwpsn  file "../FreeRTOS/Demo/c5515_CCS/main.c",line 616,column 5,is_stmt
    1335 0002c2 E651          MOV #0, *port(#7170) ; |616| 
         0002c4 001C 
         0002c6 02   
    1336                      .dwpsn  file "../FreeRTOS/Demo/c5515_CCS/main.c",line 617,column 5,is_stmt
    1337 0002c7 FB51          MOV #65412, *port(#7171) ; |617| 
         0002c9 FF84 
         0002cb 1C03 
    1338                      .dwpsn  file "../FreeRTOS/Demo/c5515_CCS/main.c",line 621,column 5,is_stmt
    1339 0002cd E651          MOV #2, *port(#7172) ; |621| 
         0002cf 021C 
         0002d1 04   
    1340                      .dwpsn  file "../FreeRTOS/Demo/c5515_CCS/main.c",line 622,column 5,is_stmt
    1341 0002d2 FB51          MOV #251, *port(#7173) ; |622| 
         0002d4 00FB 
         0002d6 1C05 
    1342                      .dwpsn  file "../FreeRTOS/Demo/c5515_CCS/main.c",line 623,column 10,is_stmt
    1343 0002d8 E600          MOV #0, *SP(#0) ; |623| 
         0002da 00   
    1344                      .dwpsn  file "../FreeRTOS/Demo/c5515_CCS/main.c",line 623,column 15,is_stmt
    1345 0002db 7600          MOV #200, AR2 ; |623| 
TMS320C55x Assembler PC v4.4.1 Fri Sep 07 02:27:22 2018

Tools Copyright (c) 1996-2012 Texas Instruments Incorporated
main.asm                                                             PAGE   29

         0002dd C8A8 
    1346 0002df A900          MOV *SP(#0), AR1 ; |623| 
    1347 0002e1 1298          CMP AR1 >= AR2, TC1 ; |623| 
         0002e3 A0   
    1348 0002e4 6664          BCC $C$L25,TC1 ; |623| 
    1349                                                      ; branchcc occurs ; |623| 
    1350 0002e6       $C$L24:    
    1351 0002e6       $C$DW$L$_InitSystem$4$B:
    1352                      .dwpsn  file "../FreeRTOS/Demo/c5515_CCS/main.c",line 623,column 23,is_stmt
    1353 0002e6 F700          ADD #1, *SP(#0) ; |623| 
         0002e8 0001 
    1354                      .dwpsn  file "../FreeRTOS/Demo/c5515_CCS/main.c",line 623,column 15,is_stmt
    1355 0002ea A900          MOV *SP(#0), AR1 ; |623| 
    1356 0002ec 1294          CMP AR1 < AR2, TC1 ; |623| 
         0002ee A0   
    1357 0002ef 0464          BCC $C$L24,TC1 ; |623| 
         0002f1 F4   
    1358                                                      ; branchcc occurs ; |623| 
    1359 0002f2       $C$DW$L$_InitSystem$4$E:
    1360                      .dwpsn  file "../FreeRTOS/Demo/c5515_CCS/main.c",line 625,column 1,is_stmt
    1361 0002f2       $C$L25:    
    1362 0002f2 4E01          AADD #1, SP
    1363                      .dwcfi  cfa_offset, 1
    1364              $C$DW$138       .dwtag  DW_TAG_TI_branch
    1365                      .dwattr $C$DW$138, DW_AT_low_pc(0x00)
    1366                      .dwattr $C$DW$138, DW_AT_TI_return
    1367 0002f4 4804          RET
    1368                                                      ; return occurs
    1369              
    1370              $C$DW$139       .dwtag  DW_TAG_TI_loop
    1371                      .dwattr $C$DW$139, DW_AT_name("F:\eZDSP_5535_Files\ccsws2\test\Debug\main.asm:$C$L24:1:1536312441")
    1372                      .dwattr $C$DW$139, DW_AT_TI_begin_file("../FreeRTOS/Demo/c5515_CCS/main.c")
    1373                      .dwattr $C$DW$139, DW_AT_TI_begin_line(0x26f)
    1374                      .dwattr $C$DW$139, DW_AT_TI_end_line(0x26f)
    1375              $C$DW$140       .dwtag  DW_TAG_TI_loop_range
    1376                      .dwattr $C$DW$140, DW_AT_low_pc($C$DW$L$_InitSystem$4$B)
    1377                      .dwattr $C$DW$140, DW_AT_high_pc($C$DW$L$_InitSystem$4$E)
    1378                      .dwendtag $C$DW$139
    1379              
    1380              
    1381              $C$DW$141       .dwtag  DW_TAG_TI_loop
    1382                      .dwattr $C$DW$141, DW_AT_name("F:\eZDSP_5535_Files\ccsws2\test\Debug\main.asm:$C$L22:1:1536312441")
    1383                      .dwattr $C$DW$141, DW_AT_TI_begin_file("../FreeRTOS/Demo/c5515_CCS/main.c")
    1384                      .dwattr $C$DW$141, DW_AT_TI_begin_line(0x262)
    1385                      .dwattr $C$DW$141, DW_AT_TI_end_line(0x262)
    1386              $C$DW$142       .dwtag  DW_TAG_TI_loop_range
    1387                      .dwattr $C$DW$142, DW_AT_low_pc($C$DW$L$_InitSystem$2$B)
    1388                      .dwattr $C$DW$142, DW_AT_high_pc($C$DW$L$_InitSystem$2$E)
    1389                      .dwendtag $C$DW$141
    1390              
    1391                      .dwattr $C$DW$136, DW_AT_TI_end_file("../FreeRTOS/Demo/c5515_CCS/main.c")
    1392                      .dwattr $C$DW$136, DW_AT_TI_end_line(0x271)
    1393                      .dwattr $C$DW$136, DW_AT_TI_end_column(0x01)
    1394                      .dwendentry
    1395                      .dwendtag $C$DW$136
TMS320C55x Assembler PC v4.4.1 Fri Sep 07 02:27:22 2018

Tools Copyright (c) 1996-2012 Texas Instruments Incorporated
main.asm                                                             PAGE   30

    1396              
    1397 0002f6               .sect   ".text"
    1398                      .align 4
    1399                      .global _ConfigPort
    1400              
    1401              $C$DW$143       .dwtag  DW_TAG_subprogram, DW_AT_name("ConfigPort")
    1402                      .dwattr $C$DW$143, DW_AT_low_pc(_ConfigPort)
    1403                      .dwattr $C$DW$143, DW_AT_high_pc(0x00)
    1404                      .dwattr $C$DW$143, DW_AT_TI_symbol_name("_ConfigPort")
    1405                      .dwattr $C$DW$143, DW_AT_external
    1406                      .dwattr $C$DW$143, DW_AT_TI_begin_file("../FreeRTOS/Demo/c5515_CCS/main.c")
    1407                      .dwattr $C$DW$143, DW_AT_TI_begin_line(0x272)
    1408                      .dwattr $C$DW$143, DW_AT_TI_begin_column(0x06)
    1409                      .dwattr $C$DW$143, DW_AT_TI_max_frame_size(0x01)
    1410                      .dwpsn  file "../FreeRTOS/Demo/c5515_CCS/main.c",line 627,column 1,is_stmt,address _ConfigPort
    1411              
    1412                      .dwfde $C$DW$CIE, _ConfigPort
    1413              ;*******************************************************************************
    1414              ;* FUNCTION NAME: ConfigPort                                                   *
    1415              ;*                                                                             *
    1416              ;*   Function Uses Regs : SP,M40,SATA,SATD,RDM,FRCT,SMUL                       *
    1417              ;*   Stack Frame        : Compact (No Frame Pointer, w/ debug)                 *
    1418              ;*   Total Frame Size   : 1 word                                               *
    1419              ;*                        (1 return address/alignment)                         *
    1420              ;*   Min System Stack   : 1 word                                               *
    1421              ;*******************************************************************************
    1422 0002f8       _ConfigPort:
    1423                      .dwcfi  cfa_offset, 1
    1424                      .dwcfi  save_reg_to_mem, 91, -1
    1425                      .dwpsn  file "../FreeRTOS/Demo/c5515_CCS/main.c",line 629,column 5,is_stmt
    1426 0002f8 FB51          MOV #26880, *port(#7168) ; |629| 
         0002fa 6900 
         0002fc 1C00 
    1427                      .dwpsn  file "../FreeRTOS/Demo/c5515_CCS/main.c",line 631,column 1,is_stmt
    1428              $C$DW$144       .dwtag  DW_TAG_TI_branch
    1429                      .dwattr $C$DW$144, DW_AT_low_pc(0x00)
    1430                      .dwattr $C$DW$144, DW_AT_TI_return
    1431 0002fe 4804          RET
    1432                                                      ; return occurs
    1433                      .dwattr $C$DW$143, DW_AT_TI_end_file("../FreeRTOS/Demo/c5515_CCS/main.c")
    1434                      .dwattr $C$DW$143, DW_AT_TI_end_line(0x277)
    1435                      .dwattr $C$DW$143, DW_AT_TI_end_column(0x01)
    1436                      .dwendentry
    1437                      .dwendtag $C$DW$143
    1438              
    1439 000300               .sect   ".text"
    1440                      .align 4
    1441                      .global _SYS_GlobalIntEnable
    1442              
    1443              $C$DW$145       .dwtag  DW_TAG_subprogram, DW_AT_name("SYS_GlobalIntEnable")
    1444                      .dwattr $C$DW$145, DW_AT_low_pc(_SYS_GlobalIntEnable)
    1445                      .dwattr $C$DW$145, DW_AT_high_pc(0x00)
    1446                      .dwattr $C$DW$145, DW_AT_TI_symbol_name("_SYS_GlobalIntEnable")
    1447                      .dwattr $C$DW$145, DW_AT_external
    1448                      .dwattr $C$DW$145, DW_AT_TI_begin_file("../FreeRTOS/Demo/c5515_CCS/main.c")
TMS320C55x Assembler PC v4.4.1 Fri Sep 07 02:27:22 2018

Tools Copyright (c) 1996-2012 Texas Instruments Incorporated
main.asm                                                             PAGE   31

    1449                      .dwattr $C$DW$145, DW_AT_TI_begin_line(0x27a)
    1450                      .dwattr $C$DW$145, DW_AT_TI_begin_column(0x06)
    1451                      .dwattr $C$DW$145, DW_AT_TI_max_frame_size(0x01)
    1452                      .dwpsn  file "../FreeRTOS/Demo/c5515_CCS/main.c",line 636,column 1,is_stmt,address _SYS_GlobalIntEnab
    1453              
    1454                      .dwfde $C$DW$CIE, _SYS_GlobalIntEnable
    1455              ;*******************************************************************************
    1456              ;* FUNCTION NAME: SYS_GlobalIntEnable                                          *
    1457              ;*                                                                             *
    1458              ;*   Function Uses Regs : SP,M40,SATA,SATD,RDM,FRCT,SMUL                       *
    1459              ;*   Stack Frame        : Compact (No Frame Pointer, w/ debug)                 *
    1460              ;*   Total Frame Size   : 1 word                                               *
    1461              ;*                        (1 return address/alignment)                         *
    1462              ;*   Min System Stack   : 1 word                                               *
    1463              ;*******************************************************************************
    1464 000300       _SYS_GlobalIntEnable:
    1465                      .dwcfi  cfa_offset, 1
    1466                      .dwcfi  save_reg_to_mem, 91, -1
    1467                      .dwpsn  file "../FreeRTOS/Demo/c5515_CCS/main.c",line 644,column 2,is_stmt
    1468 000300 20     nop
    1469                      .dwpsn  file "../FreeRTOS/Demo/c5515_CCS/main.c",line 645,column 2,is_stmt
    1470 000301 46B2   bclr INTM
    1471                      .dwpsn  file "../FreeRTOS/Demo/c5515_CCS/main.c",line 646,column 1,is_stmt
    1472              $C$DW$146       .dwtag  DW_TAG_TI_branch
    1473                      .dwattr $C$DW$146, DW_AT_low_pc(0x00)
    1474                      .dwattr $C$DW$146, DW_AT_TI_return
    1475 000303 4804          RET
    1476                                                      ; return occurs
    1477                      .dwattr $C$DW$145, DW_AT_TI_end_file("../FreeRTOS/Demo/c5515_CCS/main.c")
    1478                      .dwattr $C$DW$145, DW_AT_TI_end_line(0x286)
    1479                      .dwattr $C$DW$145, DW_AT_TI_end_column(0x01)
    1480                      .dwendentry
    1481                      .dwendtag $C$DW$145
    1482              
    1483 000305               .sect   ".text"
    1484                      .align 4
    1485                      .global _SYS_GlobalIntDisable
    1486              
    1487              $C$DW$147       .dwtag  DW_TAG_subprogram, DW_AT_name("SYS_GlobalIntDisable")
    1488                      .dwattr $C$DW$147, DW_AT_low_pc(_SYS_GlobalIntDisable)
    1489                      .dwattr $C$DW$147, DW_AT_high_pc(0x00)
    1490                      .dwattr $C$DW$147, DW_AT_TI_symbol_name("_SYS_GlobalIntDisable")
    1491                      .dwattr $C$DW$147, DW_AT_external
    1492                      .dwattr $C$DW$147, DW_AT_TI_begin_file("../FreeRTOS/Demo/c5515_CCS/main.c")
    1493                      .dwattr $C$DW$147, DW_AT_TI_begin_line(0x288)
    1494                      .dwattr $C$DW$147, DW_AT_TI_begin_column(0x06)
    1495                      .dwattr $C$DW$147, DW_AT_TI_max_frame_size(0x01)
    1496                      .dwpsn  file "../FreeRTOS/Demo/c5515_CCS/main.c",line 650,column 1,is_stmt,address _SYS_GlobalIntDisa
    1497              
    1498                      .dwfde $C$DW$CIE, _SYS_GlobalIntDisable
    1499              ;*******************************************************************************
    1500              ;* FUNCTION NAME: SYS_GlobalIntDisable                                         *
    1501              ;*                                                                             *
    1502              ;*   Function Uses Regs : SP,M40,SATA,SATD,RDM,FRCT,SMUL                       *
    1503              ;*   Stack Frame        : Compact (No Frame Pointer, w/ debug)                 *
TMS320C55x Assembler PC v4.4.1 Fri Sep 07 02:27:22 2018

Tools Copyright (c) 1996-2012 Texas Instruments Incorporated
main.asm                                                             PAGE   32

    1504              ;*   Total Frame Size   : 1 word                                               *
    1505              ;*                        (1 return address/alignment)                         *
    1506              ;*   Min System Stack   : 1 word                                               *
    1507              ;*******************************************************************************
    1508 000308       _SYS_GlobalIntDisable:
    1509                      .dwcfi  cfa_offset, 1
    1510                      .dwcfi  save_reg_to_mem, 91, -1
    1511                      .dwpsn  file "../FreeRTOS/Demo/c5515_CCS/main.c",line 656,column 2,is_stmt
    1512 000308 20     nop
    1513                      .dwpsn  file "../FreeRTOS/Demo/c5515_CCS/main.c",line 657,column 2,is_stmt
    1514 000309 46B3   bset INTM
    1515                      .dwpsn  file "../FreeRTOS/Demo/c5515_CCS/main.c",line 659,column 1,is_stmt
    1516              $C$DW$148       .dwtag  DW_TAG_TI_branch
    1517                      .dwattr $C$DW$148, DW_AT_low_pc(0x00)
    1518                      .dwattr $C$DW$148, DW_AT_TI_return
    1519 00030b 4804          RET
    1520                                                      ; return occurs
    1521                      .dwattr $C$DW$147, DW_AT_TI_end_file("../FreeRTOS/Demo/c5515_CCS/main.c")
    1522                      .dwattr $C$DW$147, DW_AT_TI_end_line(0x293)
    1523                      .dwattr $C$DW$147, DW_AT_TI_end_column(0x01)
    1524                      .dwendentry
    1525                      .dwendtag $C$DW$147
    1526              
    1527 00030d               .sect   ".text"
    1528                      .align 4
    1529              
    1530              $C$DW$149       .dwtag  DW_TAG_subprogram, DW_AT_name("toggleLED")
    1531                      .dwattr $C$DW$149, DW_AT_low_pc(_toggleLED)
    1532                      .dwattr $C$DW$149, DW_AT_high_pc(0x00)
    1533                      .dwattr $C$DW$149, DW_AT_TI_symbol_name("_toggleLED")
    1534                      .dwattr $C$DW$149, DW_AT_type(*$C$DW$T$10)
    1535                      .dwattr $C$DW$149, DW_AT_TI_begin_file("../FreeRTOS/Demo/c5515_CCS/main.c")
    1536                      .dwattr $C$DW$149, DW_AT_TI_begin_line(0x296)
    1537                      .dwattr $C$DW$149, DW_AT_TI_begin_column(0x08)
    1538                      .dwattr $C$DW$149, DW_AT_TI_max_frame_size(0x02)
    1539                      .dwpsn  file "../FreeRTOS/Demo/c5515_CCS/main.c",line 663,column 1,is_stmt,address _toggleLED
    1540              
    1541                      .dwfde $C$DW$CIE, _toggleLED
    1542              ;*******************************************************************************
    1543              ;* FUNCTION NAME: toggleLED                                                    *
    1544              ;*                                                                             *
    1545              ;*   Function Uses Regs : AC0,AC0,T0,AR1,AR2,SP,CARRY,TC1,M40,SATA,SATD,RDM,   *
    1546              ;*                        FRCT,SMUL                                            *
    1547              ;*   Stack Frame        : Compact (No Frame Pointer, w/ debug)                 *
    1548              ;*   Total Frame Size   : 2 words                                              *
    1549              ;*                        (1 return address/alignment)                         *
    1550              ;*                        (1 local values)                                     *
    1551              ;*   Min System Stack   : 1 word                                               *
    1552              ;*******************************************************************************
    1553 000310       _toggleLED:
    1554                      .dwcfi  cfa_offset, 1
    1555                      .dwcfi  save_reg_to_mem, 91, -1
    1556 000310 4EFF          AADD #-1, SP
    1557                      .dwcfi  cfa_offset, 2
    1558              $C$DW$150       .dwtag  DW_TAG_variable, DW_AT_name("i")
TMS320C55x Assembler PC v4.4.1 Fri Sep 07 02:27:22 2018

Tools Copyright (c) 1996-2012 Texas Instruments Incorporated
main.asm                                                             PAGE   33

    1559                      .dwattr $C$DW$150, DW_AT_TI_symbol_name("_i")
    1560                      .dwattr $C$DW$150, DW_AT_type(*$C$DW$T$10)
    1561                      .dwattr $C$DW$150, DW_AT_location[DW_OP_bregx 0x24 0]
    1562                      .dwpsn  file "../FreeRTOS/Demo/c5515_CCS/main.c",line 666,column 2,is_stmt
    1563              $C$DW$151       .dwtag  DW_TAG_TI_branch
    1564                      .dwattr $C$DW$151, DW_AT_low_pc(0x00)
    1565                      .dwattr $C$DW$151, DW_AT_name("_EZDSP5535_XF_toggle")
    1566                      .dwattr $C$DW$151, DW_AT_TI_call
    1567 000312 6C00          CALL #_EZDSP5535_XF_toggle ; |666| 
         000314 0000!
    1568                                                      ; call occurs [#_EZDSP5535_XF_toggle] ; |666| 
    1569                      .dwpsn  file "../FreeRTOS/Demo/c5515_CCS/main.c",line 672,column 11,is_stmt
    1570 000316 E600          MOV #0, *SP(#0) ; |672| 
         000318 00   
    1571                      .dwpsn  file "../FreeRTOS/Demo/c5515_CCS/main.c",line 672,column 19,is_stmt
    1572              
    1573 000319 A900          MOV *SP(#0), AR1 ; |672| 
    1574 00031b 3D4A  ||      MOV #4, AR2
    1575              
    1576 00031d 1298          CMP AR1 >= AR2, TC1 ; |672| 
         00031f A0   
    1577 000320 0464          BCC $C$L27,TC1 ; |672| 
         000322 20   
    1578                                                      ; branchcc occurs ; |672| 
    1579 000323       $C$L26:    
    1580 000323       $C$DW$L$_toggleLED$2$B:
    1581                      .dwpsn  file "../FreeRTOS/Demo/c5515_CCS/main.c",line 674,column 9,is_stmt
    1582 000323 A400          MOV *SP(#0), T0 ; |674| 
    1583              $C$DW$152       .dwtag  DW_TAG_TI_branch
    1584                      .dwattr $C$DW$152, DW_AT_low_pc(0x00)
    1585                      .dwattr $C$DW$152, DW_AT_name("_EZDSP5535_LED_off")
    1586                      .dwattr $C$DW$152, DW_AT_TI_call
    1587 000325 6C00          CALL #_EZDSP5535_LED_off ; |674| 
         000327 0000!
    1588                                                      ; call occurs [#_EZDSP5535_LED_off] ; |674| 
    1589                      .dwpsn  file "../FreeRTOS/Demo/c5515_CCS/main.c",line 675,column 9,is_stmt
    1590 000329 76C3          MOV #50000, AR1 ; |675| 
         00032b 5098 
    1591 00032d 7DFF          AND #0xffff, AR1, AC0 ; |675| 
         00032f FF09 
    1592              $C$DW$153       .dwtag  DW_TAG_TI_branch
    1593                      .dwattr $C$DW$153, DW_AT_low_pc(0x00)
    1594                      .dwattr $C$DW$153, DW_AT_name("_EZDSP5535_waitusec")
    1595                      .dwattr $C$DW$153, DW_AT_TI_call
    1596 000331 6C00          CALL #_EZDSP5535_waitusec ; |675| 
         000333 0000!
    1597                                                      ; call occurs [#_EZDSP5535_waitusec] ; |675| 
    1598                      .dwpsn  file "../FreeRTOS/Demo/c5515_CCS/main.c",line 672,column 27,is_stmt
    1599 000335 F700          ADD #1, *SP(#0) ; |672| 
         000337 0001 
    1600                      .dwpsn  file "../FreeRTOS/Demo/c5515_CCS/main.c",line 672,column 19,is_stmt
    1601              
    1602 000339 A900          MOV *SP(#0), AR1 ; |672| 
    1603 00033b 3D4A  ||      MOV #4, AR2
    1604              
TMS320C55x Assembler PC v4.4.1 Fri Sep 07 02:27:22 2018

Tools Copyright (c) 1996-2012 Texas Instruments Incorporated
main.asm                                                             PAGE   34

    1605 00033d 1294          CMP AR1 < AR2, TC1 ; |672| 
         00033f A0   
    1606 000340 0464          BCC $C$L26,TC1 ; |672| 
         000342 E0   
    1607                                                      ; branchcc occurs ; |672| 
    1608 000343       $C$DW$L$_toggleLED$2$E:
    1609 000343       $C$L27:    
    1610                      .dwpsn  file "../FreeRTOS/Demo/c5515_CCS/main.c",line 678,column 11,is_stmt
    1611 000343 E600          MOV #0, *SP(#0) ; |678| 
         000345 00   
    1612                      .dwpsn  file "../FreeRTOS/Demo/c5515_CCS/main.c",line 678,column 19,is_stmt
    1613 000346 A900          MOV *SP(#0), AR1 ; |678| 
    1614 000348 1298          CMP AR1 >= AR2, TC1 ; |678| 
         00034a A0   
    1615 00034b 0464          BCC $C$L29,TC1 ; |678| 
         00034d 20   
    1616                                                      ; branchcc occurs ; |678| 
    1617 00034e       $C$L28:    
    1618 00034e       $C$DW$L$_toggleLED$4$B:
    1619                      .dwpsn  file "../FreeRTOS/Demo/c5515_CCS/main.c",line 680,column 13,is_stmt
    1620 00034e A400          MOV *SP(#0), T0 ; |680| 
    1621              $C$DW$154       .dwtag  DW_TAG_TI_branch
    1622                      .dwattr $C$DW$154, DW_AT_low_pc(0x00)
    1623                      .dwattr $C$DW$154, DW_AT_name("_EZDSP5535_LED_on")
    1624                      .dwattr $C$DW$154, DW_AT_TI_call
    1625 000350 6C00          CALL #_EZDSP5535_LED_on ; |680| 
         000352 0000!
    1626                                                      ; call occurs [#_EZDSP5535_LED_on] ; |680| 
    1627                      .dwpsn  file "../FreeRTOS/Demo/c5515_CCS/main.c",line 681,column 13,is_stmt
    1628 000354 76C3          MOV #50000, AR1 ; |681| 
         000356 5098 
    1629 000358 7DFF          AND #0xffff, AR1, AC0 ; |681| 
         00035a FF09 
    1630              $C$DW$155       .dwtag  DW_TAG_TI_branch
    1631                      .dwattr $C$DW$155, DW_AT_low_pc(0x00)
    1632                      .dwattr $C$DW$155, DW_AT_name("_EZDSP5535_waitusec")
    1633                      .dwattr $C$DW$155, DW_AT_TI_call
    1634 00035c 6C00          CALL #_EZDSP5535_waitusec ; |681| 
         00035e 0000!
    1635                                                      ; call occurs [#_EZDSP5535_waitusec] ; |681| 
    1636                      .dwpsn  file "../FreeRTOS/Demo/c5515_CCS/main.c",line 678,column 27,is_stmt
    1637 000360 F700          ADD #1, *SP(#0) ; |678| 
         000362 0001 
    1638                      .dwpsn  file "../FreeRTOS/Demo/c5515_CCS/main.c",line 678,column 19,is_stmt
    1639              
    1640 000364 A900          MOV *SP(#0), AR1 ; |678| 
    1641 000366 3D4A  ||      MOV #4, AR2
    1642              
    1643 000368 1294          CMP AR1 < AR2, TC1 ; |678| 
         00036a A0   
    1644 00036b 0464          BCC $C$L28,TC1 ; |678| 
         00036d E0   
    1645                                                      ; branchcc occurs ; |678| 
    1646 00036e       $C$DW$L$_toggleLED$4$E:
    1647                      .dwpsn  file "../FreeRTOS/Demo/c5515_CCS/main.c",line 715,column 1,is_stmt
TMS320C55x Assembler PC v4.4.1 Fri Sep 07 02:27:22 2018

Tools Copyright (c) 1996-2012 Texas Instruments Incorporated
main.asm                                                             PAGE   35

    1648 00036e       $C$L29:    
    1649 00036e 4E01          AADD #1, SP
    1650                      .dwcfi  cfa_offset, 1
    1651              $C$DW$156       .dwtag  DW_TAG_TI_branch
    1652                      .dwattr $C$DW$156, DW_AT_low_pc(0x00)
    1653                      .dwattr $C$DW$156, DW_AT_TI_return
    1654 000370 4804          RET
    1655                                                      ; return occurs
    1656              
    1657              $C$DW$157       .dwtag  DW_TAG_TI_loop
    1658                      .dwattr $C$DW$157, DW_AT_name("F:\eZDSP_5535_Files\ccsws2\test\Debug\main.asm:$C$L28:1:1536312441")
    1659                      .dwattr $C$DW$157, DW_AT_TI_begin_file("../FreeRTOS/Demo/c5515_CCS/main.c")
    1660                      .dwattr $C$DW$157, DW_AT_TI_begin_line(0x2a6)
    1661                      .dwattr $C$DW$157, DW_AT_TI_end_line(0x2aa)
    1662              $C$DW$158       .dwtag  DW_TAG_TI_loop_range
    1663                      .dwattr $C$DW$158, DW_AT_low_pc($C$DW$L$_toggleLED$4$B)
    1664                      .dwattr $C$DW$158, DW_AT_high_pc($C$DW$L$_toggleLED$4$E)
    1665                      .dwendtag $C$DW$157
    1666              
    1667              
    1668              $C$DW$159       .dwtag  DW_TAG_TI_loop
    1669                      .dwattr $C$DW$159, DW_AT_name("F:\eZDSP_5535_Files\ccsws2\test\Debug\main.asm:$C$L26:1:1536312441")
    1670                      .dwattr $C$DW$159, DW_AT_TI_begin_file("../FreeRTOS/Demo/c5515_CCS/main.c")
    1671                      .dwattr $C$DW$159, DW_AT_TI_begin_line(0x2a0)
    1672                      .dwattr $C$DW$159, DW_AT_TI_end_line(0x2a4)
    1673              $C$DW$160       .dwtag  DW_TAG_TI_loop_range
    1674                      .dwattr $C$DW$160, DW_AT_low_pc($C$DW$L$_toggleLED$2$B)
    1675                      .dwattr $C$DW$160, DW_AT_high_pc($C$DW$L$_toggleLED$2$E)
    1676                      .dwendtag $C$DW$159
    1677              
    1678                      .dwattr $C$DW$149, DW_AT_TI_end_file("../FreeRTOS/Demo/c5515_CCS/main.c")
    1679                      .dwattr $C$DW$149, DW_AT_TI_end_line(0x2cb)
    1680                      .dwattr $C$DW$149, DW_AT_TI_end_column(0x01)
    1681                      .dwendentry
    1682                      .dwendtag $C$DW$149
    1683              
    1684 000372               .sect   ".text"
    1685                      .align 4
    1686                      .global _BlinkLED
    1687              
    1688              $C$DW$161       .dwtag  DW_TAG_subprogram, DW_AT_name("BlinkLED")
    1689                      .dwattr $C$DW$161, DW_AT_low_pc(_BlinkLED)
    1690                      .dwattr $C$DW$161, DW_AT_high_pc(0x00)
    1691                      .dwattr $C$DW$161, DW_AT_TI_symbol_name("_BlinkLED")
    1692                      .dwattr $C$DW$161, DW_AT_external
    1693                      .dwattr $C$DW$161, DW_AT_TI_begin_file("../FreeRTOS/Demo/c5515_CCS/main.c")
    1694                      .dwattr $C$DW$161, DW_AT_TI_begin_line(0x2ce)
    1695                      .dwattr $C$DW$161, DW_AT_TI_begin_column(0x06)
    1696                      .dwattr $C$DW$161, DW_AT_TI_max_frame_size(0x02)
    1697                      .dwpsn  file "../FreeRTOS/Demo/c5515_CCS/main.c",line 719,column 1,is_stmt,address _BlinkLED
    1698              
    1699                      .dwfde $C$DW$CIE, _BlinkLED
    1700              ;*******************************************************************************
    1701              ;* FUNCTION NAME: BlinkLED                                                     *
    1702              ;*                                                                             *
TMS320C55x Assembler PC v4.4.1 Fri Sep 07 02:27:22 2018

Tools Copyright (c) 1996-2012 Texas Instruments Incorporated
main.asm                                                             PAGE   36

    1703              ;*   Function Uses Regs : SP,TC1,M40,SATA,SATD,RDM,FRCT,SMUL                   *
    1704              ;*   Stack Frame        : Compact (No Frame Pointer, w/ debug)                 *
    1705              ;*   Total Frame Size   : 2 words                                              *
    1706              ;*                        (2 return address/alignment)                         *
    1707              ;*   Min System Stack   : 1 word                                               *
    1708              ;*******************************************************************************
    1709 000374       _BlinkLED:
    1710                      .dwcfi  cfa_offset, 1
    1711                      .dwcfi  save_reg_to_mem, 91, -1
    1712 000374 4EFF          AADD #-1, SP
    1713                      .dwcfi  cfa_offset, 2
    1714                      .dwpsn  file "../FreeRTOS/Demo/c5515_CCS/main.c",line 721,column 2,is_stmt
    1715 000376 F031          CMP *(#_fSineWave) == #1, TC1 ; |721| 
         000378 0001 
         00037a 0000 
         00037c 00-  
    1716 00037d 0474          BCC $C$L30,!TC1 ; |721| 
         00037f 15   
    1717                                                      ; branchcc occurs ; |721| 
    1718                      .dwpsn  file "../FreeRTOS/Demo/c5515_CCS/main.c",line 723,column 6,is_stmt
    1719 000380 F031          CMP *(#_Flag_RTC) == #1, TC1 ; |723| 
         000382 0001 
         000384 0000 
         000386 00!  
    1720 000387 0474          BCC $C$L31,!TC1 ; |723| 
         000389 1D   
    1721                                                      ; branchcc occurs ; |723| 
    1722                      .dwpsn  file "../FreeRTOS/Demo/c5515_CCS/main.c",line 725,column 9,is_stmt
    1723 00038a E631          MOV #0, *(#_Flag_RTC) ; |725| 
         00038c 0000 
         00038e 0000!
    1724                      .dwpsn  file "../FreeRTOS/Demo/c5515_CCS/main.c",line 726,column 4,is_stmt
    1725              $C$DW$162       .dwtag  DW_TAG_TI_branch
    1726                      .dwattr $C$DW$162, DW_AT_low_pc(0x00)
    1727                      .dwattr $C$DW$162, DW_AT_name("_toggleLED")
    1728                      .dwattr $C$DW$162, DW_AT_TI_call
    1729 000390 08FF          CALL #_toggleLED ; |726| 
         000392 7D   
    1730                                                      ; call occurs [#_toggleLED] ; |726| 
    1731                      .dwpsn  file "../FreeRTOS/Demo/c5515_CCS/main.c",line 729,column 2,is_stmt
    1732 000393 4A12          B $C$L31  ; |729| 
    1733                                                      ; branch occurs ; |729| 
    1734 000395       $C$L30:    
    1735                      .dwpsn  file "../FreeRTOS/Demo/c5515_CCS/main.c",line 732,column 6,is_stmt
    1736 000395 F031          CMP *(#_fTimer) == #1, TC1 ; |732| 
         000397 0001 
         000399 0000 
         00039b 00!  
    1737 00039c 64F4          BCC $C$L31,!TC1 ; |732| 
    1738                                                      ; branchcc occurs ; |732| 
    1739                      .dwpsn  file "../FreeRTOS/Demo/c5515_CCS/main.c",line 734,column 9,is_stmt
    1740 00039e E631          MOV #0, *(#_fTimer) ; |734| 
         0003a0 0000 
         0003a2 0000!
    1741                      .dwpsn  file "../FreeRTOS/Demo/c5515_CCS/main.c",line 735,column 4,is_stmt
TMS320C55x Assembler PC v4.4.1 Fri Sep 07 02:27:22 2018

Tools Copyright (c) 1996-2012 Texas Instruments Incorporated
main.asm                                                             PAGE   37

    1742              $C$DW$163       .dwtag  DW_TAG_TI_branch
    1743                      .dwattr $C$DW$163, DW_AT_low_pc(0x00)
    1744                      .dwattr $C$DW$163, DW_AT_name("_toggleLED")
    1745                      .dwattr $C$DW$163, DW_AT_TI_call
    1746 0003a4 08FF          CALL #_toggleLED ; |735| 
         0003a6 69   
    1747                                                      ; call occurs [#_toggleLED] ; |735| 
    1748                      .dwpsn  file "../FreeRTOS/Demo/c5515_CCS/main.c",line 747,column 1,is_stmt
    1749 0003a7       $C$L31:    
    1750 0003a7 4E01          AADD #1, SP
    1751                      .dwcfi  cfa_offset, 1
    1752              $C$DW$164       .dwtag  DW_TAG_TI_branch
    1753                      .dwattr $C$DW$164, DW_AT_low_pc(0x00)
    1754                      .dwattr $C$DW$164, DW_AT_TI_return
    1755 0003a9 4804          RET
    1756                                                      ; return occurs
    1757                      .dwattr $C$DW$161, DW_AT_TI_end_file("../FreeRTOS/Demo/c5515_CCS/main.c")
    1758                      .dwattr $C$DW$161, DW_AT_TI_end_line(0x2eb)
    1759                      .dwattr $C$DW$161, DW_AT_TI_end_column(0x01)
    1760                      .dwendentry
    1761                      .dwendtag $C$DW$161
    1762              
    1763 0003ab               .sect   ".text"
    1764                      .align 4
    1765                      .global _GenerateAudioTone
    1766              
    1767              $C$DW$165       .dwtag  DW_TAG_subprogram, DW_AT_name("GenerateAudioTone")
    1768                      .dwattr $C$DW$165, DW_AT_low_pc(_GenerateAudioTone)
    1769                      .dwattr $C$DW$165, DW_AT_high_pc(0x00)
    1770                      .dwattr $C$DW$165, DW_AT_TI_symbol_name("_GenerateAudioTone")
    1771                      .dwattr $C$DW$165, DW_AT_external
    1772                      .dwattr $C$DW$165, DW_AT_TI_begin_file("../FreeRTOS/Demo/c5515_CCS/main.c")
    1773                      .dwattr $C$DW$165, DW_AT_TI_begin_line(0x2ed)
    1774                      .dwattr $C$DW$165, DW_AT_TI_begin_column(0x06)
    1775                      .dwattr $C$DW$165, DW_AT_TI_max_frame_size(0x02)
    1776                      .dwpsn  file "../FreeRTOS/Demo/c5515_CCS/main.c",line 750,column 1,is_stmt,address _GenerateAudioTone
    1777              
    1778                      .dwfde $C$DW$CIE, _GenerateAudioTone
    1779              ;*******************************************************************************
    1780              ;* FUNCTION NAME: GenerateAudioTone                                            *
    1781              ;*                                                                             *
    1782              ;*   Function Uses Regs : AR1,AR2,SP,TC1,M40,SATA,SATD,RDM,FRCT,SMUL           *
    1783              ;*   Stack Frame        : Compact (No Frame Pointer, w/ debug)                 *
    1784              ;*   Total Frame Size   : 2 words                                              *
    1785              ;*                        (2 return address/alignment)                         *
    1786              ;*   Min System Stack   : 1 word                                               *
    1787              ;*******************************************************************************
    1788 0003ac       _GenerateAudioTone:
    1789                      .dwcfi  cfa_offset, 1
    1790                      .dwcfi  save_reg_to_mem, 91, -1
    1791 0003ac 4EFF          AADD #-1, SP
    1792                      .dwcfi  cfa_offset, 2
    1793                      .dwpsn  file "../FreeRTOS/Demo/c5515_CCS/main.c",line 751,column 2,is_stmt
    1794 0003ae 3CAA          MOV #10, AR2
    1795 0003b0 A931          MOV *(#_Conunt_RTC), AR1 ; |751| 
TMS320C55x Assembler PC v4.4.1 Fri Sep 07 02:27:22 2018

Tools Copyright (c) 1996-2012 Texas Instruments Incorporated
main.asm                                                             PAGE   38

         0003b2 0000 
         0003b4 00!  
    1796 0003b5 1298          CMPU AR1 >= AR2, TC1 ; |751| 
         0003b7 A4   
    1797 0003b8 0464          BCC $C$L32,TC1 ; |751| 
         0003ba 2F   
    1798                                                      ; branchcc occurs ; |751| 
    1799                      .dwpsn  file "../FreeRTOS/Demo/c5515_CCS/main.c",line 753,column 3,is_stmt
    1800 0003bb F031          CMP *(#_f1KToneOn) == #1, TC1 ; |753| 
         0003bd 0001 
         0003bf 0000 
         0003c1 01-  
    1801 0003c2 0464          BCC $C$L34,TC1 ; |753| 
         0003c4 6F   
    1802                                                      ; branchcc occurs ; |753| 
    1803                      .dwpsn  file "../FreeRTOS/Demo/c5515_CCS/main.c",line 754,column 4,is_stmt
    1804                      .dwpsn  file "../FreeRTOS/Demo/c5515_CCS/main.c",line 756,column 3,is_stmt
    1805 0003c5 E631          MOV #1, *(#_fSineWave) ; |756| 
         0003c7 0100 
         0003c9 0000-
    1806                      .dwpsn  file "../FreeRTOS/Demo/c5515_CCS/main.c",line 757,column 3,is_stmt
    1807 0003cb E631          MOV #1, *(#_f1KToneOn) ; |757| 
         0003cd 0100 
         0003cf 0001-
    1808                      .dwpsn  file "../FreeRTOS/Demo/c5515_CCS/main.c",line 758,column 3,is_stmt
    1809 0003d1 E631          MOV #0, *(#_f2KToneOn) ; |758| 
         0003d3 0000 
         0003d5 0002-
    1810                      .dwpsn  file "../FreeRTOS/Demo/c5515_CCS/main.c",line 759,column 9,is_stmt
    1811              $C$DW$166       .dwtag  DW_TAG_TI_branch
    1812                      .dwattr $C$DW$166, DW_AT_low_pc(0x00)
    1813                      .dwattr $C$DW$166, DW_AT_name("_set_dma0_ch0_stop")
    1814                      .dwattr $C$DW$166, DW_AT_TI_call
    1815 0003d7 6C00          CALL #_set_dma0_ch0_stop ; |759| 
         0003d9 0000!
    1816                                                      ; call occurs [#_set_dma0_ch0_stop] ; |759| 
    1817                      .dwpsn  file "../FreeRTOS/Demo/c5515_CCS/main.c",line 760,column 6,is_stmt
    1818              $C$DW$167       .dwtag  DW_TAG_TI_branch
    1819                      .dwattr $C$DW$167, DW_AT_low_pc(0x00)
    1820                      .dwattr $C$DW$167, DW_AT_name("_set_dma0_ch1_stop")
    1821                      .dwattr $C$DW$167, DW_AT_TI_call
    1822 0003db 6C00          CALL #_set_dma0_ch1_stop ; |760| 
         0003dd 0000!
    1823                                                      ; call occurs [#_set_dma0_ch1_stop] ; |760| 
    1824                      .dwpsn  file "../FreeRTOS/Demo/c5515_CCS/main.c",line 761,column 9,is_stmt
    1825              $C$DW$168       .dwtag  DW_TAG_TI_branch
    1826                      .dwattr $C$DW$168, DW_AT_low_pc(0x00)
    1827                      .dwattr $C$DW$168, DW_AT_name("_set_dma0_ch0_i2s0_Lout")
    1828                      .dwattr $C$DW$168, DW_AT_TI_call
    1829 0003df 6C00          CALL #_set_dma0_ch0_i2s0_Lout ; |761| 
         0003e1 0000!
    1830                                                      ; call occurs [#_set_dma0_ch0_i2s0_Lout] ; |761| 
    1831                      .dwpsn  file "../FreeRTOS/Demo/c5515_CCS/main.c",line 762,column 6,is_stmt
    1832              $C$DW$169       .dwtag  DW_TAG_TI_branch
    1833                      .dwattr $C$DW$169, DW_AT_low_pc(0x00)
TMS320C55x Assembler PC v4.4.1 Fri Sep 07 02:27:22 2018

Tools Copyright (c) 1996-2012 Texas Instruments Incorporated
main.asm                                                             PAGE   39

    1834                      .dwattr $C$DW$169, DW_AT_name("_set_dma0_ch1_i2s0_Rout")
    1835                      .dwattr $C$DW$169, DW_AT_TI_call
    1836 0003e3 6C00          CALL #_set_dma0_ch1_i2s0_Rout ; |762| 
         0003e5 0000!
    1837                                                      ; call occurs [#_set_dma0_ch1_i2s0_Rout] ; |762| 
    1838                      .dwpsn  file "../FreeRTOS/Demo/c5515_CCS/main.c",line 763,column 2,is_stmt
    1839 0003e7 0600          B $C$L34  ; |763| 
         0003e9 4A   
    1840                                                      ; branch occurs ; |763| 
    1841 0003ea       $C$L32:    
    1842                      .dwpsn  file "../FreeRTOS/Demo/c5515_CCS/main.c",line 764,column 7,is_stmt
    1843 0003ea 7600          MOV #20, AR2 ; |764| 
         0003ec 14A8 
    1844 0003ee 1298          CMPU AR1 >= AR2, TC1 ; |764| 
         0003f0 A4   
    1845 0003f1 0464          BCC $C$L33,TC1 ; |764| 
         0003f3 2E   
    1846                                                      ; branchcc occurs ; |764| 
    1847                      .dwpsn  file "../FreeRTOS/Demo/c5515_CCS/main.c",line 766,column 3,is_stmt
    1848 0003f4 F031          CMP *(#_f2KToneOn) == #1, TC1 ; |766| 
         0003f6 0001 
         0003f8 0000 
         0003fa 02-  
    1849 0003fb 0464          BCC $C$L34,TC1 ; |766| 
         0003fd 36   
    1850                                                      ; branchcc occurs ; |766| 
    1851                      .dwpsn  file "../FreeRTOS/Demo/c5515_CCS/main.c",line 767,column 4,is_stmt
    1852                      .dwpsn  file "../FreeRTOS/Demo/c5515_CCS/main.c",line 769,column 3,is_stmt
    1853 0003fe E631          MOV #0, *(#_fSineWave) ; |769| 
         000400 0000 
         000402 0000-
    1854                      .dwpsn  file "../FreeRTOS/Demo/c5515_CCS/main.c",line 770,column 3,is_stmt
    1855 000404 E631          MOV #0, *(#_f1KToneOn) ; |770| 
         000406 0000 
         000408 0001-
    1856                      .dwpsn  file "../FreeRTOS/Demo/c5515_CCS/main.c",line 771,column 3,is_stmt
    1857 00040a E631          MOV #1, *(#_f2KToneOn) ; |771| 
         00040c 0100 
         00040e 0002-
    1858                      .dwpsn  file "../FreeRTOS/Demo/c5515_CCS/main.c",line 772,column 9,is_stmt
    1859              $C$DW$170       .dwtag  DW_TAG_TI_branch
    1860                      .dwattr $C$DW$170, DW_AT_low_pc(0x00)
    1861                      .dwattr $C$DW$170, DW_AT_name("_set_dma0_ch0_stop")
    1862                      .dwattr $C$DW$170, DW_AT_TI_call
    1863 000410 6C00          CALL #_set_dma0_ch0_stop ; |772| 
         000412 0000!
    1864                                                      ; call occurs [#_set_dma0_ch0_stop] ; |772| 
    1865                      .dwpsn  file "../FreeRTOS/Demo/c5515_CCS/main.c",line 773,column 6,is_stmt
    1866              $C$DW$171       .dwtag  DW_TAG_TI_branch
    1867                      .dwattr $C$DW$171, DW_AT_low_pc(0x00)
    1868                      .dwattr $C$DW$171, DW_AT_name("_set_dma0_ch1_stop")
    1869                      .dwattr $C$DW$171, DW_AT_TI_call
    1870 000414 6C00          CALL #_set_dma0_ch1_stop ; |773| 
         000416 0000!
    1871                                                      ; call occurs [#_set_dma0_ch1_stop] ; |773| 
TMS320C55x Assembler PC v4.4.1 Fri Sep 07 02:27:22 2018

Tools Copyright (c) 1996-2012 Texas Instruments Incorporated
main.asm                                                             PAGE   40

    1872                      .dwpsn  file "../FreeRTOS/Demo/c5515_CCS/main.c",line 774,column 9,is_stmt
    1873              $C$DW$172       .dwtag  DW_TAG_TI_branch
    1874                      .dwattr $C$DW$172, DW_AT_low_pc(0x00)
    1875                      .dwattr $C$DW$172, DW_AT_name("_set_dma0_ch0_i2s0_Lout")
    1876                      .dwattr $C$DW$172, DW_AT_TI_call
    1877 000418 6C00          CALL #_set_dma0_ch0_i2s0_Lout ; |774| 
         00041a 0000!
    1878                                                      ; call occurs [#_set_dma0_ch0_i2s0_Lout] ; |774| 
    1879                      .dwpsn  file "../FreeRTOS/Demo/c5515_CCS/main.c",line 775,column 6,is_stmt
    1880              $C$DW$173       .dwtag  DW_TAG_TI_branch
    1881                      .dwattr $C$DW$173, DW_AT_low_pc(0x00)
    1882                      .dwattr $C$DW$173, DW_AT_name("_set_dma0_ch1_i2s0_Rout")
    1883                      .dwattr $C$DW$173, DW_AT_TI_call
    1884 00041c 6C00          CALL #_set_dma0_ch1_i2s0_Rout ; |775| 
         00041e 0000!
    1885                                                      ; call occurs [#_set_dma0_ch1_i2s0_Rout] ; |775| 
    1886                      .dwpsn  file "../FreeRTOS/Demo/c5515_CCS/main.c",line 776,column 2,is_stmt
    1887 000420 4A12          B $C$L34  ; |776| 
    1888                                                      ; branch occurs ; |776| 
    1889 000422       $C$L33:    
    1890                      .dwpsn  file "../FreeRTOS/Demo/c5515_CCS/main.c",line 779,column 3,is_stmt
    1891 000422 E631          MOV #0, *(#_Conunt_RTC) ; |779| 
         000424 0000 
         000426 0000!
    1892                      .dwpsn  file "../FreeRTOS/Demo/c5515_CCS/main.c",line 780,column 3,is_stmt
    1893 000428 E631          MOV #0, *(#_f1KToneOn) ; |780| 
         00042a 0000 
         00042c 0001-
    1894                      .dwpsn  file "../FreeRTOS/Demo/c5515_CCS/main.c",line 781,column 3,is_stmt
    1895 00042e E631          MOV #1, *(#_f2KToneOn) ; |781| 
         000430 0100 
         000432 0002-
    1896                      .dwpsn  file "../FreeRTOS/Demo/c5515_CCS/main.c",line 784,column 1,is_stmt
    1897 000434       $C$L34:    
    1898 000434 4E01          AADD #1, SP
    1899                      .dwcfi  cfa_offset, 1
    1900              $C$DW$174       .dwtag  DW_TAG_TI_branch
    1901                      .dwattr $C$DW$174, DW_AT_low_pc(0x00)
    1902                      .dwattr $C$DW$174, DW_AT_TI_return
    1903 000436 4804          RET
    1904                                                      ; return occurs
    1905                      .dwattr $C$DW$165, DW_AT_TI_end_file("../FreeRTOS/Demo/c5515_CCS/main.c")
    1906                      .dwattr $C$DW$165, DW_AT_TI_end_line(0x310)
    1907                      .dwattr $C$DW$165, DW_AT_TI_end_column(0x01)
    1908                      .dwendentry
    1909                      .dwendtag $C$DW$165
    1910              
    1911 000438               .sect   ".text"
    1912                      .align 4
    1913                      .global _systemInit
    1914              
    1915              $C$DW$175       .dwtag  DW_TAG_subprogram, DW_AT_name("systemInit")
    1916                      .dwattr $C$DW$175, DW_AT_low_pc(_systemInit)
    1917                      .dwattr $C$DW$175, DW_AT_high_pc(0x00)
    1918                      .dwattr $C$DW$175, DW_AT_TI_symbol_name("_systemInit")
TMS320C55x Assembler PC v4.4.1 Fri Sep 07 02:27:22 2018

Tools Copyright (c) 1996-2012 Texas Instruments Incorporated
main.asm                                                             PAGE   41

    1919                      .dwattr $C$DW$175, DW_AT_external
    1920                      .dwattr $C$DW$175, DW_AT_TI_begin_file("../FreeRTOS/Demo/c5515_CCS/main.c")
    1921                      .dwattr $C$DW$175, DW_AT_TI_begin_line(0x311)
    1922                      .dwattr $C$DW$175, DW_AT_TI_begin_column(0x06)
    1923                      .dwattr $C$DW$175, DW_AT_TI_max_frame_size(0x14)
    1924                      .dwpsn  file "../FreeRTOS/Demo/c5515_CCS/main.c",line 786,column 1,is_stmt,address _systemInit
    1925              
    1926                      .dwfde $C$DW$CIE, _systemInit
    1927              ;*******************************************************************************
    1928              ;* FUNCTION NAME: systemInit                                                   *
    1929              ;*                                                                             *
    1930              ;*   Function Uses Regs : AC0,AC0,T0,AR0,XAR0,AR1,XAR1,AR2,XAR2,AR3,XAR3,SP,   *
    1931              ;*                        CSR,RPTC,CARRY,TC1,M40,SATA,SATD,RDM,FRCT,SMUL       *
    1932              ;*   Stack Frame        : Compact (No Frame Pointer, w/ debug)                 *
    1933              ;*   Total Frame Size   : 20 words                                             *
    1934              ;*                        (2 return address/alignment)                         *
    1935              ;*                        (18 local values)                                    *
    1936              ;*   Min System Stack   : 1 word                                               *
    1937              ;*******************************************************************************
    1938 000438       _systemInit:
    1939                      .dwcfi  cfa_offset, 1
    1940                      .dwcfi  save_reg_to_mem, 91, -1
    1941 000438 4EED          AADD #-19, SP
    1942                      .dwcfi  cfa_offset, 20
    1943              $C$DW$176       .dwtag  DW_TAG_variable, DW_AT_name("i")
    1944                      .dwattr $C$DW$176, DW_AT_TI_symbol_name("_i")
    1945                      .dwattr $C$DW$176, DW_AT_type(*$C$DW$T$19)
    1946                      .dwattr $C$DW$176, DW_AT_location[DW_OP_bregx 0x24 0]
    1947              $C$DW$177       .dwtag  DW_TAG_variable, DW_AT_name("pllObj")
    1948                      .dwattr $C$DW$177, DW_AT_TI_symbol_name("_pllObj")
    1949                      .dwattr $C$DW$177, DW_AT_type(*$C$DW$T$36)
    1950                      .dwattr $C$DW$177, DW_AT_location[DW_OP_bregx 0x24 2]
    1951              $C$DW$178       .dwtag  DW_TAG_variable, DW_AT_name("status")
    1952                      .dwattr $C$DW$178, DW_AT_TI_symbol_name("_status")
    1953                      .dwattr $C$DW$178, DW_AT_type(*$C$DW$T$61)
    1954                      .dwattr $C$DW$178, DW_AT_location[DW_OP_bregx 0x24 8]
    1955              $C$DW$179       .dwtag  DW_TAG_variable, DW_AT_name("hPll")
    1956                      .dwattr $C$DW$179, DW_AT_TI_symbol_name("_hPll")
    1957                      .dwattr $C$DW$179, DW_AT_type(*$C$DW$T$39)
    1958                      .dwattr $C$DW$179, DW_AT_location[DW_OP_bregx 0x24 10]
    1959              $C$DW$180       .dwtag  DW_TAG_variable, DW_AT_name("pConfigInfo")
    1960                      .dwattr $C$DW$180, DW_AT_TI_symbol_name("_pConfigInfo")
    1961                      .dwattr $C$DW$180, DW_AT_type(*$C$DW$T$27)
    1962                      .dwattr $C$DW$180, DW_AT_location[DW_OP_bregx 0x24 12]
    1963              $C$DW$181       .dwtag  DW_TAG_variable, DW_AT_name("pllCfg_v2_100MHz")
    1964                      .dwattr $C$DW$181, DW_AT_TI_symbol_name("_pllCfg_v2_100MHz")
    1965                      .dwattr $C$DW$181, DW_AT_type(*$C$DW$T$26)
    1966                      .dwattr $C$DW$181, DW_AT_location[DW_OP_bregx 0x24 14]
    1967                      .dwpsn  file "../FreeRTOS/Demo/c5515_CCS/main.c",line 792,column 16,is_stmt
    1968 00043a EC31          AMOV #_$P$T0$5, XAR3 ; |792| 
         00043c BE00 
         00043e 0000+
    1969              
    1970 000443 4D03          RPT #3    ; |792| 
    1971 000440 EC1C  ||      AMAR *SP(#14), XAR2
TMS320C55x Assembler PC v4.4.1 Fri Sep 07 02:27:22 2018

Tools Copyright (c) 1996-2012 Texas Instruments Incorporated
main.asm                                                             PAGE   42

         000442 AE   
    1972              
    1973                                                          ; loop starts ; |792| 
    1974 000445       $C$L35:    
    1975 000445       $C$DW$L$_systemInit$2$B:
    1976 000445 8065              MOV *AR3+, *AR2+ ; |792| 
         000447 14   
    1977                                                      ; loop ends ; |792| 
    1978 000448       $C$DW$L$_systemInit$2$E:
    1979 000448       $C$L36:    
    1980                      .dwpsn  file "../FreeRTOS/Demo/c5515_CCS/main.c",line 795,column 5,is_stmt
    1981 000448 FB51          MOV #65326, *port(#1) ; |795| 
         00044a FF2E 
         00044c 0001 
    1982                      .dwpsn  file "../FreeRTOS/Demo/c5515_CCS/main.c",line 796,column 5,is_stmt
    1983 00044e 7A00   IDLE
         000450 000C 
    1984                      .dwpsn  file "../FreeRTOS/Demo/c5515_CCS/main.c",line 799,column 5,is_stmt
    1985 000452 3C00          MOV #0, AC0 ; |799| 
    1986 000454 A951          MOV *port(#7172), AR1 ; |799| 
         000456 1C04 
    1987 000458 EC02          BSET @#1, AC0 ; |799| 
         00045a 00   
    1988 00045b C051          MOV AC0, *port(#7172) ; |799| 
         00045d 1C04 
    1989                      .dwpsn  file "../FreeRTOS/Demo/c5515_CCS/main.c",line 800,column 5,is_stmt
    1990 00045f FB51          MOV #251, *port(#7173) ; |800| 
         000461 00FB 
         000463 1C05 
    1991                      .dwpsn  file "../FreeRTOS/Demo/c5515_CCS/main.c",line 803,column 10,is_stmt
    1992 000465 E600          MOV #0, *SP(#0) ; |803| 
         000467 00   
    1993                      .dwpsn  file "../FreeRTOS/Demo/c5515_CCS/main.c",line 803,column 15,is_stmt
    1994 000468 7600          MOV #200, AR2 ; |803| 
         00046a C8A8 
    1995 00046c A900          MOV *SP(#0), AR1 ; |803| 
    1996 00046e 1298          CMPU AR1 >= AR2, TC1 ; |803| 
         000470 A4   
    1997 000471 6664          BCC $C$L38,TC1 ; |803| 
    1998                                                      ; branchcc occurs ; |803| 
    1999 000473       $C$L37:    
    2000 000473       $C$DW$L$_systemInit$4$B:
    2001                      .dwpsn  file "../FreeRTOS/Demo/c5515_CCS/main.c",line 803,column 23,is_stmt
    2002 000473 F700          ADD #1, *SP(#0) ; |803| 
         000475 0001 
    2003                      .dwpsn  file "../FreeRTOS/Demo/c5515_CCS/main.c",line 803,column 15,is_stmt
    2004 000477 A900          MOV *SP(#0), AR1 ; |803| 
    2005 000479 1294          CMPU AR1 < AR2, TC1 ; |803| 
         00047b A4   
    2006 00047c 0464          BCC $C$L37,TC1 ; |803| 
         00047e F4   
    2007                                                      ; branchcc occurs ; |803| 
    2008 00047f       $C$DW$L$_systemInit$4$E:
    2009 00047f       $C$L38:    
    2010                      .dwpsn  file "../FreeRTOS/Demo/c5515_CCS/main.c",line 806,column 5,is_stmt
TMS320C55x Assembler PC v4.4.1 Fri Sep 07 02:27:22 2018

Tools Copyright (c) 1996-2012 Texas Instruments Incorporated
main.asm                                                             PAGE   43

    2011 00047f EC04          AMAR *SP(#2), XAR0
         000481 8E   
    2012              $C$DW$182       .dwtag  DW_TAG_TI_branch
    2013                      .dwattr $C$DW$182, DW_AT_low_pc(0x00)
    2014                      .dwattr $C$DW$182, DW_AT_name("_PLL_init")
    2015                      .dwattr $C$DW$182, DW_AT_TI_call
    2016              
    2017 000482 6C00          CALL #_PLL_init ; |806| 
         000484 0000!
    2018 000486 3D00  ||      MOV #0, AC0 ; |806| 
    2019              
    2020                                                      ; call occurs [#_PLL_init] ; |806| 
    2021 000488 C410          MOV T0, *SP(#8) ; |806| 
    2022                      .dwpsn  file "../FreeRTOS/Demo/c5515_CCS/main.c",line 807,column 5,is_stmt
    2023 00048a EC04          AMAR *SP(#2), XAR3
         00048c BE   
    2024 00048d EB14          MOV XAR3, dbl(*SP(#10))
         00048f B5   
    2025                      .dwpsn  file "../FreeRTOS/Demo/c5515_CCS/main.c",line 808,column 5,is_stmt
    2026 000490 ED14          MOV dbl(*SP(#10)), XAR0
         000492 8F   
    2027              $C$DW$183       .dwtag  DW_TAG_TI_branch
    2028                      .dwattr $C$DW$183, DW_AT_low_pc(0x00)
    2029                      .dwattr $C$DW$183, DW_AT_name("_PLL_reset")
    2030                      .dwattr $C$DW$183, DW_AT_TI_call
    2031 000493 6C00          CALL #_PLL_reset ; |808| 
         000495 0000!
    2032                                                      ; call occurs [#_PLL_reset] ; |808| 
    2033                      .dwpsn  file "../FreeRTOS/Demo/c5515_CCS/main.c",line 809,column 5,is_stmt
    2034 000497 EC1C          AMAR *SP(#14), XAR3
         000499 BE   
    2035 00049a EB18          MOV XAR3, dbl(*SP(#12))
         00049c B5   
    2036                      .dwpsn  file "../FreeRTOS/Demo/c5515_CCS/main.c",line 811,column 5,is_stmt
    2037 00049d ED14          MOV dbl(*SP(#10)), XAR0
         00049f 8F   
    2038 0004a0 ED18          MOV dbl(*SP(#12)), XAR1
         0004a2 9F   
    2039              $C$DW$184       .dwtag  DW_TAG_TI_branch
    2040                      .dwattr $C$DW$184, DW_AT_low_pc(0x00)
    2041                      .dwattr $C$DW$184, DW_AT_name("_PLL_config")
    2042                      .dwattr $C$DW$184, DW_AT_TI_call
    2043 0004a3 6C00          CALL #_PLL_config ; |811| 
         0004a5 0000!
    2044                                                      ; call occurs [#_PLL_config] ; |811| 
    2045 0004a7 C410          MOV T0, *SP(#8) ; |811| 
    2046                      .dwpsn  file "../FreeRTOS/Demo/c5515_CCS/main.c",line 812,column 1,is_stmt
    2047 0004a9 4E13          AADD #19, SP
    2048                      .dwcfi  cfa_offset, 1
    2049              $C$DW$185       .dwtag  DW_TAG_TI_branch
    2050                      .dwattr $C$DW$185, DW_AT_low_pc(0x00)
    2051                      .dwattr $C$DW$185, DW_AT_TI_return
    2052 0004ab 4804          RET
    2053                                                      ; return occurs
    2054              
TMS320C55x Assembler PC v4.4.1 Fri Sep 07 02:27:22 2018

Tools Copyright (c) 1996-2012 Texas Instruments Incorporated
main.asm                                                             PAGE   44

    2055              $C$DW$186       .dwtag  DW_TAG_TI_loop
    2056                      .dwattr $C$DW$186, DW_AT_name("F:\eZDSP_5535_Files\ccsws2\test\Debug\main.asm:$C$L37:1:1536312441")
    2057                      .dwattr $C$DW$186, DW_AT_TI_begin_file("../FreeRTOS/Demo/c5515_CCS/main.c")
    2058                      .dwattr $C$DW$186, DW_AT_TI_begin_line(0x323)
    2059                      .dwattr $C$DW$186, DW_AT_TI_end_line(0x323)
    2060              $C$DW$187       .dwtag  DW_TAG_TI_loop_range
    2061                      .dwattr $C$DW$187, DW_AT_low_pc($C$DW$L$_systemInit$4$B)
    2062                      .dwattr $C$DW$187, DW_AT_high_pc($C$DW$L$_systemInit$4$E)
    2063                      .dwendtag $C$DW$186
    2064              
    2065              
    2066              $C$DW$188       .dwtag  DW_TAG_TI_loop
    2067                      .dwattr $C$DW$188, DW_AT_name("F:\eZDSP_5535_Files\ccsws2\test\Debug\main.asm:$C$L35:1:1536312441")
    2068                      .dwattr $C$DW$188, DW_AT_TI_begin_file("../FreeRTOS/Demo/c5515_CCS/main.c")
    2069                      .dwattr $C$DW$188, DW_AT_TI_begin_line(0x318)
    2070                      .dwattr $C$DW$188, DW_AT_TI_end_line(0x318)
    2071              $C$DW$189       .dwtag  DW_TAG_TI_loop_range
    2072                      .dwattr $C$DW$189, DW_AT_low_pc($C$DW$L$_systemInit$2$B)
    2073                      .dwattr $C$DW$189, DW_AT_high_pc($C$DW$L$_systemInit$2$E)
    2074                      .dwendtag $C$DW$188
    2075              
    2076                      .dwattr $C$DW$175, DW_AT_TI_end_file("../FreeRTOS/Demo/c5515_CCS/main.c")
    2077                      .dwattr $C$DW$175, DW_AT_TI_end_line(0x32c)
    2078                      .dwattr $C$DW$175, DW_AT_TI_end_column(0x01)
    2079                      .dwendentry
    2080                      .dwendtag $C$DW$175
    2081              
    2082              ;*******************************************************************************
    2083              ;* FAR STRINGS                                                                 *
    2084              ;*******************************************************************************
    2085 000000               .sect   ".const:.string"
    2086                      .align  2
    2087 000000 0043  $C$FSL1:        .string "Check",0
         000001 0068 
         000002 0065 
         000003 0063 
         000004 006B 
         000005 0000 
    2088              ;******************************************************************************
    2089              ;* UNDEFINED EXTERNAL REFERENCES                                              *
    2090              ;******************************************************************************
    2091                      .global _EZDSP5535_init
    2092                      .global _EZDSP5535_waitusec
    2093                      .global _vTaskDelay
    2094                      .global _vTaskStartScheduler
    2095                      .global _xTaskGenericCreate
    2096                      .global _vStartLEDFlashTasks
    2097                      .global _xAreIntegerMathsTaskStillRunning
    2098                      .global _xArePollingQueuesStillRunning
    2099                      .global _reset_RTC
    2100                      .global _enable_i2s0
    2101                      .global _set_i2s0_slave
    2102                      .global _set_dma0_ch0_i2s0_Lout
    2103                      .global _set_dma0_ch1_i2s0_Rout
    2104                      .global _set_dma0_ch0_stop
TMS320C55x Assembler PC v4.4.1 Fri Sep 07 02:27:22 2018

Tools Copyright (c) 1996-2012 Texas Instruments Incorporated
main.asm                                                             PAGE   45

    2105                      .global _set_dma0_ch1_stop
    2106                      .global _EZDSP5535_LED_init
    2107                      .global _EZDSP5535_LED_on
    2108                      .global _EZDSP5535_LED_off
    2109                      .global _EZDSP5535_XF_toggle
    2110                      .global _EZDSP5535_SAR_init
    2111                      .global _EZDSP5535_SAR_getKey
    2112                      .global _PLL_init
    2113                      .global _PLL_config
    2114                      .global _PLL_reset
    2115                      .global _mem_test
    2116                      .global _oled_test
    2117                      .global _spiflash_test
    2118                      .global _RTC_reset
    2119                      .global _fTimer
    2120                      .global _Flag_RTC
    2121                      .global _Conunt_RTC
    2122                      .global _VECSTART
    2123              
    2124              ;*******************************************************************************
    2125              ;* TYPE INFORMATION                                                            *
    2126              ;*******************************************************************************
    2127              
    2128              $C$DW$T$20      .dwtag  DW_TAG_structure_type
    2129                      .dwattr $C$DW$T$20, DW_AT_byte_size(0x04)
    2130              $C$DW$190       .dwtag  DW_TAG_member
    2131                      .dwattr $C$DW$190, DW_AT_type(*$C$DW$T$19)
    2132                      .dwattr $C$DW$190, DW_AT_name("PLLCNTL1")
    2133                      .dwattr $C$DW$190, DW_AT_TI_symbol_name("_PLLCNTL1")
    2134                      .dwattr $C$DW$190, DW_AT_data_member_location[DW_OP_plus_uconst 0x0]
    2135                      .dwattr $C$DW$190, DW_AT_accessibility(DW_ACCESS_public)
    2136              $C$DW$191       .dwtag  DW_TAG_member
    2137                      .dwattr $C$DW$191, DW_AT_type(*$C$DW$T$19)
    2138                      .dwattr $C$DW$191, DW_AT_name("PLLINCNTL")
    2139                      .dwattr $C$DW$191, DW_AT_TI_symbol_name("_PLLINCNTL")
    2140                      .dwattr $C$DW$191, DW_AT_data_member_location[DW_OP_plus_uconst 0x1]
    2141                      .dwattr $C$DW$191, DW_AT_accessibility(DW_ACCESS_public)
    2142              $C$DW$192       .dwtag  DW_TAG_member
    2143                      .dwattr $C$DW$192, DW_AT_type(*$C$DW$T$19)
    2144                      .dwattr $C$DW$192, DW_AT_name("PLLCNTL2")
    2145                      .dwattr $C$DW$192, DW_AT_TI_symbol_name("_PLLCNTL2")
    2146                      .dwattr $C$DW$192, DW_AT_data_member_location[DW_OP_plus_uconst 0x2]
    2147                      .dwattr $C$DW$192, DW_AT_accessibility(DW_ACCESS_public)
    2148              $C$DW$193       .dwtag  DW_TAG_member
    2149                      .dwattr $C$DW$193, DW_AT_type(*$C$DW$T$19)
    2150                      .dwattr $C$DW$193, DW_AT_name("PLLOUTCNTL")
    2151                      .dwattr $C$DW$193, DW_AT_TI_symbol_name("_PLLOUTCNTL")
    2152                      .dwattr $C$DW$193, DW_AT_data_member_location[DW_OP_plus_uconst 0x3]
    2153                      .dwattr $C$DW$193, DW_AT_accessibility(DW_ACCESS_public)
    2154                      .dwendtag $C$DW$T$20
    2155              
    2156              $C$DW$T$26      .dwtag  DW_TAG_typedef, DW_AT_name("PLL_Config")
    2157                      .dwattr $C$DW$T$26, DW_AT_type(*$C$DW$T$20)
    2158                      .dwattr $C$DW$T$26, DW_AT_language(DW_LANG_C)
    2159              $C$DW$194       .dwtag  DW_TAG_TI_far_type
TMS320C55x Assembler PC v4.4.1 Fri Sep 07 02:27:22 2018

Tools Copyright (c) 1996-2012 Texas Instruments Incorporated
main.asm                                                             PAGE   46

    2160                      .dwattr $C$DW$194, DW_AT_type(*$C$DW$T$26)
    2161              $C$DW$T$35      .dwtag  DW_TAG_const_type
    2162                      .dwattr $C$DW$T$35, DW_AT_type(*$C$DW$194)
    2163              $C$DW$T$27      .dwtag  DW_TAG_pointer_type
    2164                      .dwattr $C$DW$T$27, DW_AT_type(*$C$DW$T$26)
    2165                      .dwattr $C$DW$T$27, DW_AT_address_class(0x17)
    2166              
    2167              $C$DW$T$25      .dwtag  DW_TAG_structure_type
    2168                      .dwattr $C$DW$T$25, DW_AT_byte_size(0x48)
    2169              $C$DW$195       .dwtag  DW_TAG_member
    2170                      .dwattr $C$DW$195, DW_AT_type(*$C$DW$T$21)
    2171                      .dwattr $C$DW$195, DW_AT_name("EBSR")
    2172                      .dwattr $C$DW$195, DW_AT_TI_symbol_name("_EBSR")
    2173                      .dwattr $C$DW$195, DW_AT_data_member_location[DW_OP_plus_uconst 0x0]
    2174                      .dwattr $C$DW$195, DW_AT_accessibility(DW_ACCESS_public)
    2175              $C$DW$196       .dwtag  DW_TAG_member
    2176                      .dwattr $C$DW$196, DW_AT_type(*$C$DW$T$21)
    2177                      .dwattr $C$DW$196, DW_AT_name("RSVD0")
    2178                      .dwattr $C$DW$196, DW_AT_TI_symbol_name("_RSVD0")
    2179                      .dwattr $C$DW$196, DW_AT_data_member_location[DW_OP_plus_uconst 0x1]
    2180                      .dwattr $C$DW$196, DW_AT_accessibility(DW_ACCESS_public)
    2181              $C$DW$197       .dwtag  DW_TAG_member
    2182                      .dwattr $C$DW$197, DW_AT_type(*$C$DW$T$21)
    2183                      .dwattr $C$DW$197, DW_AT_name("PCGCR1")
    2184                      .dwattr $C$DW$197, DW_AT_TI_symbol_name("_PCGCR1")
    2185                      .dwattr $C$DW$197, DW_AT_data_member_location[DW_OP_plus_uconst 0x2]
    2186                      .dwattr $C$DW$197, DW_AT_accessibility(DW_ACCESS_public)
    2187              $C$DW$198       .dwtag  DW_TAG_member
    2188                      .dwattr $C$DW$198, DW_AT_type(*$C$DW$T$21)
    2189                      .dwattr $C$DW$198, DW_AT_name("PCGCR2")
    2190                      .dwattr $C$DW$198, DW_AT_TI_symbol_name("_PCGCR2")
    2191                      .dwattr $C$DW$198, DW_AT_data_member_location[DW_OP_plus_uconst 0x3]
    2192                      .dwattr $C$DW$198, DW_AT_accessibility(DW_ACCESS_public)
    2193              $C$DW$199       .dwtag  DW_TAG_member
    2194                      .dwattr $C$DW$199, DW_AT_type(*$C$DW$T$21)
    2195                      .dwattr $C$DW$199, DW_AT_name("PSRCR")
    2196                      .dwattr $C$DW$199, DW_AT_TI_symbol_name("_PSRCR")
    2197                      .dwattr $C$DW$199, DW_AT_data_member_location[DW_OP_plus_uconst 0x4]
    2198                      .dwattr $C$DW$199, DW_AT_accessibility(DW_ACCESS_public)
    2199              $C$DW$200       .dwtag  DW_TAG_member
    2200                      .dwattr $C$DW$200, DW_AT_type(*$C$DW$T$21)
    2201                      .dwattr $C$DW$200, DW_AT_name("PRCR")
    2202                      .dwattr $C$DW$200, DW_AT_TI_symbol_name("_PRCR")
    2203                      .dwattr $C$DW$200, DW_AT_data_member_location[DW_OP_plus_uconst 0x5]
    2204                      .dwattr $C$DW$200, DW_AT_accessibility(DW_ACCESS_public)
    2205              $C$DW$201       .dwtag  DW_TAG_member
    2206                      .dwattr $C$DW$201, DW_AT_type(*$C$DW$T$22)
    2207                      .dwattr $C$DW$201, DW_AT_name("RSVD1")
    2208                      .dwattr $C$DW$201, DW_AT_TI_symbol_name("_RSVD1")
    2209                      .dwattr $C$DW$201, DW_AT_data_member_location[DW_OP_plus_uconst 0x6]
    2210                      .dwattr $C$DW$201, DW_AT_accessibility(DW_ACCESS_public)
    2211              $C$DW$202       .dwtag  DW_TAG_member
    2212                      .dwattr $C$DW$202, DW_AT_type(*$C$DW$T$21)
    2213                      .dwattr $C$DW$202, DW_AT_name("TIAFR")
    2214                      .dwattr $C$DW$202, DW_AT_TI_symbol_name("_TIAFR")
TMS320C55x Assembler PC v4.4.1 Fri Sep 07 02:27:22 2018

Tools Copyright (c) 1996-2012 Texas Instruments Incorporated
main.asm                                                             PAGE   47

    2215                      .dwattr $C$DW$202, DW_AT_data_member_location[DW_OP_plus_uconst 0x14]
    2216                      .dwattr $C$DW$202, DW_AT_accessibility(DW_ACCESS_public)
    2217              $C$DW$203       .dwtag  DW_TAG_member
    2218                      .dwattr $C$DW$203, DW_AT_type(*$C$DW$T$21)
    2219                      .dwattr $C$DW$203, DW_AT_name("RSVD2")
    2220                      .dwattr $C$DW$203, DW_AT_TI_symbol_name("_RSVD2")
    2221                      .dwattr $C$DW$203, DW_AT_data_member_location[DW_OP_plus_uconst 0x15]
    2222                      .dwattr $C$DW$203, DW_AT_accessibility(DW_ACCESS_public)
    2223              $C$DW$204       .dwtag  DW_TAG_member
    2224                      .dwattr $C$DW$204, DW_AT_type(*$C$DW$T$21)
    2225                      .dwattr $C$DW$204, DW_AT_name("ODSCR")
    2226                      .dwattr $C$DW$204, DW_AT_TI_symbol_name("_ODSCR")
    2227                      .dwattr $C$DW$204, DW_AT_data_member_location[DW_OP_plus_uconst 0x16]
    2228                      .dwattr $C$DW$204, DW_AT_accessibility(DW_ACCESS_public)
    2229              $C$DW$205       .dwtag  DW_TAG_member
    2230                      .dwattr $C$DW$205, DW_AT_type(*$C$DW$T$21)
    2231                      .dwattr $C$DW$205, DW_AT_name("PDINHIBR1")
    2232                      .dwattr $C$DW$205, DW_AT_TI_symbol_name("_PDINHIBR1")
    2233                      .dwattr $C$DW$205, DW_AT_data_member_location[DW_OP_plus_uconst 0x17]
    2234                      .dwattr $C$DW$205, DW_AT_accessibility(DW_ACCESS_public)
    2235              $C$DW$206       .dwtag  DW_TAG_member
    2236                      .dwattr $C$DW$206, DW_AT_type(*$C$DW$T$21)
    2237                      .dwattr $C$DW$206, DW_AT_name("PDINHIBR2")
    2238                      .dwattr $C$DW$206, DW_AT_TI_symbol_name("_PDINHIBR2")
    2239                      .dwattr $C$DW$206, DW_AT_data_member_location[DW_OP_plus_uconst 0x18]
    2240                      .dwattr $C$DW$206, DW_AT_accessibility(DW_ACCESS_public)
    2241              $C$DW$207       .dwtag  DW_TAG_member
    2242                      .dwattr $C$DW$207, DW_AT_type(*$C$DW$T$21)
    2243                      .dwattr $C$DW$207, DW_AT_name("PDINHIBR3")
    2244                      .dwattr $C$DW$207, DW_AT_TI_symbol_name("_PDINHIBR3")
    2245                      .dwattr $C$DW$207, DW_AT_data_member_location[DW_OP_plus_uconst 0x19]
    2246                      .dwattr $C$DW$207, DW_AT_accessibility(DW_ACCESS_public)
    2247              $C$DW$208       .dwtag  DW_TAG_member
    2248                      .dwattr $C$DW$208, DW_AT_type(*$C$DW$T$21)
    2249                      .dwattr $C$DW$208, DW_AT_name("DMA0CESR1")
    2250                      .dwattr $C$DW$208, DW_AT_TI_symbol_name("_DMA0CESR1")
    2251                      .dwattr $C$DW$208, DW_AT_data_member_location[DW_OP_plus_uconst 0x1a]
    2252                      .dwattr $C$DW$208, DW_AT_accessibility(DW_ACCESS_public)
    2253              $C$DW$209       .dwtag  DW_TAG_member
    2254                      .dwattr $C$DW$209, DW_AT_type(*$C$DW$T$21)
    2255                      .dwattr $C$DW$209, DW_AT_name("DMA0CESR2")
    2256                      .dwattr $C$DW$209, DW_AT_TI_symbol_name("_DMA0CESR2")
    2257                      .dwattr $C$DW$209, DW_AT_data_member_location[DW_OP_plus_uconst 0x1b]
    2258                      .dwattr $C$DW$209, DW_AT_accessibility(DW_ACCESS_public)
    2259              $C$DW$210       .dwtag  DW_TAG_member
    2260                      .dwattr $C$DW$210, DW_AT_type(*$C$DW$T$21)
    2261                      .dwattr $C$DW$210, DW_AT_name("DMA1CESR1")
    2262                      .dwattr $C$DW$210, DW_AT_TI_symbol_name("_DMA1CESR1")
    2263                      .dwattr $C$DW$210, DW_AT_data_member_location[DW_OP_plus_uconst 0x1c]
    2264                      .dwattr $C$DW$210, DW_AT_accessibility(DW_ACCESS_public)
    2265              $C$DW$211       .dwtag  DW_TAG_member
    2266                      .dwattr $C$DW$211, DW_AT_type(*$C$DW$T$21)
    2267                      .dwattr $C$DW$211, DW_AT_name("DMA1CESR2")
    2268                      .dwattr $C$DW$211, DW_AT_TI_symbol_name("_DMA1CESR2")
    2269                      .dwattr $C$DW$211, DW_AT_data_member_location[DW_OP_plus_uconst 0x1d]
TMS320C55x Assembler PC v4.4.1 Fri Sep 07 02:27:22 2018

Tools Copyright (c) 1996-2012 Texas Instruments Incorporated
main.asm                                                             PAGE   48

    2270                      .dwattr $C$DW$211, DW_AT_accessibility(DW_ACCESS_public)
    2271              $C$DW$212       .dwtag  DW_TAG_member
    2272                      .dwattr $C$DW$212, DW_AT_type(*$C$DW$T$21)
    2273                      .dwattr $C$DW$212, DW_AT_name("SDRAMCCR")
    2274                      .dwattr $C$DW$212, DW_AT_TI_symbol_name("_SDRAMCCR")
    2275                      .dwattr $C$DW$212, DW_AT_data_member_location[DW_OP_plus_uconst 0x1e]
    2276                      .dwattr $C$DW$212, DW_AT_accessibility(DW_ACCESS_public)
    2277              $C$DW$213       .dwtag  DW_TAG_member
    2278                      .dwattr $C$DW$213, DW_AT_type(*$C$DW$T$21)
    2279                      .dwattr $C$DW$213, DW_AT_name("CCR2")
    2280                      .dwattr $C$DW$213, DW_AT_TI_symbol_name("_CCR2")
    2281                      .dwattr $C$DW$213, DW_AT_data_member_location[DW_OP_plus_uconst 0x1f]
    2282                      .dwattr $C$DW$213, DW_AT_accessibility(DW_ACCESS_public)
    2283              $C$DW$214       .dwtag  DW_TAG_member
    2284                      .dwattr $C$DW$214, DW_AT_type(*$C$DW$T$21)
    2285                      .dwattr $C$DW$214, DW_AT_name("CGCR1")
    2286                      .dwattr $C$DW$214, DW_AT_TI_symbol_name("_CGCR1")
    2287                      .dwattr $C$DW$214, DW_AT_data_member_location[DW_OP_plus_uconst 0x20]
    2288                      .dwattr $C$DW$214, DW_AT_accessibility(DW_ACCESS_public)
    2289              $C$DW$215       .dwtag  DW_TAG_member
    2290                      .dwattr $C$DW$215, DW_AT_type(*$C$DW$T$21)
    2291                      .dwattr $C$DW$215, DW_AT_name("CGICR")
    2292                      .dwattr $C$DW$215, DW_AT_TI_symbol_name("_CGICR")
    2293                      .dwattr $C$DW$215, DW_AT_data_member_location[DW_OP_plus_uconst 0x21]
    2294                      .dwattr $C$DW$215, DW_AT_accessibility(DW_ACCESS_public)
    2295              $C$DW$216       .dwtag  DW_TAG_member
    2296                      .dwattr $C$DW$216, DW_AT_type(*$C$DW$T$21)
    2297                      .dwattr $C$DW$216, DW_AT_name("CGCR2")
    2298                      .dwattr $C$DW$216, DW_AT_TI_symbol_name("_CGCR2")
    2299                      .dwattr $C$DW$216, DW_AT_data_member_location[DW_OP_plus_uconst 0x22]
    2300                      .dwattr $C$DW$216, DW_AT_accessibility(DW_ACCESS_public)
    2301              $C$DW$217       .dwtag  DW_TAG_member
    2302                      .dwattr $C$DW$217, DW_AT_type(*$C$DW$T$21)
    2303                      .dwattr $C$DW$217, DW_AT_name("CGOCR")
    2304                      .dwattr $C$DW$217, DW_AT_TI_symbol_name("_CGOCR")
    2305                      .dwattr $C$DW$217, DW_AT_data_member_location[DW_OP_plus_uconst 0x23]
    2306                      .dwattr $C$DW$217, DW_AT_accessibility(DW_ACCESS_public)
    2307              $C$DW$218       .dwtag  DW_TAG_member
    2308                      .dwattr $C$DW$218, DW_AT_type(*$C$DW$T$21)
    2309                      .dwattr $C$DW$218, DW_AT_name("CCSSR")
    2310                      .dwattr $C$DW$218, DW_AT_TI_symbol_name("_CCSSR")
    2311                      .dwattr $C$DW$218, DW_AT_data_member_location[DW_OP_plus_uconst 0x24]
    2312                      .dwattr $C$DW$218, DW_AT_accessibility(DW_ACCESS_public)
    2313              $C$DW$219       .dwtag  DW_TAG_member
    2314                      .dwattr $C$DW$219, DW_AT_type(*$C$DW$T$21)
    2315                      .dwattr $C$DW$219, DW_AT_name("RSVD3")
    2316                      .dwattr $C$DW$219, DW_AT_TI_symbol_name("_RSVD3")
    2317                      .dwattr $C$DW$219, DW_AT_data_member_location[DW_OP_plus_uconst 0x25]
    2318                      .dwattr $C$DW$219, DW_AT_accessibility(DW_ACCESS_public)
    2319              $C$DW$220       .dwtag  DW_TAG_member
    2320                      .dwattr $C$DW$220, DW_AT_type(*$C$DW$T$21)
    2321                      .dwattr $C$DW$220, DW_AT_name("ECDR")
    2322                      .dwattr $C$DW$220, DW_AT_TI_symbol_name("_ECDR")
    2323                      .dwattr $C$DW$220, DW_AT_data_member_location[DW_OP_plus_uconst 0x26]
    2324                      .dwattr $C$DW$220, DW_AT_accessibility(DW_ACCESS_public)
TMS320C55x Assembler PC v4.4.1 Fri Sep 07 02:27:22 2018

Tools Copyright (c) 1996-2012 Texas Instruments Incorporated
main.asm                                                             PAGE   49

    2325              $C$DW$221       .dwtag  DW_TAG_member
    2326                      .dwattr $C$DW$221, DW_AT_type(*$C$DW$T$21)
    2327                      .dwattr $C$DW$221, DW_AT_name("RSVD4")
    2328                      .dwattr $C$DW$221, DW_AT_TI_symbol_name("_RSVD4")
    2329                      .dwattr $C$DW$221, DW_AT_data_member_location[DW_OP_plus_uconst 0x27]
    2330                      .dwattr $C$DW$221, DW_AT_accessibility(DW_ACCESS_public)
    2331              $C$DW$222       .dwtag  DW_TAG_member
    2332                      .dwattr $C$DW$222, DW_AT_type(*$C$DW$T$21)
    2333                      .dwattr $C$DW$222, DW_AT_name("RAMSLPMDCNTLR1")
    2334                      .dwattr $C$DW$222, DW_AT_TI_symbol_name("_RAMSLPMDCNTLR1")
    2335                      .dwattr $C$DW$222, DW_AT_data_member_location[DW_OP_plus_uconst 0x28]
    2336                      .dwattr $C$DW$222, DW_AT_accessibility(DW_ACCESS_public)
    2337              $C$DW$223       .dwtag  DW_TAG_member
    2338                      .dwattr $C$DW$223, DW_AT_type(*$C$DW$T$21)
    2339                      .dwattr $C$DW$223, DW_AT_name("RSVD5")
    2340                      .dwattr $C$DW$223, DW_AT_TI_symbol_name("_RSVD5")
    2341                      .dwattr $C$DW$223, DW_AT_data_member_location[DW_OP_plus_uconst 0x29]
    2342                      .dwattr $C$DW$223, DW_AT_accessibility(DW_ACCESS_public)
    2343              $C$DW$224       .dwtag  DW_TAG_member
    2344                      .dwattr $C$DW$224, DW_AT_type(*$C$DW$T$21)
    2345                      .dwattr $C$DW$224, DW_AT_name("RAMSLPMDCNTLR2")
    2346                      .dwattr $C$DW$224, DW_AT_TI_symbol_name("_RAMSLPMDCNTLR2")
    2347                      .dwattr $C$DW$224, DW_AT_data_member_location[DW_OP_plus_uconst 0x2a]
    2348                      .dwattr $C$DW$224, DW_AT_accessibility(DW_ACCESS_public)
    2349              $C$DW$225       .dwtag  DW_TAG_member
    2350                      .dwattr $C$DW$225, DW_AT_type(*$C$DW$T$21)
    2351                      .dwattr $C$DW$225, DW_AT_name("RAMSLPMDCNTLR3")
    2352                      .dwattr $C$DW$225, DW_AT_TI_symbol_name("_RAMSLPMDCNTLR3")
    2353                      .dwattr $C$DW$225, DW_AT_data_member_location[DW_OP_plus_uconst 0x2b]
    2354                      .dwattr $C$DW$225, DW_AT_accessibility(DW_ACCESS_public)
    2355              $C$DW$226       .dwtag  DW_TAG_member
    2356                      .dwattr $C$DW$226, DW_AT_type(*$C$DW$T$21)
    2357                      .dwattr $C$DW$226, DW_AT_name("RAMSLPMDCNTLR4")
    2358                      .dwattr $C$DW$226, DW_AT_TI_symbol_name("_RAMSLPMDCNTLR4")
    2359                      .dwattr $C$DW$226, DW_AT_data_member_location[DW_OP_plus_uconst 0x2c]
    2360                      .dwattr $C$DW$226, DW_AT_accessibility(DW_ACCESS_public)
    2361              $C$DW$227       .dwtag  DW_TAG_member
    2362                      .dwattr $C$DW$227, DW_AT_type(*$C$DW$T$21)
    2363                      .dwattr $C$DW$227, DW_AT_name("RAMSLPMDCNTLR5")
    2364                      .dwattr $C$DW$227, DW_AT_TI_symbol_name("_RAMSLPMDCNTLR5")
    2365                      .dwattr $C$DW$227, DW_AT_data_member_location[DW_OP_plus_uconst 0x2d]
    2366                      .dwattr $C$DW$227, DW_AT_accessibility(DW_ACCESS_public)
    2367              $C$DW$228       .dwtag  DW_TAG_member
    2368                      .dwattr $C$DW$228, DW_AT_type(*$C$DW$T$23)
    2369                      .dwattr $C$DW$228, DW_AT_name("RSVD6")
    2370                      .dwattr $C$DW$228, DW_AT_TI_symbol_name("_RSVD6")
    2371                      .dwattr $C$DW$228, DW_AT_data_member_location[DW_OP_plus_uconst 0x2e]
    2372                      .dwattr $C$DW$228, DW_AT_accessibility(DW_ACCESS_public)
    2373              $C$DW$229       .dwtag  DW_TAG_member
    2374                      .dwattr $C$DW$229, DW_AT_type(*$C$DW$T$21)
    2375                      .dwattr $C$DW$229, DW_AT_name("DMAIFR")
    2376                      .dwattr $C$DW$229, DW_AT_TI_symbol_name("_DMAIFR")
    2377                      .dwattr $C$DW$229, DW_AT_data_member_location[DW_OP_plus_uconst 0x30]
    2378                      .dwattr $C$DW$229, DW_AT_accessibility(DW_ACCESS_public)
    2379              $C$DW$230       .dwtag  DW_TAG_member
TMS320C55x Assembler PC v4.4.1 Fri Sep 07 02:27:22 2018

Tools Copyright (c) 1996-2012 Texas Instruments Incorporated
main.asm                                                             PAGE   50

    2380                      .dwattr $C$DW$230, DW_AT_type(*$C$DW$T$21)
    2381                      .dwattr $C$DW$230, DW_AT_name("DMAIER")
    2382                      .dwattr $C$DW$230, DW_AT_TI_symbol_name("_DMAIER")
    2383                      .dwattr $C$DW$230, DW_AT_data_member_location[DW_OP_plus_uconst 0x31]
    2384                      .dwattr $C$DW$230, DW_AT_accessibility(DW_ACCESS_public)
    2385              $C$DW$231       .dwtag  DW_TAG_member
    2386                      .dwattr $C$DW$231, DW_AT_type(*$C$DW$T$21)
    2387                      .dwattr $C$DW$231, DW_AT_name("USBSCR")
    2388                      .dwattr $C$DW$231, DW_AT_TI_symbol_name("_USBSCR")
    2389                      .dwattr $C$DW$231, DW_AT_data_member_location[DW_OP_plus_uconst 0x32]
    2390                      .dwattr $C$DW$231, DW_AT_accessibility(DW_ACCESS_public)
    2391              $C$DW$232       .dwtag  DW_TAG_member
    2392                      .dwattr $C$DW$232, DW_AT_type(*$C$DW$T$21)
    2393                      .dwattr $C$DW$232, DW_AT_name("ESCR")
    2394                      .dwattr $C$DW$232, DW_AT_TI_symbol_name("_ESCR")
    2395                      .dwattr $C$DW$232, DW_AT_data_member_location[DW_OP_plus_uconst 0x33]
    2396                      .dwattr $C$DW$232, DW_AT_accessibility(DW_ACCESS_public)
    2397              $C$DW$233       .dwtag  DW_TAG_member
    2398                      .dwattr $C$DW$233, DW_AT_type(*$C$DW$T$23)
    2399                      .dwattr $C$DW$233, DW_AT_name("RSVD7")
    2400                      .dwattr $C$DW$233, DW_AT_TI_symbol_name("_RSVD7")
    2401                      .dwattr $C$DW$233, DW_AT_data_member_location[DW_OP_plus_uconst 0x34]
    2402                      .dwattr $C$DW$233, DW_AT_accessibility(DW_ACCESS_public)
    2403              $C$DW$234       .dwtag  DW_TAG_member
    2404                      .dwattr $C$DW$234, DW_AT_type(*$C$DW$T$21)
    2405                      .dwattr $C$DW$234, DW_AT_name("DMA2CESR1")
    2406                      .dwattr $C$DW$234, DW_AT_TI_symbol_name("_DMA2CESR1")
    2407                      .dwattr $C$DW$234, DW_AT_data_member_location[DW_OP_plus_uconst 0x36]
    2408                      .dwattr $C$DW$234, DW_AT_accessibility(DW_ACCESS_public)
    2409              $C$DW$235       .dwtag  DW_TAG_member
    2410                      .dwattr $C$DW$235, DW_AT_type(*$C$DW$T$21)
    2411                      .dwattr $C$DW$235, DW_AT_name("DMA2CESR2")
    2412                      .dwattr $C$DW$235, DW_AT_TI_symbol_name("_DMA2CESR2")
    2413                      .dwattr $C$DW$235, DW_AT_data_member_location[DW_OP_plus_uconst 0x37]
    2414                      .dwattr $C$DW$235, DW_AT_accessibility(DW_ACCESS_public)
    2415              $C$DW$236       .dwtag  DW_TAG_member
    2416                      .dwattr $C$DW$236, DW_AT_type(*$C$DW$T$21)
    2417                      .dwattr $C$DW$236, DW_AT_name("DMA3CESR1")
    2418                      .dwattr $C$DW$236, DW_AT_TI_symbol_name("_DMA3CESR1")
    2419                      .dwattr $C$DW$236, DW_AT_data_member_location[DW_OP_plus_uconst 0x38]
    2420                      .dwattr $C$DW$236, DW_AT_accessibility(DW_ACCESS_public)
    2421              $C$DW$237       .dwtag  DW_TAG_member
    2422                      .dwattr $C$DW$237, DW_AT_type(*$C$DW$T$21)
    2423                      .dwattr $C$DW$237, DW_AT_name("DMA3CESR2")
    2424                      .dwattr $C$DW$237, DW_AT_TI_symbol_name("_DMA3CESR2")
    2425                      .dwattr $C$DW$237, DW_AT_data_member_location[DW_OP_plus_uconst 0x39]
    2426                      .dwattr $C$DW$237, DW_AT_accessibility(DW_ACCESS_public)
    2427              $C$DW$238       .dwtag  DW_TAG_member
    2428                      .dwattr $C$DW$238, DW_AT_type(*$C$DW$T$21)
    2429                      .dwattr $C$DW$238, DW_AT_name("CLKSTOP")
    2430                      .dwattr $C$DW$238, DW_AT_TI_symbol_name("_CLKSTOP")
    2431                      .dwattr $C$DW$238, DW_AT_data_member_location[DW_OP_plus_uconst 0x3a]
    2432                      .dwattr $C$DW$238, DW_AT_accessibility(DW_ACCESS_public)
    2433              $C$DW$239       .dwtag  DW_TAG_member
    2434                      .dwattr $C$DW$239, DW_AT_type(*$C$DW$T$24)
TMS320C55x Assembler PC v4.4.1 Fri Sep 07 02:27:22 2018

Tools Copyright (c) 1996-2012 Texas Instruments Incorporated
main.asm                                                             PAGE   51

    2435                      .dwattr $C$DW$239, DW_AT_name("RSVD8")
    2436                      .dwattr $C$DW$239, DW_AT_TI_symbol_name("_RSVD8")
    2437                      .dwattr $C$DW$239, DW_AT_data_member_location[DW_OP_plus_uconst 0x3b]
    2438                      .dwattr $C$DW$239, DW_AT_accessibility(DW_ACCESS_public)
    2439              $C$DW$240       .dwtag  DW_TAG_member
    2440                      .dwattr $C$DW$240, DW_AT_type(*$C$DW$T$21)
    2441                      .dwattr $C$DW$240, DW_AT_name("DIEIDR0")
    2442                      .dwattr $C$DW$240, DW_AT_TI_symbol_name("_DIEIDR0")
    2443                      .dwattr $C$DW$240, DW_AT_data_member_location[DW_OP_plus_uconst 0x40]
    2444                      .dwattr $C$DW$240, DW_AT_accessibility(DW_ACCESS_public)
    2445              $C$DW$241       .dwtag  DW_TAG_member
    2446                      .dwattr $C$DW$241, DW_AT_type(*$C$DW$T$21)
    2447                      .dwattr $C$DW$241, DW_AT_name("DIEIDR1")
    2448                      .dwattr $C$DW$241, DW_AT_TI_symbol_name("_DIEIDR1")
    2449                      .dwattr $C$DW$241, DW_AT_data_member_location[DW_OP_plus_uconst 0x41]
    2450                      .dwattr $C$DW$241, DW_AT_accessibility(DW_ACCESS_public)
    2451              $C$DW$242       .dwtag  DW_TAG_member
    2452                      .dwattr $C$DW$242, DW_AT_type(*$C$DW$T$21)
    2453                      .dwattr $C$DW$242, DW_AT_name("DIEIDR2")
    2454                      .dwattr $C$DW$242, DW_AT_TI_symbol_name("_DIEIDR2")
    2455                      .dwattr $C$DW$242, DW_AT_data_member_location[DW_OP_plus_uconst 0x42]
    2456                      .dwattr $C$DW$242, DW_AT_accessibility(DW_ACCESS_public)
    2457              $C$DW$243       .dwtag  DW_TAG_member
    2458                      .dwattr $C$DW$243, DW_AT_type(*$C$DW$T$21)
    2459                      .dwattr $C$DW$243, DW_AT_name("DIEIDR3")
    2460                      .dwattr $C$DW$243, DW_AT_TI_symbol_name("_DIEIDR3")
    2461                      .dwattr $C$DW$243, DW_AT_data_member_location[DW_OP_plus_uconst 0x43]
    2462                      .dwattr $C$DW$243, DW_AT_accessibility(DW_ACCESS_public)
    2463              $C$DW$244       .dwtag  DW_TAG_member
    2464                      .dwattr $C$DW$244, DW_AT_type(*$C$DW$T$21)
    2465                      .dwattr $C$DW$244, DW_AT_name("DIEIDR4")
    2466                      .dwattr $C$DW$244, DW_AT_TI_symbol_name("_DIEIDR4")
    2467                      .dwattr $C$DW$244, DW_AT_data_member_location[DW_OP_plus_uconst 0x44]
    2468                      .dwattr $C$DW$244, DW_AT_accessibility(DW_ACCESS_public)
    2469              $C$DW$245       .dwtag  DW_TAG_member
    2470                      .dwattr $C$DW$245, DW_AT_type(*$C$DW$T$21)
    2471                      .dwattr $C$DW$245, DW_AT_name("DIEIDR5")
    2472                      .dwattr $C$DW$245, DW_AT_TI_symbol_name("_DIEIDR5")
    2473                      .dwattr $C$DW$245, DW_AT_data_member_location[DW_OP_plus_uconst 0x45]
    2474                      .dwattr $C$DW$245, DW_AT_accessibility(DW_ACCESS_public)
    2475              $C$DW$246       .dwtag  DW_TAG_member
    2476                      .dwattr $C$DW$246, DW_AT_type(*$C$DW$T$21)
    2477                      .dwattr $C$DW$246, DW_AT_name("DIEIDR6")
    2478                      .dwattr $C$DW$246, DW_AT_TI_symbol_name("_DIEIDR6")
    2479                      .dwattr $C$DW$246, DW_AT_data_member_location[DW_OP_plus_uconst 0x46]
    2480                      .dwattr $C$DW$246, DW_AT_accessibility(DW_ACCESS_public)
    2481              $C$DW$247       .dwtag  DW_TAG_member
    2482                      .dwattr $C$DW$247, DW_AT_type(*$C$DW$T$21)
    2483                      .dwattr $C$DW$247, DW_AT_name("DIEIDR7")
    2484                      .dwattr $C$DW$247, DW_AT_TI_symbol_name("_DIEIDR7")
    2485                      .dwattr $C$DW$247, DW_AT_data_member_location[DW_OP_plus_uconst 0x47]
    2486                      .dwattr $C$DW$247, DW_AT_accessibility(DW_ACCESS_public)
    2487                      .dwendtag $C$DW$T$25
    2488              
    2489              $C$DW$T$29      .dwtag  DW_TAG_typedef, DW_AT_name("CSL_SysRegs")
TMS320C55x Assembler PC v4.4.1 Fri Sep 07 02:27:22 2018

Tools Copyright (c) 1996-2012 Texas Instruments Incorporated
main.asm                                                             PAGE   52

    2490                      .dwattr $C$DW$T$29, DW_AT_type(*$C$DW$T$25)
    2491                      .dwattr $C$DW$T$29, DW_AT_language(DW_LANG_C)
    2492              $C$DW$248       .dwtag  DW_TAG_TI_far_type
    2493                      .dwattr $C$DW$248, DW_AT_type(*$C$DW$T$29)
    2494              $C$DW$249       .dwtag  DW_TAG_TI_ioport_type
    2495                      .dwattr $C$DW$249, DW_AT_type(*$C$DW$248)
    2496              $C$DW$T$30      .dwtag  DW_TAG_volatile_type
    2497                      .dwattr $C$DW$T$30, DW_AT_type(*$C$DW$249)
    2498              $C$DW$T$31      .dwtag  DW_TAG_pointer_type
    2499                      .dwattr $C$DW$T$31, DW_AT_type(*$C$DW$T$30)
    2500                      .dwattr $C$DW$T$31, DW_AT_address_class(0x10)
    2501              $C$DW$T$32      .dwtag  DW_TAG_typedef, DW_AT_name("CSL_SysRegsOvly")
    2502                      .dwattr $C$DW$T$32, DW_AT_type(*$C$DW$T$31)
    2503                      .dwattr $C$DW$T$32, DW_AT_language(DW_LANG_C)
    2504              
    2505              $C$DW$T$33      .dwtag  DW_TAG_structure_type
    2506                      .dwattr $C$DW$T$33, DW_AT_name("PLL_Obj")
    2507                      .dwattr $C$DW$T$33, DW_AT_byte_size(0x06)
    2508              $C$DW$250       .dwtag  DW_TAG_member
    2509                      .dwattr $C$DW$250, DW_AT_type(*$C$DW$T$27)
    2510                      .dwattr $C$DW$250, DW_AT_name("pllConfig")
    2511                      .dwattr $C$DW$250, DW_AT_TI_symbol_name("_pllConfig")
    2512                      .dwattr $C$DW$250, DW_AT_data_member_location[DW_OP_plus_uconst 0x0]
    2513                      .dwattr $C$DW$250, DW_AT_accessibility(DW_ACCESS_public)
    2514              $C$DW$251       .dwtag  DW_TAG_member
    2515                      .dwattr $C$DW$251, DW_AT_type(*$C$DW$T$28)
    2516                      .dwattr $C$DW$251, DW_AT_name("instId")
    2517                      .dwattr $C$DW$251, DW_AT_TI_symbol_name("_instId")
    2518                      .dwattr $C$DW$251, DW_AT_data_member_location[DW_OP_plus_uconst 0x2]
    2519                      .dwattr $C$DW$251, DW_AT_accessibility(DW_ACCESS_public)
    2520              $C$DW$252       .dwtag  DW_TAG_member
    2521                      .dwattr $C$DW$252, DW_AT_type(*$C$DW$T$32)
    2522                      .dwattr $C$DW$252, DW_AT_name("sysAddr")
    2523                      .dwattr $C$DW$252, DW_AT_TI_symbol_name("_sysAddr")
    2524                      .dwattr $C$DW$252, DW_AT_data_member_location[DW_OP_plus_uconst 0x4]
    2525                      .dwattr $C$DW$252, DW_AT_accessibility(DW_ACCESS_public)
    2526                      .dwendtag $C$DW$T$33
    2527              
    2528              $C$DW$T$36      .dwtag  DW_TAG_typedef, DW_AT_name("PLL_Obj")
    2529                      .dwattr $C$DW$T$36, DW_AT_type(*$C$DW$T$33)
    2530                      .dwattr $C$DW$T$36, DW_AT_language(DW_LANG_C)
    2531              $C$DW$T$37      .dwtag  DW_TAG_pointer_type
    2532                      .dwattr $C$DW$T$37, DW_AT_type(*$C$DW$T$36)
    2533                      .dwattr $C$DW$T$37, DW_AT_address_class(0x17)
    2534              $C$DW$T$38      .dwtag  DW_TAG_pointer_type
    2535                      .dwattr $C$DW$T$38, DW_AT_type(*$C$DW$T$33)
    2536                      .dwattr $C$DW$T$38, DW_AT_address_class(0x17)
    2537              $C$DW$T$39      .dwtag  DW_TAG_typedef, DW_AT_name("PLL_Handle")
    2538                      .dwattr $C$DW$T$39, DW_AT_type(*$C$DW$T$38)
    2539                      .dwattr $C$DW$T$39, DW_AT_language(DW_LANG_C)
    2540              $C$DW$T$3       .dwtag  DW_TAG_pointer_type
    2541                      .dwattr $C$DW$T$3, DW_AT_address_class(0x17)
    2542              $C$DW$T$40      .dwtag  DW_TAG_typedef, DW_AT_name("xTaskHandle")
    2543                      .dwattr $C$DW$T$40, DW_AT_type(*$C$DW$T$3)
    2544                      .dwattr $C$DW$T$40, DW_AT_language(DW_LANG_C)
TMS320C55x Assembler PC v4.4.1 Fri Sep 07 02:27:22 2018

Tools Copyright (c) 1996-2012 Texas Instruments Incorporated
main.asm                                                             PAGE   53

    2545              $C$DW$T$41      .dwtag  DW_TAG_pointer_type
    2546                      .dwattr $C$DW$T$41, DW_AT_type(*$C$DW$T$40)
    2547                      .dwattr $C$DW$T$41, DW_AT_address_class(0x17)
    2548              
    2549              $C$DW$T$49      .dwtag  DW_TAG_subroutine_type
    2550                      .dwattr $C$DW$T$49, DW_AT_language(DW_LANG_C)
    2551              $C$DW$253       .dwtag  DW_TAG_formal_parameter
    2552                      .dwattr $C$DW$253, DW_AT_type(*$C$DW$T$3)
    2553                      .dwendtag $C$DW$T$49
    2554              
    2555              $C$DW$T$50      .dwtag  DW_TAG_pointer_type
    2556                      .dwattr $C$DW$T$50, DW_AT_type(*$C$DW$T$49)
    2557                      .dwattr $C$DW$T$50, DW_AT_address_class(0x20)
    2558              $C$DW$T$51      .dwtag  DW_TAG_typedef, DW_AT_name("pdTASK_CODE")
    2559                      .dwattr $C$DW$T$51, DW_AT_type(*$C$DW$T$50)
    2560                      .dwattr $C$DW$T$51, DW_AT_language(DW_LANG_C)
    2561              $C$DW$T$4       .dwtag  DW_TAG_base_type
    2562                      .dwattr $C$DW$T$4, DW_AT_encoding(DW_ATE_boolean)
    2563                      .dwattr $C$DW$T$4, DW_AT_name("bool")
    2564                      .dwattr $C$DW$T$4, DW_AT_byte_size(0x01)
    2565              $C$DW$T$5       .dwtag  DW_TAG_base_type
    2566                      .dwattr $C$DW$T$5, DW_AT_encoding(DW_ATE_signed_char)
    2567                      .dwattr $C$DW$T$5, DW_AT_name("signed char")
    2568                      .dwattr $C$DW$T$5, DW_AT_byte_size(0x01)
    2569              $C$DW$254       .dwtag  DW_TAG_TI_far_type
    2570                      .dwattr $C$DW$254, DW_AT_type(*$C$DW$T$5)
    2571              $C$DW$T$54      .dwtag  DW_TAG_const_type
    2572                      .dwattr $C$DW$T$54, DW_AT_type(*$C$DW$254)
    2573              $C$DW$T$55      .dwtag  DW_TAG_pointer_type
    2574                      .dwattr $C$DW$T$55, DW_AT_type(*$C$DW$T$54)
    2575                      .dwattr $C$DW$T$55, DW_AT_address_class(0x17)
    2576              $C$DW$255       .dwtag  DW_TAG_TI_far_type
    2577                      .dwattr $C$DW$255, DW_AT_type(*$C$DW$T$55)
    2578              $C$DW$T$56      .dwtag  DW_TAG_const_type
    2579                      .dwattr $C$DW$T$56, DW_AT_type(*$C$DW$255)
    2580              $C$DW$T$6       .dwtag  DW_TAG_base_type
    2581                      .dwattr $C$DW$T$6, DW_AT_encoding(DW_ATE_unsigned_char)
    2582                      .dwattr $C$DW$T$6, DW_AT_name("unsigned char")
    2583                      .dwattr $C$DW$T$6, DW_AT_byte_size(0x01)
    2584              $C$DW$T$57      .dwtag  DW_TAG_typedef, DW_AT_name("Uint8")
    2585                      .dwattr $C$DW$T$57, DW_AT_type(*$C$DW$T$6)
    2586                      .dwattr $C$DW$T$57, DW_AT_language(DW_LANG_C)
    2587              $C$DW$T$7       .dwtag  DW_TAG_base_type
    2588                      .dwattr $C$DW$T$7, DW_AT_encoding(DW_ATE_signed_char)
    2589                      .dwattr $C$DW$T$7, DW_AT_name("wchar_t")
    2590                      .dwattr $C$DW$T$7, DW_AT_byte_size(0x01)
    2591              $C$DW$T$8       .dwtag  DW_TAG_base_type
    2592                      .dwattr $C$DW$T$8, DW_AT_encoding(DW_ATE_signed)
    2593                      .dwattr $C$DW$T$8, DW_AT_name("short")
    2594                      .dwattr $C$DW$T$8, DW_AT_byte_size(0x01)
    2595              $C$DW$T$60      .dwtag  DW_TAG_typedef, DW_AT_name("Int16")
    2596                      .dwattr $C$DW$T$60, DW_AT_type(*$C$DW$T$8)
    2597                      .dwattr $C$DW$T$60, DW_AT_language(DW_LANG_C)
    2598              $C$DW$T$61      .dwtag  DW_TAG_typedef, DW_AT_name("CSL_Status")
    2599                      .dwattr $C$DW$T$61, DW_AT_type(*$C$DW$T$60)
TMS320C55x Assembler PC v4.4.1 Fri Sep 07 02:27:22 2018

Tools Copyright (c) 1996-2012 Texas Instruments Incorporated
main.asm                                                             PAGE   54

    2600                      .dwattr $C$DW$T$61, DW_AT_language(DW_LANG_C)
    2601              $C$DW$T$9       .dwtag  DW_TAG_base_type
    2602                      .dwattr $C$DW$T$9, DW_AT_encoding(DW_ATE_unsigned)
    2603                      .dwattr $C$DW$T$9, DW_AT_name("unsigned short")
    2604                      .dwattr $C$DW$T$9, DW_AT_byte_size(0x01)
    2605              $C$DW$T$19      .dwtag  DW_TAG_typedef, DW_AT_name("Uint16")
    2606                      .dwattr $C$DW$T$19, DW_AT_type(*$C$DW$T$9)
    2607                      .dwattr $C$DW$T$19, DW_AT_language(DW_LANG_C)
    2608              $C$DW$256       .dwtag  DW_TAG_TI_far_type
    2609                      .dwattr $C$DW$256, DW_AT_type(*$C$DW$T$19)
    2610              $C$DW$T$21      .dwtag  DW_TAG_volatile_type
    2611                      .dwattr $C$DW$T$21, DW_AT_type(*$C$DW$256)
    2612              
    2613              $C$DW$T$22      .dwtag  DW_TAG_array_type
    2614                      .dwattr $C$DW$T$22, DW_AT_type(*$C$DW$T$21)
    2615                      .dwattr $C$DW$T$22, DW_AT_language(DW_LANG_C)
    2616                      .dwattr $C$DW$T$22, DW_AT_byte_size(0x0e)
    2617              $C$DW$257       .dwtag  DW_TAG_subrange_type
    2618                      .dwattr $C$DW$257, DW_AT_upper_bound(0x0d)
    2619                      .dwendtag $C$DW$T$22
    2620              
    2621              
    2622              $C$DW$T$23      .dwtag  DW_TAG_array_type
    2623                      .dwattr $C$DW$T$23, DW_AT_type(*$C$DW$T$21)
    2624                      .dwattr $C$DW$T$23, DW_AT_language(DW_LANG_C)
    2625                      .dwattr $C$DW$T$23, DW_AT_byte_size(0x02)
    2626              $C$DW$258       .dwtag  DW_TAG_subrange_type
    2627                      .dwattr $C$DW$258, DW_AT_upper_bound(0x01)
    2628                      .dwendtag $C$DW$T$23
    2629              
    2630              
    2631              $C$DW$T$24      .dwtag  DW_TAG_array_type
    2632                      .dwattr $C$DW$T$24, DW_AT_type(*$C$DW$T$21)
    2633                      .dwattr $C$DW$T$24, DW_AT_language(DW_LANG_C)
    2634                      .dwattr $C$DW$T$24, DW_AT_byte_size(0x05)
    2635              $C$DW$259       .dwtag  DW_TAG_subrange_type
    2636                      .dwattr $C$DW$259, DW_AT_upper_bound(0x04)
    2637                      .dwendtag $C$DW$T$24
    2638              
    2639              $C$DW$T$10      .dwtag  DW_TAG_base_type
    2640                      .dwattr $C$DW$T$10, DW_AT_encoding(DW_ATE_signed)
    2641                      .dwattr $C$DW$T$10, DW_AT_name("int")
    2642                      .dwattr $C$DW$T$10, DW_AT_byte_size(0x01)
    2643              $C$DW$T$11      .dwtag  DW_TAG_base_type
    2644                      .dwattr $C$DW$T$11, DW_AT_encoding(DW_ATE_unsigned)
    2645                      .dwattr $C$DW$T$11, DW_AT_name("unsigned int")
    2646                      .dwattr $C$DW$T$11, DW_AT_byte_size(0x01)
    2647              $C$DW$T$83      .dwtag  DW_TAG_pointer_type
    2648                      .dwattr $C$DW$T$83, DW_AT_type(*$C$DW$T$11)
    2649                      .dwattr $C$DW$T$83, DW_AT_address_class(0x17)
    2650              $C$DW$T$44      .dwtag  DW_TAG_typedef, DW_AT_name("portTickType")
    2651                      .dwattr $C$DW$T$44, DW_AT_type(*$C$DW$T$11)
    2652                      .dwattr $C$DW$T$44, DW_AT_language(DW_LANG_C)
    2653              $C$DW$T$12      .dwtag  DW_TAG_base_type
    2654                      .dwattr $C$DW$T$12, DW_AT_encoding(DW_ATE_signed)
TMS320C55x Assembler PC v4.4.1 Fri Sep 07 02:27:22 2018

Tools Copyright (c) 1996-2012 Texas Instruments Incorporated
main.asm                                                             PAGE   55

    2655                      .dwattr $C$DW$T$12, DW_AT_name("long")
    2656                      .dwattr $C$DW$T$12, DW_AT_byte_size(0x02)
    2657              $C$DW$T$13      .dwtag  DW_TAG_base_type
    2658                      .dwattr $C$DW$T$13, DW_AT_encoding(DW_ATE_unsigned)
    2659                      .dwattr $C$DW$T$13, DW_AT_name("unsigned long")
    2660                      .dwattr $C$DW$T$13, DW_AT_byte_size(0x02)
    2661              $C$DW$T$28      .dwtag  DW_TAG_typedef, DW_AT_name("Uint32")
    2662                      .dwattr $C$DW$T$28, DW_AT_type(*$C$DW$T$13)
    2663                      .dwattr $C$DW$T$28, DW_AT_language(DW_LANG_C)
    2664              $C$DW$260       .dwtag  DW_TAG_TI_far_type
    2665                      .dwattr $C$DW$260, DW_AT_type(*$C$DW$T$13)
    2666              $C$DW$T$98      .dwtag  DW_TAG_volatile_type
    2667                      .dwattr $C$DW$T$98, DW_AT_type(*$C$DW$260)
    2668              $C$DW$T$14      .dwtag  DW_TAG_base_type
    2669                      .dwattr $C$DW$T$14, DW_AT_encoding(DW_ATE_signed)
    2670                      .dwattr $C$DW$T$14, DW_AT_name("long long")
    2671                      .dwattr $C$DW$T$14, DW_AT_byte_size(0x04)
    2672                      .dwattr $C$DW$T$14, DW_AT_bit_size(0x28)
    2673                      .dwattr $C$DW$T$14, DW_AT_bit_offset(0x18)
    2674              $C$DW$T$15      .dwtag  DW_TAG_base_type
    2675                      .dwattr $C$DW$T$15, DW_AT_encoding(DW_ATE_unsigned)
    2676                      .dwattr $C$DW$T$15, DW_AT_name("unsigned long long")
    2677                      .dwattr $C$DW$T$15, DW_AT_byte_size(0x04)
    2678                      .dwattr $C$DW$T$15, DW_AT_bit_size(0x28)
    2679                      .dwattr $C$DW$T$15, DW_AT_bit_offset(0x18)
    2680              $C$DW$T$16      .dwtag  DW_TAG_base_type
    2681                      .dwattr $C$DW$T$16, DW_AT_encoding(DW_ATE_float)
    2682                      .dwattr $C$DW$T$16, DW_AT_name("float")
    2683                      .dwattr $C$DW$T$16, DW_AT_byte_size(0x02)
    2684              $C$DW$T$17      .dwtag  DW_TAG_base_type
    2685                      .dwattr $C$DW$T$17, DW_AT_encoding(DW_ATE_float)
    2686                      .dwattr $C$DW$T$17, DW_AT_name("double")
    2687                      .dwattr $C$DW$T$17, DW_AT_byte_size(0x02)
    2688              $C$DW$T$18      .dwtag  DW_TAG_base_type
    2689                      .dwattr $C$DW$T$18, DW_AT_encoding(DW_ATE_float)
    2690                      .dwattr $C$DW$T$18, DW_AT_name("long double")
    2691                      .dwattr $C$DW$T$18, DW_AT_byte_size(0x02)
    2692              $C$DW$T$99      .dwtag  DW_TAG_base_type
    2693                      .dwattr $C$DW$T$99, DW_AT_encoding(DW_ATE_signed_char)
    2694                      .dwattr $C$DW$T$99, DW_AT_name("signed char")
    2695                      .dwattr $C$DW$T$99, DW_AT_byte_size(0x01)
    2696              
    2697              $C$DW$T$34      .dwtag  DW_TAG_structure_type
    2698                      .dwattr $C$DW$T$34, DW_AT_name("xMEMORY_REGION")
    2699                      .dwattr $C$DW$T$34, DW_AT_byte_size(0x06)
    2700              $C$DW$261       .dwtag  DW_TAG_member
    2701                      .dwattr $C$DW$261, DW_AT_type(*$C$DW$T$3)
    2702                      .dwattr $C$DW$261, DW_AT_name("pvBaseAddress")
    2703                      .dwattr $C$DW$261, DW_AT_TI_symbol_name("_pvBaseAddress")
    2704                      .dwattr $C$DW$261, DW_AT_data_member_location[DW_OP_plus_uconst 0x0]
    2705                      .dwattr $C$DW$261, DW_AT_accessibility(DW_ACCESS_public)
    2706              $C$DW$262       .dwtag  DW_TAG_member
    2707                      .dwattr $C$DW$262, DW_AT_type(*$C$DW$T$13)
    2708                      .dwattr $C$DW$262, DW_AT_name("ulLengthInBytes")
    2709                      .dwattr $C$DW$262, DW_AT_TI_symbol_name("_ulLengthInBytes")
TMS320C55x Assembler PC v4.4.1 Fri Sep 07 02:27:22 2018

Tools Copyright (c) 1996-2012 Texas Instruments Incorporated
main.asm                                                             PAGE   56

    2710                      .dwattr $C$DW$262, DW_AT_data_member_location[DW_OP_plus_uconst 0x2]
    2711                      .dwattr $C$DW$262, DW_AT_accessibility(DW_ACCESS_public)
    2712              $C$DW$263       .dwtag  DW_TAG_member
    2713                      .dwattr $C$DW$263, DW_AT_type(*$C$DW$T$13)
    2714                      .dwattr $C$DW$263, DW_AT_name("ulParameters")
    2715                      .dwattr $C$DW$263, DW_AT_TI_symbol_name("_ulParameters")
    2716                      .dwattr $C$DW$263, DW_AT_data_member_location[DW_OP_plus_uconst 0x4]
    2717                      .dwattr $C$DW$263, DW_AT_accessibility(DW_ACCESS_public)
    2718                      .dwendtag $C$DW$T$34
    2719              
    2720              $C$DW$T$84      .dwtag  DW_TAG_typedef, DW_AT_name("xMemoryRegion")
    2721                      .dwattr $C$DW$T$84, DW_AT_type(*$C$DW$T$34)
    2722                      .dwattr $C$DW$T$84, DW_AT_language(DW_LANG_C)
    2723              $C$DW$264       .dwtag  DW_TAG_TI_far_type
    2724                      .dwattr $C$DW$264, DW_AT_type(*$C$DW$T$84)
    2725              $C$DW$T$85      .dwtag  DW_TAG_const_type
    2726                      .dwattr $C$DW$T$85, DW_AT_type(*$C$DW$264)
    2727              $C$DW$T$86      .dwtag  DW_TAG_pointer_type
    2728                      .dwattr $C$DW$T$86, DW_AT_type(*$C$DW$T$85)
    2729                      .dwattr $C$DW$T$86, DW_AT_address_class(0x17)
    2730              $C$DW$265       .dwtag  DW_TAG_TI_far_type
    2731                      .dwattr $C$DW$265, DW_AT_type(*$C$DW$T$86)
    2732              $C$DW$T$87      .dwtag  DW_TAG_const_type
    2733                      .dwattr $C$DW$T$87, DW_AT_type(*$C$DW$265)
    2734                      .dwattr $C$DW$CU, DW_AT_language(DW_LANG_C)
    2735              
    2736              ;***************************************************************
    2737              ;* DWARF CIE ENTRIES                                           *
    2738              ;***************************************************************
    2739              
    2740              $C$DW$CIE       .dwcie 91
    2741                      .dwcfi  cfa_register, 36
    2742                      .dwcfi  cfa_offset, 0
    2743                      .dwcfi  undefined, 0
    2744                      .dwcfi  undefined, 1
    2745                      .dwcfi  undefined, 2
    2746                      .dwcfi  undefined, 3
    2747                      .dwcfi  undefined, 4
    2748                      .dwcfi  undefined, 5
    2749                      .dwcfi  undefined, 6
    2750                      .dwcfi  undefined, 7
    2751                      .dwcfi  undefined, 8
    2752                      .dwcfi  undefined, 9
    2753                      .dwcfi  undefined, 10
    2754                      .dwcfi  undefined, 11
    2755                      .dwcfi  undefined, 12
    2756                      .dwcfi  undefined, 13
    2757                      .dwcfi  same_value, 14
    2758                      .dwcfi  same_value, 15
    2759                      .dwcfi  undefined, 16
    2760                      .dwcfi  undefined, 17
    2761                      .dwcfi  undefined, 18
    2762                      .dwcfi  undefined, 19
    2763                      .dwcfi  undefined, 20
    2764                      .dwcfi  undefined, 21
TMS320C55x Assembler PC v4.4.1 Fri Sep 07 02:27:22 2018

Tools Copyright (c) 1996-2012 Texas Instruments Incorporated
main.asm                                                             PAGE   57

    2765                      .dwcfi  undefined, 22
    2766                      .dwcfi  undefined, 23
    2767                      .dwcfi  undefined, 24
    2768                      .dwcfi  undefined, 25
    2769                      .dwcfi  same_value, 26
    2770                      .dwcfi  same_value, 27
    2771                      .dwcfi  same_value, 28
    2772                      .dwcfi  same_value, 29
    2773                      .dwcfi  same_value, 30
    2774                      .dwcfi  same_value, 31
    2775                      .dwcfi  undefined, 32
    2776                      .dwcfi  undefined, 33
    2777                      .dwcfi  undefined, 34
    2778                      .dwcfi  undefined, 35
    2779                      .dwcfi  undefined, 36
    2780                      .dwcfi  undefined, 37
    2781                      .dwcfi  undefined, 38
    2782                      .dwcfi  undefined, 39
    2783                      .dwcfi  undefined, 40
    2784                      .dwcfi  undefined, 41
    2785                      .dwcfi  undefined, 42
    2786                      .dwcfi  undefined, 43
    2787                      .dwcfi  undefined, 44
    2788                      .dwcfi  undefined, 45
    2789                      .dwcfi  undefined, 46
    2790                      .dwcfi  undefined, 47
    2791                      .dwcfi  undefined, 48
    2792                      .dwcfi  undefined, 49
    2793                      .dwcfi  undefined, 50
    2794                      .dwcfi  undefined, 51
    2795                      .dwcfi  undefined, 52
    2796                      .dwcfi  undefined, 53
    2797                      .dwcfi  undefined, 54
    2798                      .dwcfi  undefined, 55
    2799                      .dwcfi  undefined, 56
    2800                      .dwcfi  undefined, 57
    2801                      .dwcfi  undefined, 58
    2802                      .dwcfi  undefined, 59
    2803                      .dwcfi  undefined, 60
    2804                      .dwcfi  undefined, 61
    2805                      .dwcfi  undefined, 62
    2806                      .dwcfi  undefined, 63
    2807                      .dwcfi  undefined, 64
    2808                      .dwcfi  undefined, 65
    2809                      .dwcfi  undefined, 66
    2810                      .dwcfi  undefined, 67
    2811                      .dwcfi  undefined, 68
    2812                      .dwcfi  undefined, 69
    2813                      .dwcfi  undefined, 70
    2814                      .dwcfi  undefined, 71
    2815                      .dwcfi  undefined, 72
    2816                      .dwcfi  undefined, 73
    2817                      .dwcfi  undefined, 74
    2818                      .dwcfi  undefined, 75
    2819                      .dwcfi  undefined, 76
TMS320C55x Assembler PC v4.4.1 Fri Sep 07 02:27:22 2018

Tools Copyright (c) 1996-2012 Texas Instruments Incorporated
main.asm                                                             PAGE   58

    2820                      .dwcfi  undefined, 77
    2821                      .dwcfi  undefined, 78
    2822                      .dwcfi  undefined, 79
    2823                      .dwcfi  undefined, 80
    2824                      .dwcfi  undefined, 81
    2825                      .dwcfi  undefined, 82
    2826                      .dwcfi  undefined, 83
    2827                      .dwcfi  undefined, 84
    2828                      .dwcfi  undefined, 85
    2829                      .dwcfi  undefined, 86
    2830                      .dwcfi  undefined, 87
    2831                      .dwcfi  undefined, 88
    2832                      .dwcfi  undefined, 89
    2833                      .dwcfi  undefined, 90
    2834                      .dwcfi  undefined, 91
    2835                      .dwendentry
    2836              
    2837              ;***************************************************************
    2838              ;* DWARF REGISTER MAP                                          *
    2839              ;***************************************************************
    2840              
    2841              $C$DW$266       .dwtag  DW_TAG_TI_assign_register, DW_AT_name("AC0")
    2842                      .dwattr $C$DW$266, DW_AT_location[DW_OP_reg0]
    2843              $C$DW$267       .dwtag  DW_TAG_TI_assign_register, DW_AT_name("AC0")
    2844                      .dwattr $C$DW$267, DW_AT_location[DW_OP_reg1]
    2845              $C$DW$268       .dwtag  DW_TAG_TI_assign_register, DW_AT_name("AC0_G")
    2846                      .dwattr $C$DW$268, DW_AT_location[DW_OP_reg2]
    2847              $C$DW$269       .dwtag  DW_TAG_TI_assign_register, DW_AT_name("AC1")
    2848                      .dwattr $C$DW$269, DW_AT_location[DW_OP_reg3]
    2849              $C$DW$270       .dwtag  DW_TAG_TI_assign_register, DW_AT_name("AC1")
    2850                      .dwattr $C$DW$270, DW_AT_location[DW_OP_reg4]
    2851              $C$DW$271       .dwtag  DW_TAG_TI_assign_register, DW_AT_name("AC1_G")
    2852                      .dwattr $C$DW$271, DW_AT_location[DW_OP_reg5]
    2853              $C$DW$272       .dwtag  DW_TAG_TI_assign_register, DW_AT_name("AC2")
    2854                      .dwattr $C$DW$272, DW_AT_location[DW_OP_reg6]
    2855              $C$DW$273       .dwtag  DW_TAG_TI_assign_register, DW_AT_name("AC2")
    2856                      .dwattr $C$DW$273, DW_AT_location[DW_OP_reg7]
    2857              $C$DW$274       .dwtag  DW_TAG_TI_assign_register, DW_AT_name("AC2_G")
    2858                      .dwattr $C$DW$274, DW_AT_location[DW_OP_reg8]
    2859              $C$DW$275       .dwtag  DW_TAG_TI_assign_register, DW_AT_name("AC3")
    2860                      .dwattr $C$DW$275, DW_AT_location[DW_OP_reg9]
    2861              $C$DW$276       .dwtag  DW_TAG_TI_assign_register, DW_AT_name("AC3")
    2862                      .dwattr $C$DW$276, DW_AT_location[DW_OP_reg10]
    2863              $C$DW$277       .dwtag  DW_TAG_TI_assign_register, DW_AT_name("AC3_G")
    2864                      .dwattr $C$DW$277, DW_AT_location[DW_OP_reg11]
    2865              $C$DW$278       .dwtag  DW_TAG_TI_assign_register, DW_AT_name("T0")
    2866                      .dwattr $C$DW$278, DW_AT_location[DW_OP_reg12]
    2867              $C$DW$279       .dwtag  DW_TAG_TI_assign_register, DW_AT_name("T1")
    2868                      .dwattr $C$DW$279, DW_AT_location[DW_OP_reg13]
    2869              $C$DW$280       .dwtag  DW_TAG_TI_assign_register, DW_AT_name("T2")
    2870                      .dwattr $C$DW$280, DW_AT_location[DW_OP_reg14]
    2871              $C$DW$281       .dwtag  DW_TAG_TI_assign_register, DW_AT_name("T3")
    2872                      .dwattr $C$DW$281, DW_AT_location[DW_OP_reg15]
    2873              $C$DW$282       .dwtag  DW_TAG_TI_assign_register, DW_AT_name("AR0")
    2874                      .dwattr $C$DW$282, DW_AT_location[DW_OP_reg16]
TMS320C55x Assembler PC v4.4.1 Fri Sep 07 02:27:22 2018

Tools Copyright (c) 1996-2012 Texas Instruments Incorporated
main.asm                                                             PAGE   59

    2875              $C$DW$283       .dwtag  DW_TAG_TI_assign_register, DW_AT_name("XAR0")
    2876                      .dwattr $C$DW$283, DW_AT_location[DW_OP_reg17]
    2877              $C$DW$284       .dwtag  DW_TAG_TI_assign_register, DW_AT_name("AR1")
    2878                      .dwattr $C$DW$284, DW_AT_location[DW_OP_reg18]
    2879              $C$DW$285       .dwtag  DW_TAG_TI_assign_register, DW_AT_name("XAR1")
    2880                      .dwattr $C$DW$285, DW_AT_location[DW_OP_reg19]
    2881              $C$DW$286       .dwtag  DW_TAG_TI_assign_register, DW_AT_name("AR2")
    2882                      .dwattr $C$DW$286, DW_AT_location[DW_OP_reg20]
    2883              $C$DW$287       .dwtag  DW_TAG_TI_assign_register, DW_AT_name("XAR2")
    2884                      .dwattr $C$DW$287, DW_AT_location[DW_OP_reg21]
    2885              $C$DW$288       .dwtag  DW_TAG_TI_assign_register, DW_AT_name("AR3")
    2886                      .dwattr $C$DW$288, DW_AT_location[DW_OP_reg22]
    2887              $C$DW$289       .dwtag  DW_TAG_TI_assign_register, DW_AT_name("XAR3")
    2888                      .dwattr $C$DW$289, DW_AT_location[DW_OP_reg23]
    2889              $C$DW$290       .dwtag  DW_TAG_TI_assign_register, DW_AT_name("AR4")
    2890                      .dwattr $C$DW$290, DW_AT_location[DW_OP_reg24]
    2891              $C$DW$291       .dwtag  DW_TAG_TI_assign_register, DW_AT_name("XAR4")
    2892                      .dwattr $C$DW$291, DW_AT_location[DW_OP_reg25]
    2893              $C$DW$292       .dwtag  DW_TAG_TI_assign_register, DW_AT_name("AR5")
    2894                      .dwattr $C$DW$292, DW_AT_location[DW_OP_reg26]
    2895              $C$DW$293       .dwtag  DW_TAG_TI_assign_register, DW_AT_name("XAR5")
    2896                      .dwattr $C$DW$293, DW_AT_location[DW_OP_reg27]
    2897              $C$DW$294       .dwtag  DW_TAG_TI_assign_register, DW_AT_name("AR6")
    2898                      .dwattr $C$DW$294, DW_AT_location[DW_OP_reg28]
    2899              $C$DW$295       .dwtag  DW_TAG_TI_assign_register, DW_AT_name("XAR6")
    2900                      .dwattr $C$DW$295, DW_AT_location[DW_OP_reg29]
    2901              $C$DW$296       .dwtag  DW_TAG_TI_assign_register, DW_AT_name("AR7")
    2902                      .dwattr $C$DW$296, DW_AT_location[DW_OP_reg30]
    2903              $C$DW$297       .dwtag  DW_TAG_TI_assign_register, DW_AT_name("XAR7")
    2904                      .dwattr $C$DW$297, DW_AT_location[DW_OP_reg31]
    2905              $C$DW$298       .dwtag  DW_TAG_TI_assign_register, DW_AT_name("FP")
    2906                      .dwattr $C$DW$298, DW_AT_location[DW_OP_regx 0x20]
    2907              $C$DW$299       .dwtag  DW_TAG_TI_assign_register, DW_AT_name("XFP")
    2908                      .dwattr $C$DW$299, DW_AT_location[DW_OP_regx 0x21]
    2909              $C$DW$300       .dwtag  DW_TAG_TI_assign_register, DW_AT_name("PC")
    2910                      .dwattr $C$DW$300, DW_AT_location[DW_OP_regx 0x22]
    2911              $C$DW$301       .dwtag  DW_TAG_TI_assign_register, DW_AT_name("SP")
    2912                      .dwattr $C$DW$301, DW_AT_location[DW_OP_regx 0x23]
    2913              $C$DW$302       .dwtag  DW_TAG_TI_assign_register, DW_AT_name("XSP")
    2914                      .dwattr $C$DW$302, DW_AT_location[DW_OP_regx 0x24]
    2915              $C$DW$303       .dwtag  DW_TAG_TI_assign_register, DW_AT_name("BKC")
    2916                      .dwattr $C$DW$303, DW_AT_location[DW_OP_regx 0x25]
    2917              $C$DW$304       .dwtag  DW_TAG_TI_assign_register, DW_AT_name("BK03")
    2918                      .dwattr $C$DW$304, DW_AT_location[DW_OP_regx 0x26]
    2919              $C$DW$305       .dwtag  DW_TAG_TI_assign_register, DW_AT_name("BK47")
    2920                      .dwattr $C$DW$305, DW_AT_location[DW_OP_regx 0x27]
    2921              $C$DW$306       .dwtag  DW_TAG_TI_assign_register, DW_AT_name("ST0")
    2922                      .dwattr $C$DW$306, DW_AT_location[DW_OP_regx 0x28]
    2923              $C$DW$307       .dwtag  DW_TAG_TI_assign_register, DW_AT_name("ST1")
    2924                      .dwattr $C$DW$307, DW_AT_location[DW_OP_regx 0x29]
    2925              $C$DW$308       .dwtag  DW_TAG_TI_assign_register, DW_AT_name("ST2")
    2926                      .dwattr $C$DW$308, DW_AT_location[DW_OP_regx 0x2a]
    2927              $C$DW$309       .dwtag  DW_TAG_TI_assign_register, DW_AT_name("ST3")
    2928                      .dwattr $C$DW$309, DW_AT_location[DW_OP_regx 0x2b]
    2929              $C$DW$310       .dwtag  DW_TAG_TI_assign_register, DW_AT_name("MDP")
TMS320C55x Assembler PC v4.4.1 Fri Sep 07 02:27:22 2018

Tools Copyright (c) 1996-2012 Texas Instruments Incorporated
main.asm                                                             PAGE   60

    2930                      .dwattr $C$DW$310, DW_AT_location[DW_OP_regx 0x2c]
    2931              $C$DW$311       .dwtag  DW_TAG_TI_assign_register, DW_AT_name("MDP05")
    2932                      .dwattr $C$DW$311, DW_AT_location[DW_OP_regx 0x2d]
    2933              $C$DW$312       .dwtag  DW_TAG_TI_assign_register, DW_AT_name("MDP67")
    2934                      .dwattr $C$DW$312, DW_AT_location[DW_OP_regx 0x2e]
    2935              $C$DW$313       .dwtag  DW_TAG_TI_assign_register, DW_AT_name("BRC0")
    2936                      .dwattr $C$DW$313, DW_AT_location[DW_OP_regx 0x2f]
    2937              $C$DW$314       .dwtag  DW_TAG_TI_assign_register, DW_AT_name("RSA0")
    2938                      .dwattr $C$DW$314, DW_AT_location[DW_OP_regx 0x30]
    2939              $C$DW$315       .dwtag  DW_TAG_TI_assign_register, DW_AT_name("RSA0_H")
    2940                      .dwattr $C$DW$315, DW_AT_location[DW_OP_regx 0x31]
    2941              $C$DW$316       .dwtag  DW_TAG_TI_assign_register, DW_AT_name("REA0")
    2942                      .dwattr $C$DW$316, DW_AT_location[DW_OP_regx 0x32]
    2943              $C$DW$317       .dwtag  DW_TAG_TI_assign_register, DW_AT_name("REA0_H")
    2944                      .dwattr $C$DW$317, DW_AT_location[DW_OP_regx 0x33]
    2945              $C$DW$318       .dwtag  DW_TAG_TI_assign_register, DW_AT_name("BRS1")
    2946                      .dwattr $C$DW$318, DW_AT_location[DW_OP_regx 0x34]
    2947              $C$DW$319       .dwtag  DW_TAG_TI_assign_register, DW_AT_name("BRC1")
    2948                      .dwattr $C$DW$319, DW_AT_location[DW_OP_regx 0x35]
    2949              $C$DW$320       .dwtag  DW_TAG_TI_assign_register, DW_AT_name("RSA1")
    2950                      .dwattr $C$DW$320, DW_AT_location[DW_OP_regx 0x36]
    2951              $C$DW$321       .dwtag  DW_TAG_TI_assign_register, DW_AT_name("RSA1_H")
    2952                      .dwattr $C$DW$321, DW_AT_location[DW_OP_regx 0x37]
    2953              $C$DW$322       .dwtag  DW_TAG_TI_assign_register, DW_AT_name("REA1")
    2954                      .dwattr $C$DW$322, DW_AT_location[DW_OP_regx 0x38]
    2955              $C$DW$323       .dwtag  DW_TAG_TI_assign_register, DW_AT_name("REA1_H")
    2956                      .dwattr $C$DW$323, DW_AT_location[DW_OP_regx 0x39]
    2957              $C$DW$324       .dwtag  DW_TAG_TI_assign_register, DW_AT_name("CSR")
    2958                      .dwattr $C$DW$324, DW_AT_location[DW_OP_regx 0x3a]
    2959              $C$DW$325       .dwtag  DW_TAG_TI_assign_register, DW_AT_name("RPTC")
    2960                      .dwattr $C$DW$325, DW_AT_location[DW_OP_regx 0x3b]
    2961              $C$DW$326       .dwtag  DW_TAG_TI_assign_register, DW_AT_name("CDP")
    2962                      .dwattr $C$DW$326, DW_AT_location[DW_OP_regx 0x3c]
    2963              $C$DW$327       .dwtag  DW_TAG_TI_assign_register, DW_AT_name("XCDP")
    2964                      .dwattr $C$DW$327, DW_AT_location[DW_OP_regx 0x3d]
    2965              $C$DW$328       .dwtag  DW_TAG_TI_assign_register, DW_AT_name("TRN0")
    2966                      .dwattr $C$DW$328, DW_AT_location[DW_OP_regx 0x3e]
    2967              $C$DW$329       .dwtag  DW_TAG_TI_assign_register, DW_AT_name("TRN1")
    2968                      .dwattr $C$DW$329, DW_AT_location[DW_OP_regx 0x3f]
    2969              $C$DW$330       .dwtag  DW_TAG_TI_assign_register, DW_AT_name("BSA01")
    2970                      .dwattr $C$DW$330, DW_AT_location[DW_OP_regx 0x40]
    2971              $C$DW$331       .dwtag  DW_TAG_TI_assign_register, DW_AT_name("BSA23")
    2972                      .dwattr $C$DW$331, DW_AT_location[DW_OP_regx 0x41]
    2973              $C$DW$332       .dwtag  DW_TAG_TI_assign_register, DW_AT_name("BSA45")
    2974                      .dwattr $C$DW$332, DW_AT_location[DW_OP_regx 0x42]
    2975              $C$DW$333       .dwtag  DW_TAG_TI_assign_register, DW_AT_name("BSA67")
    2976                      .dwattr $C$DW$333, DW_AT_location[DW_OP_regx 0x43]
    2977              $C$DW$334       .dwtag  DW_TAG_TI_assign_register, DW_AT_name("BSAC")
    2978                      .dwattr $C$DW$334, DW_AT_location[DW_OP_regx 0x44]
    2979              $C$DW$335       .dwtag  DW_TAG_TI_assign_register, DW_AT_name("CARRY")
    2980                      .dwattr $C$DW$335, DW_AT_location[DW_OP_regx 0x45]
    2981              $C$DW$336       .dwtag  DW_TAG_TI_assign_register, DW_AT_name("TC1")
    2982                      .dwattr $C$DW$336, DW_AT_location[DW_OP_regx 0x46]
    2983              $C$DW$337       .dwtag  DW_TAG_TI_assign_register, DW_AT_name("TC2")
    2984                      .dwattr $C$DW$337, DW_AT_location[DW_OP_regx 0x47]
TMS320C55x Assembler PC v4.4.1 Fri Sep 07 02:27:22 2018

Tools Copyright (c) 1996-2012 Texas Instruments Incorporated
main.asm                                                             PAGE   61

    2985              $C$DW$338       .dwtag  DW_TAG_TI_assign_register, DW_AT_name("M40")
    2986                      .dwattr $C$DW$338, DW_AT_location[DW_OP_regx 0x48]
    2987              $C$DW$339       .dwtag  DW_TAG_TI_assign_register, DW_AT_name("SXMD")
    2988                      .dwattr $C$DW$339, DW_AT_location[DW_OP_regx 0x49]
    2989              $C$DW$340       .dwtag  DW_TAG_TI_assign_register, DW_AT_name("ARMS")
    2990                      .dwattr $C$DW$340, DW_AT_location[DW_OP_regx 0x4a]
    2991              $C$DW$341       .dwtag  DW_TAG_TI_assign_register, DW_AT_name("C54CM")
    2992                      .dwattr $C$DW$341, DW_AT_location[DW_OP_regx 0x4b]
    2993              $C$DW$342       .dwtag  DW_TAG_TI_assign_register, DW_AT_name("SATA")
    2994                      .dwattr $C$DW$342, DW_AT_location[DW_OP_regx 0x4c]
    2995              $C$DW$343       .dwtag  DW_TAG_TI_assign_register, DW_AT_name("SATD")
    2996                      .dwattr $C$DW$343, DW_AT_location[DW_OP_regx 0x4d]
    2997              $C$DW$344       .dwtag  DW_TAG_TI_assign_register, DW_AT_name("RDM")
    2998                      .dwattr $C$DW$344, DW_AT_location[DW_OP_regx 0x4e]
    2999              $C$DW$345       .dwtag  DW_TAG_TI_assign_register, DW_AT_name("FRCT")
    3000                      .dwattr $C$DW$345, DW_AT_location[DW_OP_regx 0x4f]
    3001              $C$DW$346       .dwtag  DW_TAG_TI_assign_register, DW_AT_name("SMUL")
    3002                      .dwattr $C$DW$346, DW_AT_location[DW_OP_regx 0x50]
    3003              $C$DW$347       .dwtag  DW_TAG_TI_assign_register, DW_AT_name("INTM")
    3004                      .dwattr $C$DW$347, DW_AT_location[DW_OP_regx 0x51]
    3005              $C$DW$348       .dwtag  DW_TAG_TI_assign_register, DW_AT_name("AR0LC")
    3006                      .dwattr $C$DW$348, DW_AT_location[DW_OP_regx 0x52]
    3007              $C$DW$349       .dwtag  DW_TAG_TI_assign_register, DW_AT_name("AR1LC")
    3008                      .dwattr $C$DW$349, DW_AT_location[DW_OP_regx 0x53]
    3009              $C$DW$350       .dwtag  DW_TAG_TI_assign_register, DW_AT_name("AR2LC")
    3010                      .dwattr $C$DW$350, DW_AT_location[DW_OP_regx 0x54]
    3011              $C$DW$351       .dwtag  DW_TAG_TI_assign_register, DW_AT_name("AR3LC")
    3012                      .dwattr $C$DW$351, DW_AT_location[DW_OP_regx 0x55]
    3013              $C$DW$352       .dwtag  DW_TAG_TI_assign_register, DW_AT_name("AR4LC")
    3014                      .dwattr $C$DW$352, DW_AT_location[DW_OP_regx 0x56]
    3015              $C$DW$353       .dwtag  DW_TAG_TI_assign_register, DW_AT_name("AR5LC")
    3016                      .dwattr $C$DW$353, DW_AT_location[DW_OP_regx 0x57]
    3017              $C$DW$354       .dwtag  DW_TAG_TI_assign_register, DW_AT_name("AR6LC")
    3018                      .dwattr $C$DW$354, DW_AT_location[DW_OP_regx 0x58]
    3019              $C$DW$355       .dwtag  DW_TAG_TI_assign_register, DW_AT_name("AR7LC")
    3020                      .dwattr $C$DW$355, DW_AT_location[DW_OP_regx 0x59]
    3021              $C$DW$356       .dwtag  DW_TAG_TI_assign_register, DW_AT_name("CDPLC")
    3022                      .dwattr $C$DW$356, DW_AT_location[DW_OP_regx 0x5a]
    3023              $C$DW$357       .dwtag  DW_TAG_TI_assign_register, DW_AT_name("CIE_RETA")
    3024                      .dwattr $C$DW$357, DW_AT_location[DW_OP_regx 0x5b]
    3025                      .dwendtag $C$DW$CU
    3026              
    3026              
    3026              

No Assembly Errors, No Assembly Warnings
